     1 00000000                                 [FORMAT "WCOFF"]
     2 00000000                                 [INSTRSET "i486p"]
     3 00000000                                 [OPTIMIZE 1]
     4 00000000                                 [OPTION 1]
     5 00000000                                 [BITS 32]
     6 00000000                                 	EXTERN	_io_in8
     7 00000000                                 	EXTERN	_io_out8
     8 00000000                                 	EXTERN	_io_load_eflags
     9 00000000                                 	EXTERN	_io_cli
    10 00000000                                 	EXTERN	_io_store_eflags
    11 00000000                                 	EXTERN	_loadGdtr
    12 00000000                                 	EXTERN	_loadIdtr
    13 00000000                                 	EXTERN	_asm_interruptHandler20
    14 00000000                                 	EXTERN	_asm_interruptHandler21
    15 00000000                                 	EXTERN	_asm_interruptHandler27
    16 00000000                                 	EXTERN	_asm_interruptHandler2c
    17 00000000                                 	EXTERN	_font
    18 00000000                                 	EXTERN	_memtest_sub
    19 00000000                                 	EXTERN	_loadCr0
    20 00000000                                 	EXTERN	_storeCr0
    21 00000000                                 	EXTERN	_io_sti
    22 00000000                                 	EXTERN	_sprintf
    23 00000000                                 	EXTERN	_io_stihlt
    24 00000000                                 [FILE "bootpack.c"]
    25                                          [SECTION .text]
    26 00000000                                 	GLOBAL	_QueueInit
    27 00000000                                 _QueueInit:
    28 00000000 55                              	PUSH	EBP
    29 00000001 89 E5                           	MOV	EBP,ESP
    30 00000003 8B 45 08                        	MOV	EAX,DWORD [8+EBP]
    31 00000006 8B 4D 0C                        	MOV	ECX,DWORD [12+EBP]
    32 00000009 8B 55 10                        	MOV	EDX,DWORD [16+EBP]
    33 0000000C 89 48 0C                        	MOV	DWORD [12+EAX],ECX
    34 0000000F 89 10                           	MOV	DWORD [EAX],EDX
    35 00000011 89 48 10                        	MOV	DWORD [16+EAX],ECX
    36 00000014 C7 40 14 00000000               	MOV	DWORD [20+EAX],0
    37 0000001B C7 40 08 00000000               	MOV	DWORD [8+EAX],0
    38 00000022 C7 40 04 00000000               	MOV	DWORD [4+EAX],0
    39 00000029 5D                              	POP	EBP
    40 0000002A C3                              	RET
    41 0000002B                                 	GLOBAL	_QueuePush
    42 0000002B                                 _QueuePush:
    43 0000002B 55                              	PUSH	EBP
    44 0000002C 89 E5                           	MOV	EBP,ESP
    45 0000002E 53                              	PUSH	EBX
    46 0000002F 8B 5D 08                        	MOV	EBX,DWORD [8+EBP]
    47 00000032 83 7B 10 00                     	CMP	DWORD [16+EBX],0
    48 00000036 75 0A                           	JNE	L3
    49 00000038 83 4B 14 01                     	OR	DWORD [20+EBX],1
    50 0000003C 83 C8 FF                        	OR	EAX,-1
    51 0000003F                                 L2:
    52 0000003F 5B                              	POP	EBX
    53 00000040 5D                              	POP	EBP
    54 00000041 C3                              	RET
    55 00000042                                 L3:
    56 00000042 8B 4B 04                        	MOV	ECX,DWORD [4+EBX]
    57 00000045 8B 13                           	MOV	EDX,DWORD [EBX]
    58 00000047 8B 45 0C                        	MOV	EAX,DWORD [12+EBP]
    59 0000004A 89 04 8A                        	MOV	DWORD [EDX+ECX*4],EAX
    60 0000004D 8B 43 04                        	MOV	EAX,DWORD [4+EBX]
    61 00000050 FF 4B 10                        	DEC	DWORD [16+EBX]
    62 00000053 40                              	INC	EAX
    63 00000054 99                              	CDQ
    64 00000055 F7 7B 0C                        	IDIV	DWORD [12+EBX]
    65 00000058 31 C0                           	XOR	EAX,EAX
    66 0000005A 89 53 04                        	MOV	DWORD [4+EBX],EDX
    67 0000005D EB E0                           	JMP	L2
    68 0000005F                                 	GLOBAL	_QueuePop
    69 0000005F                                 _QueuePop:
    70 0000005F 55                              	PUSH	EBP
    71 00000060 83 C8 FF                        	OR	EAX,-1
    72 00000063 89 E5                           	MOV	EBP,ESP
    73 00000065 57                              	PUSH	EDI
    74 00000066 56                              	PUSH	ESI
    75 00000067 8B 75 08                        	MOV	ESI,DWORD [8+EBP]
    76 0000006A 53                              	PUSH	EBX
    77 0000006B 8B 7E 10                        	MOV	EDI,DWORD [16+ESI]
    78 0000006E 8B 5E 0C                        	MOV	EBX,DWORD [12+ESI]
    79 00000071 39 DF                           	CMP	EDI,EBX
    80 00000073 74 17                           	JE	L4
    81 00000075 8B 46 08                        	MOV	EAX,DWORD [8+ESI]
    82 00000078 8B 16                           	MOV	EDX,DWORD [ESI]
    83 0000007A 8B 0C 82                        	MOV	ECX,DWORD [EDX+EAX*4]
    84 0000007D 40                              	INC	EAX
    85 0000007E 99                              	CDQ
    86 0000007F F7 FB                           	IDIV	EBX
    87 00000081 8D 47 01                        	LEA	EAX,DWORD [1+EDI]
    88 00000084 89 56 08                        	MOV	DWORD [8+ESI],EDX
    89 00000087 89 46 10                        	MOV	DWORD [16+ESI],EAX
    90 0000008A 89 C8                           	MOV	EAX,ECX
    91 0000008C                                 L4:
    92 0000008C 5B                              	POP	EBX
    93 0000008D 5E                              	POP	ESI
    94 0000008E 5F                              	POP	EDI
    95 0000008F 5D                              	POP	EBP
    96 00000090 C3                              	RET
    97 00000091                                 	GLOBAL	_QueueSize
    98 00000091                                 _QueueSize:
    99 00000091 55                              	PUSH	EBP
   100 00000092 89 E5                           	MOV	EBP,ESP
   101 00000094 8B 55 08                        	MOV	EDX,DWORD [8+EBP]
   102 00000097 5D                              	POP	EBP
   103 00000098 8B 42 0C                        	MOV	EAX,DWORD [12+EDX]
   104 0000009B 2B 42 10                        	SUB	EAX,DWORD [16+EDX]
   105 0000009E C3                              	RET
   106 0000009F                                 	GLOBAL	_waitKeyboardControllerReady
   107 0000009F                                 _waitKeyboardControllerReady:
   108 0000009F 55                              	PUSH	EBP
   109 000000A0 89 E5                           	MOV	EBP,ESP
   110 000000A2                                 L8:
   111 000000A2 6A 64                           	PUSH	100
   112 000000A4 E8 [00000000]                   	CALL	_io_in8
   113 000000A9 5A                              	POP	EDX
   114 000000AA 83 E0 02                        	AND	EAX,2
   115 000000AD 75 F3                           	JNE	L8
   116 000000AF C9                              	LEAVE
   117 000000B0 C3                              	RET
   118 000000B1                                 	GLOBAL	_initKeyboard
   119 000000B1                                 _initKeyboard:
   120 000000B1 55                              	PUSH	EBP
   121 000000B2 89 E5                           	MOV	EBP,ESP
   122 000000B4 8B 45 08                        	MOV	EAX,DWORD [8+EBP]
   123 000000B7 A3 [00000268]                   	MOV	DWORD [_keybuf],EAX
   124 000000BC 8B 45 0C                        	MOV	EAX,DWORD [12+EBP]
   125 000000BF A3 [0000026C]                   	MOV	DWORD [_keyData0],EAX
   126 000000C4 E8 FFFFFFD6                     	CALL	_waitKeyboardControllerReady
   127 000000C9 6A 60                           	PUSH	96
   128 000000CB 6A 64                           	PUSH	100
   129 000000CD E8 [00000000]                   	CALL	_io_out8
   130 000000D2 E8 FFFFFFC8                     	CALL	_waitKeyboardControllerReady
   131 000000D7 59                              	POP	ECX
   132 000000D8 58                              	POP	EAX
   133 000000D9 C7 45 0C 00000047               	MOV	DWORD [12+EBP],71
   134 000000E0 C7 45 08 00000060               	MOV	DWORD [8+EBP],96
   135 000000E7 C9                              	LEAVE
   136 000000E8 E9 [00000000]                   	JMP	_io_out8
   137 000000ED                                 	GLOBAL	_enableMouse
   138 000000ED                                 _enableMouse:
   139 000000ED 55                              	PUSH	EBP
   140 000000EE 89 E5                           	MOV	EBP,ESP
   141 000000F0 8B 45 08                        	MOV	EAX,DWORD [8+EBP]
   142 000000F3 A3 [00000270]                   	MOV	DWORD [_mousebuf],EAX
   143 000000F8 8B 45 0C                        	MOV	EAX,DWORD [12+EBP]
   144 000000FB A3 [00000274]                   	MOV	DWORD [_mouseData0],EAX
   145 00000100 E8 FFFFFF9A                     	CALL	_waitKeyboardControllerReady
   146 00000105 68 000000D4                     	PUSH	212
   147 0000010A 6A 64                           	PUSH	100
   148 0000010C E8 [00000000]                   	CALL	_io_out8
   149 00000111 E8 FFFFFF89                     	CALL	_waitKeyboardControllerReady
   150 00000116 68 000000F4                     	PUSH	244
   151 0000011B 6A 60                           	PUSH	96
   152 0000011D E8 [00000000]                   	CALL	_io_out8
   153 00000122 8B 45 10                        	MOV	EAX,DWORD [16+EBP]
   154 00000125 C6 40 03 00                     	MOV	BYTE [3+EAX],0
   155 00000129 C9                              	LEAVE
   156 0000012A C3                              	RET
   157 0000012B                                 	GLOBAL	_mouseDecode
   158 0000012B                                 _mouseDecode:
   159 0000012B 55                              	PUSH	EBP
   160 0000012C 89 E5                           	MOV	EBP,ESP
   161 0000012E 56                              	PUSH	ESI
   162 0000012F 53                              	PUSH	EBX
   163 00000130 8B 55 08                        	MOV	EDX,DWORD [8+EBP]
   164 00000133 8B 4D 0C                        	MOV	ECX,DWORD [12+EBP]
   165 00000136 89 CE                           	MOV	ESI,ECX
   166 00000138 8A 42 03                        	MOV	AL,BYTE [3+EDX]
   167 0000013B 84 C0                           	TEST	AL,AL
   168 0000013D 75 11                           	JNE	L15
   169 0000013F 80 F9 FA                        	CMP	CL,-6
   170 00000142 74 06                           	JE	L24
   171 00000144                                 L23:
   172 00000144 31 C0                           	XOR	EAX,EAX
   173 00000146                                 L14:
   174 00000146 5B                              	POP	EBX
   175 00000147 5E                              	POP	ESI
   176 00000148 5D                              	POP	EBP
   177 00000149 C3                              	RET
   178 0000014A                                 L24:
   179 0000014A C6 42 03 01                     	MOV	BYTE [3+EDX],1
   180 0000014E EB F4                           	JMP	L23
   181 00000150                                 L15:
   182 00000150 3C 01                           	CMP	AL,1
   183 00000152 74 61                           	JE	L25
   184 00000154 3C 02                           	CMP	AL,2
   185 00000156 74 54                           	JE	L26
   186 00000158 3C 03                           	CMP	AL,3
   187 0000015A 74 05                           	JE	L27
   188 0000015C 83 C8 FF                        	OR	EAX,-1
   189 0000015F EB E5                           	JMP	L14
   190 00000161                                 L27:
   191 00000161 8A 1A                           	MOV	BL,BYTE [EDX]
   192 00000163 81 E6 000000FF                  	AND	ESI,255
   193 00000169 89 D8                           	MOV	EAX,EBX
   194 0000016B 88 4A 02                        	MOV	BYTE [2+EDX],CL
   195 0000016E 83 E0 07                        	AND	EAX,7
   196 00000171 89 72 08                        	MOV	DWORD [8+EDX],ESI
   197 00000174 89 42 0C                        	MOV	DWORD [12+EDX],EAX
   198 00000177 88 D8                           	MOV	AL,BL
   199 00000179 0F B6 4A 01                     	MOVZX	ECX,BYTE [1+EDX]
   200 0000017D 83 E0 10                        	AND	EAX,16
   201 00000180 89 4A 04                        	MOV	DWORD [4+EDX],ECX
   202 00000183 C6 42 03 01                     	MOV	BYTE [3+EDX],1
   203 00000187 84 C0                           	TEST	AL,AL
   204 00000189 74 09                           	JE	L21
   205 0000018B 81 C9 FFFFFF00                  	OR	ECX,-256
   206 00000191 89 4A 04                        	MOV	DWORD [4+EDX],ECX
   207 00000194                                 L21:
   208 00000194 83 E3 20                        	AND	EBX,32
   209 00000197 84 DB                           	TEST	BL,BL
   210 00000199 74 07                           	JE	L22
   211 0000019B 81 4A 08 FFFFFF00               	OR	DWORD [8+EDX],-256
   212 000001A2                                 L22:
   213 000001A2 F7 5A 08                        	NEG	DWORD [8+EDX]
   214 000001A5 B8 00000001                     	MOV	EAX,1
   215 000001AA EB 9A                           	JMP	L14
   216 000001AC                                 L26:
   217 000001AC 88 4A 01                        	MOV	BYTE [1+EDX],CL
   218 000001AF C6 42 03 03                     	MOV	BYTE [3+EDX],3
   219 000001B3 EB 8F                           	JMP	L23
   220 000001B5                                 L25:
   221 000001B5 83 E6 C8                        	AND	ESI,-56
   222 000001B8 89 F0                           	MOV	EAX,ESI
   223 000001BA 3C 08                           	CMP	AL,8
   224 000001BC 75 86                           	JNE	L23
   225 000001BE 88 0A                           	MOV	BYTE [EDX],CL
   226 000001C0 C6 42 03 02                     	MOV	BYTE [3+EDX],2
   227 000001C4 E9 FFFFFF7B                     	JMP	L23
   228 000001C9                                 	GLOBAL	_initPit
   229 000001C9                                 _initPit:
   230 000001C9 55                              	PUSH	EBP
   231 000001CA 89 E5                           	MOV	EBP,ESP
   232 000001CC 6A 34                           	PUSH	52
   233 000001CE 6A 43                           	PUSH	67
   234 000001D0 E8 [00000000]                   	CALL	_io_out8
   235 000001D5 68 0000009C                     	PUSH	156
   236 000001DA 6A 40                           	PUSH	64
   237 000001DC E8 [00000000]                   	CALL	_io_out8
   238 000001E1 6A 2E                           	PUSH	46
   239 000001E3 6A 40                           	PUSH	64
   240 000001E5 E8 [00000000]                   	CALL	_io_out8
   241 000001EA BA [00002990]                   	MOV	EDX,_timerctl+10000
   242 000001EF C7 05 [00000280] 00000000       	MOV	DWORD [_timerctl],0
   243 000001F9 83 C4 18                        	ADD	ESP,24
   244 000001FC B8 [00000294]                   	MOV	EAX,_timerctl+20
   245 00000201                                 L33:
   246 00000201 C7 00 00000000                  	MOV	DWORD [EAX],0
   247 00000207 83 C0 14                        	ADD	EAX,20
   248 0000020A 39 D0                           	CMP	EAX,EDX
   249 0000020C 7E F3                           	JLE	L33
   250 0000020E E8 00000025                     	CALL	_timerAlloc
   251 00000213 C7 40 04 FFFFFFFF               	MOV	DWORD [4+EAX],-1
   252 0000021A C7 40 08 00000002               	MOV	DWORD [8+EAX],2
   253 00000221 C7 00 00000000                  	MOV	DWORD [EAX],0
   254 00000227 A3 [00000288]                   	MOV	DWORD [_timerctl+8],EAX
   255 0000022C C7 05 [00000284] FFFFFFFF       	MOV	DWORD [_timerctl+4],-1
   256 00000236 C9                              	LEAVE
   257 00000237 C3                              	RET
   258 00000238                                 	GLOBAL	_timerAlloc
   259 00000238                                 _timerAlloc:
   260 00000238 55                              	PUSH	EBP
   261 00000239 31 D2                           	XOR	EDX,EDX
   262 0000023B 89 E5                           	MOV	EBP,ESP
   263 0000023D B8 [0000028C]                   	MOV	EAX,_timerctl+12
   264 00000242                                 L42:
   265 00000242 83 78 08 00                     	CMP	DWORD [8+EAX],0
   266 00000246 74 10                           	JE	L45
   267 00000248 42                              	INC	EDX
   268 00000249 83 C0 14                        	ADD	EAX,20
   269 0000024C 81 FA 000001F3                  	CMP	EDX,499
   270 00000252 7E EE                           	JLE	L42
   271 00000254 31 C0                           	XOR	EAX,EAX
   272 00000256                                 L36:
   273 00000256 5D                              	POP	EBP
   274 00000257 C3                              	RET
   275 00000258                                 L45:
   276 00000258 C7 40 08 00000001               	MOV	DWORD [8+EAX],1
   277 0000025F EB F5                           	JMP	L36
   278 00000261                                 	GLOBAL	_timerFree
   279 00000261                                 _timerFree:
   280 00000261 55                              	PUSH	EBP
   281 00000262 89 E5                           	MOV	EBP,ESP
   282 00000264 8B 45 08                        	MOV	EAX,DWORD [8+EBP]
   283 00000267 C7 40 08 00000000               	MOV	DWORD [8+EAX],0
   284 0000026E 5D                              	POP	EBP
   285 0000026F C3                              	RET
   286 00000270                                 	GLOBAL	_timerInit
   287 00000270                                 _timerInit:
   288 00000270 55                              	PUSH	EBP
   289 00000271 89 E5                           	MOV	EBP,ESP
   290 00000273 8B 45 08                        	MOV	EAX,DWORD [8+EBP]
   291 00000276 8B 55 0C                        	MOV	EDX,DWORD [12+EBP]
   292 00000279 89 50 0C                        	MOV	DWORD [12+EAX],EDX
   293 0000027C 8B 55 10                        	MOV	EDX,DWORD [16+EBP]
   294 0000027F 88 50 10                        	MOV	BYTE [16+EAX],DL
   295 00000282 5D                              	POP	EBP
   296 00000283 C3                              	RET
   297 00000284                                 	GLOBAL	_timerSetTime
   298 00000284                                 _timerSetTime:
   299 00000284 55                              	PUSH	EBP
   300 00000285 A1 [00000280]                   	MOV	EAX,DWORD [_timerctl]
   301 0000028A 89 E5                           	MOV	EBP,ESP
   302 0000028C 56                              	PUSH	ESI
   303 0000028D 53                              	PUSH	EBX
   304 0000028E 8B 5D 08                        	MOV	EBX,DWORD [8+EBP]
   305 00000291 03 45 0C                        	ADD	EAX,DWORD [12+EBP]
   306 00000294 C7 43 08 00000002               	MOV	DWORD [8+EBX],2
   307 0000029B 89 43 04                        	MOV	DWORD [4+EBX],EAX
   308 0000029E E8 [00000000]                   	CALL	_io_load_eflags
   309 000002A3 89 C6                           	MOV	ESI,EAX
   310 000002A5 E8 [00000000]                   	CALL	_io_cli
   311 000002AA A1 [00000288]                   	MOV	EAX,DWORD [_timerctl+8]
   312 000002AF 8B 53 04                        	MOV	EDX,DWORD [4+EBX]
   313 000002B2 3B 50 04                        	CMP	EDX,DWORD [4+EAX]
   314 000002B5 76 1C                           	JBE	L55
   315 000002B7                                 L50:
   316 000002B7 89 C1                           	MOV	ECX,EAX
   317 000002B9 8B 00                           	MOV	EAX,DWORD [EAX]
   318 000002BB 85 C0                           	TEST	EAX,EAX
   319 000002BD 74 09                           	JE	L51
   320 000002BF 3B 50 04                        	CMP	EDX,DWORD [4+EAX]
   321 000002C2 77 F3                           	JA	L50
   322 000002C4 89 19                           	MOV	DWORD [ECX],EBX
   323 000002C6 89 03                           	MOV	DWORD [EBX],EAX
   324 000002C8                                 L51:
   325 000002C8 89 75 08                        	MOV	DWORD [8+EBP],ESI
   326 000002CB 5B                              	POP	EBX
   327 000002CC 5E                              	POP	ESI
   328 000002CD 5D                              	POP	EBP
   329 000002CE E9 [00000000]                   	JMP	_io_store_eflags
   330 000002D3                                 L55:
   331 000002D3 89 1D [00000288]                	MOV	DWORD [_timerctl+8],EBX
   332 000002D9 89 15 [00000284]                	MOV	DWORD [_timerctl+4],EDX
   333 000002DF 89 03                           	MOV	DWORD [EBX],EAX
   334 000002E1 EB E5                           	JMP	L51
   335 000002E3                                 	GLOBAL	_init_pic
   336 000002E3                                 _init_pic:
   337 000002E3 55                              	PUSH	EBP
   338 000002E4 89 E5                           	MOV	EBP,ESP
   339 000002E6 68 000000FF                     	PUSH	255
   340 000002EB 6A 21                           	PUSH	33
   341 000002ED E8 [00000000]                   	CALL	_io_out8
   342 000002F2 68 000000FF                     	PUSH	255
   343 000002F7 68 000000A1                     	PUSH	161
   344 000002FC E8 [00000000]                   	CALL	_io_out8
   345 00000301 6A 11                           	PUSH	17
   346 00000303 6A 20                           	PUSH	32
   347 00000305 E8 [00000000]                   	CALL	_io_out8
   348 0000030A 6A 20                           	PUSH	32
   349 0000030C 6A 21                           	PUSH	33
   350 0000030E E8 [00000000]                   	CALL	_io_out8
   351 00000313 83 C4 20                        	ADD	ESP,32
   352 00000316 6A 04                           	PUSH	4
   353 00000318 6A 21                           	PUSH	33
   354 0000031A E8 [00000000]                   	CALL	_io_out8
   355 0000031F 6A 01                           	PUSH	1
   356 00000321 6A 21                           	PUSH	33
   357 00000323 E8 [00000000]                   	CALL	_io_out8
   358 00000328 6A 11                           	PUSH	17
   359 0000032A 68 000000A0                     	PUSH	160
   360 0000032F E8 [00000000]                   	CALL	_io_out8
   361 00000334 6A 28                           	PUSH	40
   362 00000336 68 000000A1                     	PUSH	161
   363 0000033B E8 [00000000]                   	CALL	_io_out8
   364 00000340 83 C4 20                        	ADD	ESP,32
   365 00000343 6A 02                           	PUSH	2
   366 00000345 68 000000A1                     	PUSH	161
   367 0000034A E8 [00000000]                   	CALL	_io_out8
   368 0000034F 6A 01                           	PUSH	1
   369 00000351 68 000000A1                     	PUSH	161
   370 00000356 E8 [00000000]                   	CALL	_io_out8
   371 0000035B 68 000000FB                     	PUSH	251
   372 00000360 6A 21                           	PUSH	33
   373 00000362 E8 [00000000]                   	CALL	_io_out8
   374 00000367 68 000000FF                     	PUSH	255
   375 0000036C 68 000000A1                     	PUSH	161
   376 00000371 E8 [00000000]                   	CALL	_io_out8
   377 00000376 C9                              	LEAVE
   378 00000377 C3                              	RET
   379 00000378                                 	GLOBAL	_interruptHandler21
   380 00000378                                 _interruptHandler21:
   381 00000378 55                              	PUSH	EBP
   382 00000379 89 E5                           	MOV	EBP,ESP
   383 0000037B 6A 61                           	PUSH	97
   384 0000037D 6A 20                           	PUSH	32
   385 0000037F E8 [00000000]                   	CALL	_io_out8
   386 00000384 6A 60                           	PUSH	96
   387 00000386 E8 [00000000]                   	CALL	_io_in8
   388 0000038B 03 05 [0000026C]                	ADD	EAX,DWORD [_keyData0]
   389 00000391 50                              	PUSH	EAX
   390 00000392 FF 35 [00000268]                	PUSH	DWORD [_keybuf]
   391 00000398 E8 FFFFFC8E                     	CALL	_QueuePush
   392 0000039D C9                              	LEAVE
   393 0000039E C3                              	RET
   394 0000039F                                 	GLOBAL	_interruptHandler27
   395 0000039F                                 _interruptHandler27:
   396 0000039F 55                              	PUSH	EBP
   397 000003A0 89 E5                           	MOV	EBP,ESP
   398 000003A2 6A 67                           	PUSH	103
   399 000003A4 6A 20                           	PUSH	32
   400 000003A6 E8 [00000000]                   	CALL	_io_out8
   401 000003AB C9                              	LEAVE
   402 000003AC C3                              	RET
   403 000003AD                                 	GLOBAL	_interruptHandler2c
   404 000003AD                                 _interruptHandler2c:
   405 000003AD 55                              	PUSH	EBP
   406 000003AE 89 E5                           	MOV	EBP,ESP
   407 000003B0 6A 64                           	PUSH	100
   408 000003B2 68 000000A0                     	PUSH	160
   409 000003B7 E8 [00000000]                   	CALL	_io_out8
   410 000003BC 6A 62                           	PUSH	98
   411 000003BE 6A 20                           	PUSH	32
   412 000003C0 E8 [00000000]                   	CALL	_io_out8
   413 000003C5 6A 60                           	PUSH	96
   414 000003C7 E8 [00000000]                   	CALL	_io_in8
   415 000003CC 03 05 [00000274]                	ADD	EAX,DWORD [_mouseData0]
   416 000003D2 50                              	PUSH	EAX
   417 000003D3 FF 35 [00000270]                	PUSH	DWORD [_mousebuf]
   418 000003D9 E8 FFFFFC4D                     	CALL	_QueuePush
   419 000003DE C9                              	LEAVE
   420 000003DF C3                              	RET
   421 000003E0                                 	GLOBAL	_interruptHandler20
   422 000003E0                                 _interruptHandler20:
   423 000003E0 55                              	PUSH	EBP
   424 000003E1 89 E5                           	MOV	EBP,ESP
   425 000003E3 53                              	PUSH	EBX
   426 000003E4 6A 60                           	PUSH	96
   427 000003E6 6A 20                           	PUSH	32
   428 000003E8 E8 [00000000]                   	CALL	_io_out8
   429 000003ED 59                              	POP	ECX
   430 000003EE A1 [00000280]                   	MOV	EAX,DWORD [_timerctl]
   431 000003F3 5B                              	POP	EBX
   432 000003F4 40                              	INC	EAX
   433 000003F5 A3 [00000280]                   	MOV	DWORD [_timerctl],EAX
   434 000003FA 39 05 [00000284]                	CMP	DWORD [_timerctl+4],EAX
   435 00000400 77 36                           	JA	L60
   436 00000402 8B 1D [00000288]                	MOV	EBX,DWORD [_timerctl+8]
   437 00000408                                 L62:
   438 00000408 8B 43 04                        	MOV	EAX,DWORD [4+EBX]
   439 0000040B 3B 05 [00000280]                	CMP	EAX,DWORD [_timerctl]
   440 00000411 77 1A                           	JA	L63
   441 00000413 0F B6 43 10                     	MOVZX	EAX,BYTE [16+EBX]
   442 00000417 C7 43 08 00000001               	MOV	DWORD [8+EBX],1
   443 0000041E 50                              	PUSH	EAX
   444 0000041F FF 73 0C                        	PUSH	DWORD [12+EBX]
   445 00000422 E8 FFFFFC04                     	CALL	_QueuePush
   446 00000427 58                              	POP	EAX
   447 00000428 8B 1B                           	MOV	EBX,DWORD [EBX]
   448 0000042A 5A                              	POP	EDX
   449 0000042B EB DB                           	JMP	L62
   450 0000042D                                 L63:
   451 0000042D 89 1D [00000288]                	MOV	DWORD [_timerctl+8],EBX
   452 00000433 A3 [00000284]                   	MOV	DWORD [_timerctl+4],EAX
   453 00000438                                 L60:
   454 00000438 8B 5D FC                        	MOV	EBX,DWORD [-4+EBP]
   455 0000043B C9                              	LEAVE
   456 0000043C C3                              	RET
   457 0000043D                                 	GLOBAL	_setSegmdesc
   458 0000043D                                 _setSegmdesc:
   459 0000043D 55                              	PUSH	EBP
   460 0000043E 89 E5                           	MOV	EBP,ESP
   461 00000440 53                              	PUSH	EBX
   462 00000441 8B 55 0C                        	MOV	EDX,DWORD [12+EBP]
   463 00000444 8B 4D 10                        	MOV	ECX,DWORD [16+EBP]
   464 00000447 8B 5D 08                        	MOV	EBX,DWORD [8+EBP]
   465 0000044A 8B 45 14                        	MOV	EAX,DWORD [20+EBP]
   466 0000044D 81 FA 000FFFFF                  	CMP	EDX,1048575
   467 00000453 76 08                           	JBE	L67
   468 00000455 C1 EA 0C                        	SHR	EDX,12
   469 00000458 0D 00008000                     	OR	EAX,32768
   470 0000045D                                 L67:
   471 0000045D 66 89 13                        	MOV	WORD [EBX],DX
   472 00000460 88 43 05                        	MOV	BYTE [5+EBX],AL
   473 00000463 C1 EA 10                        	SHR	EDX,16
   474 00000466 C1 F8 08                        	SAR	EAX,8
   475 00000469 83 E2 0F                        	AND	EDX,15
   476 0000046C 66 89 4B 02                     	MOV	WORD [2+EBX],CX
   477 00000470 83 E0 F0                        	AND	EAX,-16
   478 00000473 C1 F9 10                        	SAR	ECX,16
   479 00000476 09 C2                           	OR	EDX,EAX
   480 00000478 88 4B 04                        	MOV	BYTE [4+EBX],CL
   481 0000047B 88 53 06                        	MOV	BYTE [6+EBX],DL
   482 0000047E C1 F9 08                        	SAR	ECX,8
   483 00000481 88 4B 07                        	MOV	BYTE [7+EBX],CL
   484 00000484 5B                              	POP	EBX
   485 00000485 5D                              	POP	EBP
   486 00000486 C3                              	RET
   487 00000487                                 	GLOBAL	_setGatedesc
   488 00000487                                 _setGatedesc:
   489 00000487 55                              	PUSH	EBP
   490 00000488 89 E5                           	MOV	EBP,ESP
   491 0000048A 53                              	PUSH	EBX
   492 0000048B 8B 55 08                        	MOV	EDX,DWORD [8+EBP]
   493 0000048E 8B 45 10                        	MOV	EAX,DWORD [16+EBP]
   494 00000491 8B 5D 14                        	MOV	EBX,DWORD [20+EBP]
   495 00000494 8B 4D 0C                        	MOV	ECX,DWORD [12+EBP]
   496 00000497 66 89 42 02                     	MOV	WORD [2+EDX],AX
   497 0000049B 88 5A 05                        	MOV	BYTE [5+EDX],BL
   498 0000049E 66 89 0A                        	MOV	WORD [EDX],CX
   499 000004A1 89 D8                           	MOV	EAX,EBX
   500 000004A3 C1 F8 08                        	SAR	EAX,8
   501 000004A6 C1 F9 10                        	SAR	ECX,16
   502 000004A9 88 42 04                        	MOV	BYTE [4+EDX],AL
   503 000004AC 66 89 4A 06                     	MOV	WORD [6+EDX],CX
   504 000004B0 5B                              	POP	EBX
   505 000004B1 5D                              	POP	EBP
   506 000004B2 C3                              	RET
   507 000004B3                                 	GLOBAL	_initGdtit
   508 000004B3                                 _initGdtit:
   509 000004B3 55                              	PUSH	EBP
   510 000004B4 89 E5                           	MOV	EBP,ESP
   511 000004B6 56                              	PUSH	ESI
   512 000004B7 53                              	PUSH	EBX
   513 000004B8 BE 00270000                     	MOV	ESI,2555904
   514 000004BD BB 00001FFF                     	MOV	EBX,8191
   515 000004C2                                 L74:
   516 000004C2 6A 00                           	PUSH	0
   517 000004C4 6A 00                           	PUSH	0
   518 000004C6 6A 00                           	PUSH	0
   519 000004C8 56                              	PUSH	ESI
   520 000004C9 83 C6 08                        	ADD	ESI,8
   521 000004CC E8 FFFFFF6C                     	CALL	_setSegmdesc
   522 000004D1 83 C4 10                        	ADD	ESP,16
   523 000004D4 4B                              	DEC	EBX
   524 000004D5 79 EB                           	JNS	L74
   525 000004D7 68 00004092                     	PUSH	16530
   526 000004DC BB 000000FF                     	MOV	EBX,255
   527 000004E1 6A 00                           	PUSH	0
   528 000004E3 6A FF                           	PUSH	-1
   529 000004E5 68 00270008                     	PUSH	2555912
   530 000004EA E8 FFFFFF4E                     	CALL	_setSegmdesc
   531 000004EF 68 0000409A                     	PUSH	16538
   532 000004F4 68 00280000                     	PUSH	2621440
   533 000004F9 68 0007FFFF                     	PUSH	524287
   534 000004FE 68 00270010                     	PUSH	2555920
   535 00000503 E8 FFFFFF35                     	CALL	_setSegmdesc
   536 00000508 83 C4 20                        	ADD	ESP,32
   537 0000050B 68 00270000                     	PUSH	2555904
   538 00000510 68 0000FFFF                     	PUSH	65535
   539 00000515 E8 [00000000]                   	CALL	_loadGdtr
   540 0000051A 5E                              	POP	ESI
   541 0000051B 58                              	POP	EAX
   542 0000051C BE 0026F800                     	MOV	ESI,2553856
   543 00000521                                 L79:
   544 00000521 6A 00                           	PUSH	0
   545 00000523 6A 00                           	PUSH	0
   546 00000525 6A 00                           	PUSH	0
   547 00000527 56                              	PUSH	ESI
   548 00000528 83 C6 08                        	ADD	ESI,8
   549 0000052B E8 FFFFFF57                     	CALL	_setGatedesc
   550 00000530 83 C4 10                        	ADD	ESP,16
   551 00000533 4B                              	DEC	EBX
   552 00000534 79 EB                           	JNS	L79
   553 00000536 68 0026F800                     	PUSH	2553856
   554 0000053B 68 000007FF                     	PUSH	2047
   555 00000540 E8 [00000000]                   	CALL	_loadIdtr
   556 00000545 68 0000008E                     	PUSH	142
   557 0000054A 6A 10                           	PUSH	16
   558 0000054C 68 [00000000]                   	PUSH	_asm_interruptHandler20
   559 00000551 68 0026F900                     	PUSH	2554112
   560 00000556 E8 FFFFFF2C                     	CALL	_setGatedesc
   561 0000055B 68 0000008E                     	PUSH	142
   562 00000560 6A 10                           	PUSH	16
   563 00000562 68 [00000000]                   	PUSH	_asm_interruptHandler21
   564 00000567 68 0026F908                     	PUSH	2554120
   565 0000056C E8 FFFFFF16                     	CALL	_setGatedesc
   566 00000571 83 C4 28                        	ADD	ESP,40
   567 00000574 68 0000008E                     	PUSH	142
   568 00000579 6A 10                           	PUSH	16
   569 0000057B 68 [00000000]                   	PUSH	_asm_interruptHandler27
   570 00000580 68 0026F938                     	PUSH	2554168
   571 00000585 E8 FFFFFEFD                     	CALL	_setGatedesc
   572 0000058A 68 0000008E                     	PUSH	142
   573 0000058F 6A 10                           	PUSH	16
   574 00000591 68 [00000000]                   	PUSH	_asm_interruptHandler2c
   575 00000596 68 0026F960                     	PUSH	2554208
   576 0000059B E8 FFFFFEE7                     	CALL	_setGatedesc
   577 000005A0 8D 65 F8                        	LEA	ESP,DWORD [-8+EBP]
   578 000005A3 5B                              	POP	EBX
   579 000005A4 5E                              	POP	ESI
   580 000005A5 5D                              	POP	EBP
   581 000005A6 C3                              	RET
   582 000005A7                                 	GLOBAL	_set_palette
   583 000005A7                                 _set_palette:
   584 000005A7 55                              	PUSH	EBP
   585 000005A8 89 E5                           	MOV	EBP,ESP
   586 000005AA 57                              	PUSH	EDI
   587 000005AB 56                              	PUSH	ESI
   588 000005AC 53                              	PUSH	EBX
   589 000005AD 51                              	PUSH	ECX
   590 000005AE 8B 5D 08                        	MOV	EBX,DWORD [8+EBP]
   591 000005B1 8B 7D 0C                        	MOV	EDI,DWORD [12+EBP]
   592 000005B4 8B 75 10                        	MOV	ESI,DWORD [16+EBP]
   593 000005B7 E8 [00000000]                   	CALL	_io_load_eflags
   594 000005BC 89 45 F0                        	MOV	DWORD [-16+EBP],EAX
   595 000005BF E8 [00000000]                   	CALL	_io_cli
   596 000005C4 53                              	PUSH	EBX
   597 000005C5 68 000003C8                     	PUSH	968
   598 000005CA E8 [00000000]                   	CALL	_io_out8
   599 000005CF 39 FB                           	CMP	EBX,EDI
   600 000005D1 58                              	POP	EAX
   601 000005D2 5A                              	POP	EDX
   602 000005D3 7D 48                           	JGE	L91
   603 000005D5 29 DF                           	SUB	EDI,EBX
   604 000005D7 89 FB                           	MOV	EBX,EDI
   605 000005D9                                 L89:
   606 000005D9 8A 06                           	MOV	AL,BYTE [ESI]
   607 000005DB C0 E8 02                        	SHR	AL,2
   608 000005DE 0F B6 C0                        	MOVZX	EAX,AL
   609 000005E1 50                              	PUSH	EAX
   610 000005E2 68 000003C9                     	PUSH	969
   611 000005E7 E8 [00000000]                   	CALL	_io_out8
   612 000005EC 8A 46 01                        	MOV	AL,BYTE [1+ESI]
   613 000005EF C0 E8 02                        	SHR	AL,2
   614 000005F2 0F B6 C0                        	MOVZX	EAX,AL
   615 000005F5 50                              	PUSH	EAX
   616 000005F6 68 000003C9                     	PUSH	969
   617 000005FB E8 [00000000]                   	CALL	_io_out8
   618 00000600 8A 46 02                        	MOV	AL,BYTE [2+ESI]
   619 00000603 C0 E8 02                        	SHR	AL,2
   620 00000606 83 C6 03                        	ADD	ESI,3
   621 00000609 0F B6 C0                        	MOVZX	EAX,AL
   622 0000060C 50                              	PUSH	EAX
   623 0000060D 68 000003C9                     	PUSH	969
   624 00000612 E8 [00000000]                   	CALL	_io_out8
   625 00000617 83 C4 18                        	ADD	ESP,24
   626 0000061A 4B                              	DEC	EBX
   627 0000061B 75 BC                           	JNE	L89
   628 0000061D                                 L91:
   629 0000061D 8B 45 F0                        	MOV	EAX,DWORD [-16+EBP]
   630 00000620 89 45 08                        	MOV	DWORD [8+EBP],EAX
   631 00000623 8D 65 F4                        	LEA	ESP,DWORD [-12+EBP]
   632 00000626 5B                              	POP	EBX
   633 00000627 5E                              	POP	ESI
   634 00000628 5F                              	POP	EDI
   635 00000629 5D                              	POP	EBP
   636 0000062A E9 [00000000]                   	JMP	_io_store_eflags
   637                                          [SECTION .data]
   638 00000000                                 _table_rgb.0:
   639 00000000 00                              	DB	0
   640 00000001 00                              	DB	0
   641 00000002 00                              	DB	0
   642 00000003 FF                              	DB	-1
   643 00000004 00                              	DB	0
   644 00000005 00                              	DB	0
   645 00000006 00                              	DB	0
   646 00000007 FF                              	DB	-1
   647 00000008 00                              	DB	0
   648 00000009 FF                              	DB	-1
   649 0000000A FF                              	DB	-1
   650 0000000B 00                              	DB	0
   651 0000000C 00                              	DB	0
   652 0000000D 00                              	DB	0
   653 0000000E FF                              	DB	-1
   654 0000000F FF                              	DB	-1
   655 00000010 00                              	DB	0
   656 00000011 FF                              	DB	-1
   657 00000012 00                              	DB	0
   658 00000013 FF                              	DB	-1
   659 00000014 FF                              	DB	-1
   660 00000015 FF                              	DB	-1
   661 00000016 FF                              	DB	-1
   662 00000017 FF                              	DB	-1
   663 00000018 C6                              	DB	-58
   664 00000019 C6                              	DB	-58
   665 0000001A C6                              	DB	-58
   666 0000001B 84                              	DB	-124
   667 0000001C 00                              	DB	0
   668 0000001D 00                              	DB	0
   669 0000001E 00                              	DB	0
   670 0000001F 84                              	DB	-124
   671 00000020 00                              	DB	0
   672 00000021 84                              	DB	-124
   673 00000022 84                              	DB	-124
   674 00000023 00                              	DB	0
   675 00000024 00                              	DB	0
   676 00000025 00                              	DB	0
   677 00000026 84                              	DB	-124
   678 00000027 84                              	DB	-124
   679 00000028 00                              	DB	0
   680 00000029 84                              	DB	-124
   681 0000002A 00                              	DB	0
   682 0000002B 84                              	DB	-124
   683 0000002C 84                              	DB	-124
   684 0000002D 84                              	DB	-124
   685 0000002E 84                              	DB	-124
   686 0000002F 84                              	DB	-124
   687                                          [SECTION .text]
   688 0000062F                                 	GLOBAL	_init_palette
   689 0000062F                                 _init_palette:
   690 0000062F 55                              	PUSH	EBP
   691 00000630 89 E5                           	MOV	EBP,ESP
   692 00000632 68 [00000000]                   	PUSH	_table_rgb.0
   693 00000637 6A 0F                           	PUSH	15
   694 00000639 6A 00                           	PUSH	0
   695 0000063B E8 FFFFFF67                     	CALL	_set_palette
   696 00000640 C9                              	LEAVE
   697 00000641 C3                              	RET
   698 00000642                                 	GLOBAL	_boxFill8
   699 00000642                                 _boxFill8:
   700 00000642 55                              	PUSH	EBP
   701 00000643 89 E5                           	MOV	EBP,ESP
   702 00000645 57                              	PUSH	EDI
   703 00000646 56                              	PUSH	ESI
   704 00000647 53                              	PUSH	EBX
   705 00000648 57                              	PUSH	EDI
   706 00000649 57                              	PUSH	EDI
   707 0000064A 8A 45 10                        	MOV	AL,BYTE [16+EBP]
   708 0000064D 8B 4D 18                        	MOV	ECX,DWORD [24+EBP]
   709 00000650 8B 7D 1C                        	MOV	EDI,DWORD [28+EBP]
   710 00000653 88 45 F3                        	MOV	BYTE [-13+EBP],AL
   711 00000656 3B 4D 20                        	CMP	ECX,DWORD [32+EBP]
   712 00000659 7F 31                           	JG	L105
   713 0000065B 8B 5D 0C                        	MOV	EBX,DWORD [12+EBP]
   714 0000065E 0F AF D9                        	IMUL	EBX,ECX
   715 00000661                                 L103:
   716 00000661 8B 55 14                        	MOV	EDX,DWORD [20+EBP]
   717 00000664 39 FA                           	CMP	EDX,EDI
   718 00000666 7F 1B                           	JG	L107
   719 00000668 8B 75 08                        	MOV	ESI,DWORD [8+EBP]
   720 0000066B 01 DE                           	ADD	ESI,EBX
   721 0000066D 01 D6                           	ADD	ESI,EDX
   722 0000066F 89 75 EC                        	MOV	DWORD [-20+EBP],ESI
   723 00000672                                 L102:
   724 00000672 8B 75 EC                        	MOV	ESI,DWORD [-20+EBP]
   725 00000675 8A 45 F3                        	MOV	AL,BYTE [-13+EBP]
   726 00000678 42                              	INC	EDX
   727 00000679 88 06                           	MOV	BYTE [ESI],AL
   728 0000067B 46                              	INC	ESI
   729 0000067C 89 75 EC                        	MOV	DWORD [-20+EBP],ESI
   730 0000067F 39 FA                           	CMP	EDX,EDI
   731 00000681 7E EF                           	JLE	L102
   732 00000683                                 L107:
   733 00000683 41                              	INC	ECX
   734 00000684 03 5D 0C                        	ADD	EBX,DWORD [12+EBP]
   735 00000687 3B 4D 20                        	CMP	ECX,DWORD [32+EBP]
   736 0000068A 7E D5                           	JLE	L103
   737 0000068C                                 L105:
   738 0000068C 5B                              	POP	EBX
   739 0000068D 5E                              	POP	ESI
   740 0000068E 5B                              	POP	EBX
   741 0000068F 5E                              	POP	ESI
   742 00000690 5F                              	POP	EDI
   743 00000691 5D                              	POP	EBP
   744 00000692 C3                              	RET
   745 00000693                                 	GLOBAL	_init_GUI
   746 00000693                                 _init_GUI:
   747 00000693 55                              	PUSH	EBP
   748 00000694 89 E5                           	MOV	EBP,ESP
   749 00000696 57                              	PUSH	EDI
   750 00000697 56                              	PUSH	ESI
   751 00000698 53                              	PUSH	EBX
   752 00000699 83 EC 0C                        	SUB	ESP,12
   753 0000069C 8B 45 10                        	MOV	EAX,DWORD [16+EBP]
   754 0000069F 8B 7D 0C                        	MOV	EDI,DWORD [12+EBP]
   755 000006A2 83 E8 1D                        	SUB	EAX,29
   756 000006A5 4F                              	DEC	EDI
   757 000006A6 50                              	PUSH	EAX
   758 000006A7 57                              	PUSH	EDI
   759 000006A8 6A 00                           	PUSH	0
   760 000006AA 6A 00                           	PUSH	0
   761 000006AC 6A 0E                           	PUSH	14
   762 000006AE FF 75 0C                        	PUSH	DWORD [12+EBP]
   763 000006B1 FF 75 08                        	PUSH	DWORD [8+EBP]
   764 000006B4 E8 FFFFFF89                     	CALL	_boxFill8
   765 000006B9 8B 45 10                        	MOV	EAX,DWORD [16+EBP]
   766 000006BC 83 E8 1C                        	SUB	EAX,28
   767 000006BF 50                              	PUSH	EAX
   768 000006C0 57                              	PUSH	EDI
   769 000006C1 50                              	PUSH	EAX
   770 000006C2 6A 00                           	PUSH	0
   771 000006C4 6A 08                           	PUSH	8
   772 000006C6 FF 75 0C                        	PUSH	DWORD [12+EBP]
   773 000006C9 FF 75 08                        	PUSH	DWORD [8+EBP]
   774 000006CC E8 FFFFFF71                     	CALL	_boxFill8
   775 000006D1 8B 45 10                        	MOV	EAX,DWORD [16+EBP]
   776 000006D4 83 C4 38                        	ADD	ESP,56
   777 000006D7 83 E8 1B                        	SUB	EAX,27
   778 000006DA 50                              	PUSH	EAX
   779 000006DB 57                              	PUSH	EDI
   780 000006DC 50                              	PUSH	EAX
   781 000006DD 6A 00                           	PUSH	0
   782 000006DF 6A 07                           	PUSH	7
   783 000006E1 FF 75 0C                        	PUSH	DWORD [12+EBP]
   784 000006E4 FF 75 08                        	PUSH	DWORD [8+EBP]
   785 000006E7 E8 FFFFFF56                     	CALL	_boxFill8
   786 000006EC 8B 45 10                        	MOV	EAX,DWORD [16+EBP]
   787 000006EF 48                              	DEC	EAX
   788 000006F0 50                              	PUSH	EAX
   789 000006F1 8B 45 10                        	MOV	EAX,DWORD [16+EBP]
   790 000006F4 57                              	PUSH	EDI
   791 000006F5 83 E8 1A                        	SUB	EAX,26
   792 000006F8 50                              	PUSH	EAX
   793 000006F9 6A 00                           	PUSH	0
   794 000006FB 6A 08                           	PUSH	8
   795 000006FD FF 75 0C                        	PUSH	DWORD [12+EBP]
   796 00000700 FF 75 08                        	PUSH	DWORD [8+EBP]
   797 00000703 E8 FFFFFF3A                     	CALL	_boxFill8
   798 00000708 8B 75 10                        	MOV	ESI,DWORD [16+EBP]
   799 0000070B 83 C4 38                        	ADD	ESP,56
   800 0000070E 83 EE 18                        	SUB	ESI,24
   801 00000711 56                              	PUSH	ESI
   802 00000712 6A 3B                           	PUSH	59
   803 00000714 56                              	PUSH	ESI
   804 00000715 6A 03                           	PUSH	3
   805 00000717 6A 07                           	PUSH	7
   806 00000719 FF 75 0C                        	PUSH	DWORD [12+EBP]
   807 0000071C FF 75 08                        	PUSH	DWORD [8+EBP]
   808 0000071F E8 FFFFFF1E                     	CALL	_boxFill8
   809 00000724 8B 45 10                        	MOV	EAX,DWORD [16+EBP]
   810 00000727 83 E8 04                        	SUB	EAX,4
   811 0000072A 50                              	PUSH	EAX
   812 0000072B 89 45 F0                        	MOV	DWORD [-16+EBP],EAX
   813 0000072E 6A 02                           	PUSH	2
   814 00000730 56                              	PUSH	ESI
   815 00000731 6A 02                           	PUSH	2
   816 00000733 6A 07                           	PUSH	7
   817 00000735 FF 75 0C                        	PUSH	DWORD [12+EBP]
   818 00000738 FF 75 08                        	PUSH	DWORD [8+EBP]
   819 0000073B E8 FFFFFF02                     	CALL	_boxFill8
   820 00000740 83 C4 38                        	ADD	ESP,56
   821 00000743 FF 75 F0                        	PUSH	DWORD [-16+EBP]
   822 00000746 6A 3B                           	PUSH	59
   823 00000748 FF 75 F0                        	PUSH	DWORD [-16+EBP]
   824 0000074B 6A 03                           	PUSH	3
   825 0000074D 6A 0F                           	PUSH	15
   826 0000074F FF 75 0C                        	PUSH	DWORD [12+EBP]
   827 00000752 FF 75 08                        	PUSH	DWORD [8+EBP]
   828 00000755 E8 FFFFFEE8                     	CALL	_boxFill8
   829 0000075A 8B 45 10                        	MOV	EAX,DWORD [16+EBP]
   830 0000075D 83 E8 05                        	SUB	EAX,5
   831 00000760 50                              	PUSH	EAX
   832 00000761 8B 45 10                        	MOV	EAX,DWORD [16+EBP]
   833 00000764 6A 3B                           	PUSH	59
   834 00000766 83 E8 17                        	SUB	EAX,23
   835 00000769 50                              	PUSH	EAX
   836 0000076A 89 45 EC                        	MOV	DWORD [-20+EBP],EAX
   837 0000076D 6A 3B                           	PUSH	59
   838 0000076F 6A 0F                           	PUSH	15
   839 00000771 FF 75 0C                        	PUSH	DWORD [12+EBP]
   840 00000774 FF 75 08                        	PUSH	DWORD [8+EBP]
   841 00000777 E8 FFFFFEC6                     	CALL	_boxFill8
   842 0000077C 8B 45 10                        	MOV	EAX,DWORD [16+EBP]
   843 0000077F 83 C4 38                        	ADD	ESP,56
   844 00000782 83 E8 03                        	SUB	EAX,3
   845 00000785 89 45 E8                        	MOV	DWORD [-24+EBP],EAX
   846 00000788 50                              	PUSH	EAX
   847 00000789 6A 3B                           	PUSH	59
   848 0000078B 50                              	PUSH	EAX
   849 0000078C 6A 02                           	PUSH	2
   850 0000078E 6A 00                           	PUSH	0
   851 00000790 FF 75 0C                        	PUSH	DWORD [12+EBP]
   852 00000793 FF 75 08                        	PUSH	DWORD [8+EBP]
   853 00000796 E8 FFFFFEA7                     	CALL	_boxFill8
   854 0000079B FF 75 E8                        	PUSH	DWORD [-24+EBP]
   855 0000079E 6A 3C                           	PUSH	60
   856 000007A0 56                              	PUSH	ESI
   857 000007A1 6A 3C                           	PUSH	60
   858 000007A3 6A 00                           	PUSH	0
   859 000007A5 FF 75 0C                        	PUSH	DWORD [12+EBP]
   860 000007A8 FF 75 08                        	PUSH	DWORD [8+EBP]
   861 000007AB E8 FFFFFE92                     	CALL	_boxFill8
   862 000007B0 8B 7D 0C                        	MOV	EDI,DWORD [12+EBP]
   863 000007B3 83 C4 38                        	ADD	ESP,56
   864 000007B6 8B 5D 0C                        	MOV	EBX,DWORD [12+EBP]
   865 000007B9 83 EB 04                        	SUB	EBX,4
   866 000007BC 83 EF 2F                        	SUB	EDI,47
   867 000007BF 56                              	PUSH	ESI
   868 000007C0 53                              	PUSH	EBX
   869 000007C1 56                              	PUSH	ESI
   870 000007C2 57                              	PUSH	EDI
   871 000007C3 6A 0F                           	PUSH	15
   872 000007C5 FF 75 0C                        	PUSH	DWORD [12+EBP]
   873 000007C8 FF 75 08                        	PUSH	DWORD [8+EBP]
   874 000007CB E8 FFFFFE72                     	CALL	_boxFill8
   875 000007D0 FF 75 F0                        	PUSH	DWORD [-16+EBP]
   876 000007D3 57                              	PUSH	EDI
   877 000007D4 FF 75 EC                        	PUSH	DWORD [-20+EBP]
   878 000007D7 57                              	PUSH	EDI
   879 000007D8 6A 0F                           	PUSH	15
   880 000007DA FF 75 0C                        	PUSH	DWORD [12+EBP]
   881 000007DD FF 75 08                        	PUSH	DWORD [8+EBP]
   882 000007E0 E8 FFFFFE5D                     	CALL	_boxFill8
   883 000007E5 83 C4 38                        	ADD	ESP,56
   884 000007E8 FF 75 E8                        	PUSH	DWORD [-24+EBP]
   885 000007EB 53                              	PUSH	EBX
   886 000007EC FF 75 E8                        	PUSH	DWORD [-24+EBP]
   887 000007EF 57                              	PUSH	EDI
   888 000007F0 6A 07                           	PUSH	7
   889 000007F2 FF 75 0C                        	PUSH	DWORD [12+EBP]
   890 000007F5 FF 75 08                        	PUSH	DWORD [8+EBP]
   891 000007F8 E8 FFFFFE45                     	CALL	_boxFill8
   892 000007FD 8B 45 0C                        	MOV	EAX,DWORD [12+EBP]
   893 00000800 FF 75 E8                        	PUSH	DWORD [-24+EBP]
   894 00000803 83 E8 03                        	SUB	EAX,3
   895 00000806 50                              	PUSH	EAX
   896 00000807 56                              	PUSH	ESI
   897 00000808 50                              	PUSH	EAX
   898 00000809 6A 07                           	PUSH	7
   899 0000080B FF 75 0C                        	PUSH	DWORD [12+EBP]
   900 0000080E FF 75 08                        	PUSH	DWORD [8+EBP]
   901 00000811 E8 FFFFFE2C                     	CALL	_boxFill8
   902 00000816 8D 65 F4                        	LEA	ESP,DWORD [-12+EBP]
   903 00000819 5B                              	POP	EBX
   904 0000081A 5E                              	POP	ESI
   905 0000081B 5F                              	POP	EDI
   906 0000081C 5D                              	POP	EBP
   907 0000081D C3                              	RET
   908 0000081E                                 	GLOBAL	_putFont8
   909 0000081E                                 _putFont8:
   910 0000081E 55                              	PUSH	EBP
   911 0000081F 89 E5                           	MOV	EBP,ESP
   912 00000821 57                              	PUSH	EDI
   913 00000822 56                              	PUSH	ESI
   914 00000823 31 F6                           	XOR	ESI,ESI
   915 00000825 53                              	PUSH	EBX
   916 00000826 8B 7D 1C                        	MOV	EDI,DWORD [28+EBP]
   917 00000829 8A 5D 18                        	MOV	BL,BYTE [24+EBP]
   918 0000082C                                 L122:
   919 0000082C 8B 45 14                        	MOV	EAX,DWORD [20+EBP]
   920 0000082F 8B 55 10                        	MOV	EDX,DWORD [16+EBP]
   921 00000832 01 F0                           	ADD	EAX,ESI
   922 00000834 0F AF 45 0C                     	IMUL	EAX,DWORD [12+EBP]
   923 00000838 03 45 08                        	ADD	EAX,DWORD [8+EBP]
   924 0000083B 8D 0C 02                        	LEA	ECX,DWORD [EDX+EAX*1]
   925 0000083E 8A 14 3E                        	MOV	DL,BYTE [ESI+EDI*1]
   926 00000841 84 D2                           	TEST	DL,DL
   927 00000843 79 02                           	JNS	L114
   928 00000845 88 19                           	MOV	BYTE [ECX],BL
   929 00000847                                 L114:
   930 00000847 88 D0                           	MOV	AL,DL
   931 00000849 83 E0 40                        	AND	EAX,64
   932 0000084C 84 C0                           	TEST	AL,AL
   933 0000084E 74 03                           	JE	L115
   934 00000850 88 59 01                        	MOV	BYTE [1+ECX],BL
   935 00000853                                 L115:
   936 00000853 88 D0                           	MOV	AL,DL
   937 00000855 83 E0 20                        	AND	EAX,32
   938 00000858 84 C0                           	TEST	AL,AL
   939 0000085A 74 03                           	JE	L116
   940 0000085C 88 59 02                        	MOV	BYTE [2+ECX],BL
   941 0000085F                                 L116:
   942 0000085F 88 D0                           	MOV	AL,DL
   943 00000861 83 E0 10                        	AND	EAX,16
   944 00000864 84 C0                           	TEST	AL,AL
   945 00000866 74 03                           	JE	L117
   946 00000868 88 59 03                        	MOV	BYTE [3+ECX],BL
   947 0000086B                                 L117:
   948 0000086B 88 D0                           	MOV	AL,DL
   949 0000086D 83 E0 08                        	AND	EAX,8
   950 00000870 84 C0                           	TEST	AL,AL
   951 00000872 74 03                           	JE	L118
   952 00000874 88 59 04                        	MOV	BYTE [4+ECX],BL
   953 00000877                                 L118:
   954 00000877 88 D0                           	MOV	AL,DL
   955 00000879 83 E0 04                        	AND	EAX,4
   956 0000087C 84 C0                           	TEST	AL,AL
   957 0000087E 74 03                           	JE	L119
   958 00000880 88 59 05                        	MOV	BYTE [5+ECX],BL
   959 00000883                                 L119:
   960 00000883 88 D0                           	MOV	AL,DL
   961 00000885 83 E0 02                        	AND	EAX,2
   962 00000888 84 C0                           	TEST	AL,AL
   963 0000088A 74 03                           	JE	L120
   964 0000088C 88 59 06                        	MOV	BYTE [6+ECX],BL
   965 0000088F                                 L120:
   966 0000088F 83 E2 01                        	AND	EDX,1
   967 00000892 84 D2                           	TEST	DL,DL
   968 00000894 74 03                           	JE	L112
   969 00000896 88 59 07                        	MOV	BYTE [7+ECX],BL
   970 00000899                                 L112:
   971 00000899 46                              	INC	ESI
   972 0000089A 83 FE 0F                        	CMP	ESI,15
   973 0000089D 7E 8D                           	JLE	L122
   974 0000089F 5B                              	POP	EBX
   975 000008A0 5E                              	POP	ESI
   976 000008A1 5F                              	POP	EDI
   977 000008A2 5D                              	POP	EBP
   978 000008A3 C3                              	RET
   979 000008A4                                 	GLOBAL	_putFont8_asc
   980 000008A4                                 _putFont8_asc:
   981 000008A4 55                              	PUSH	EBP
   982 000008A5 89 E5                           	MOV	EBP,ESP
   983 000008A7 57                              	PUSH	EDI
   984 000008A8 56                              	PUSH	ESI
   985 000008A9 53                              	PUSH	EBX
   986 000008AA 50                              	PUSH	EAX
   987 000008AB 8B 5D 1C                        	MOV	EBX,DWORD [28+EBP]
   988 000008AE 8A 45 18                        	MOV	AL,BYTE [24+EBP]
   989 000008B1 88 45 F3                        	MOV	BYTE [-13+EBP],AL
   990 000008B4 8B 75 10                        	MOV	ESI,DWORD [16+EBP]
   991 000008B7 8B 7D 14                        	MOV	EDI,DWORD [20+EBP]
   992 000008BA 80 3B 00                        	CMP	BYTE [EBX],0
   993 000008BD 75 08                           	JNE	L130
   994 000008BF                                 L132:
   995 000008BF 8D 65 F4                        	LEA	ESP,DWORD [-12+EBP]
   996 000008C2 5B                              	POP	EBX
   997 000008C3 5E                              	POP	ESI
   998 000008C4 5F                              	POP	EDI
   999 000008C5 5D                              	POP	EBP
  1000 000008C6 C3                              	RET
  1001 000008C7                                 L130:
  1002 000008C7 0F B6 03                        	MOVZX	EAX,BYTE [EBX]
  1003 000008CA C1 E0 04                        	SAL	EAX,4
  1004 000008CD 43                              	INC	EBX
  1005 000008CE 05 [00000000]                   	ADD	EAX,_font
  1006 000008D3 50                              	PUSH	EAX
  1007 000008D4 0F BE 45 F3                     	MOVSX	EAX,BYTE [-13+EBP]
  1008 000008D8 50                              	PUSH	EAX
  1009 000008D9 57                              	PUSH	EDI
  1010 000008DA 56                              	PUSH	ESI
  1011 000008DB 83 C6 08                        	ADD	ESI,8
  1012 000008DE FF 75 0C                        	PUSH	DWORD [12+EBP]
  1013 000008E1 FF 75 08                        	PUSH	DWORD [8+EBP]
  1014 000008E4 E8 FFFFFF35                     	CALL	_putFont8
  1015 000008E9 83 C4 18                        	ADD	ESP,24
  1016 000008EC 80 3B 00                        	CMP	BYTE [EBX],0
  1017 000008EF 75 D6                           	JNE	L130
  1018 000008F1 EB CC                           	JMP	L132
  1019 000008F3                                 	GLOBAL	_putFont8AscSheet
  1020 000008F3                                 _putFont8AscSheet:
  1021 000008F3 55                              	PUSH	EBP
  1022 000008F4 89 E5                           	MOV	EBP,ESP
  1023 000008F6 57                              	PUSH	EDI
  1024 000008F7 56                              	PUSH	ESI
  1025 000008F8 53                              	PUSH	EBX
  1026 000008F9 83 EC 0C                        	SUB	ESP,12
  1027 000008FC 8B 45 08                        	MOV	EAX,DWORD [8+EBP]
  1028 000008FF 8B 7D 10                        	MOV	EDI,DWORD [16+EBP]
  1029 00000902 89 45 F0                        	MOV	DWORD [-16+EBP],EAX
  1030 00000905 8B 5D 14                        	MOV	EBX,DWORD [20+EBP]
  1031 00000908 8B 45 0C                        	MOV	EAX,DWORD [12+EBP]
  1032 0000090B 89 45 EC                        	MOV	DWORD [-20+EBP],EAX
  1033 0000090E 8B 45 1C                        	MOV	EAX,DWORD [28+EBP]
  1034 00000911 89 45 E8                        	MOV	DWORD [-24+EBP],EAX
  1035 00000914 8D 47 0F                        	LEA	EAX,DWORD [15+EDI]
  1036 00000917 50                              	PUSH	EAX
  1037 00000918 8B 45 EC                        	MOV	EAX,DWORD [-20+EBP]
  1038 0000091B 8B 75 20                        	MOV	ESI,DWORD [32+EBP]
  1039 0000091E 0F BE DB                        	MOVSX	EBX,BL
  1040 00000921 8D 34 F0                        	LEA	ESI,DWORD [EAX+ESI*8]
  1041 00000924 8D 46 FF                        	LEA	EAX,DWORD [-1+ESI]
  1042 00000927 50                              	PUSH	EAX
  1043 00000928 57                              	PUSH	EDI
  1044 00000929 FF 75 EC                        	PUSH	DWORD [-20+EBP]
  1045 0000092C 0F B6 45 18                     	MOVZX	EAX,BYTE [24+EBP]
  1046 00000930 50                              	PUSH	EAX
  1047 00000931 8B 45 F0                        	MOV	EAX,DWORD [-16+EBP]
  1048 00000934 FF 70 04                        	PUSH	DWORD [4+EAX]
  1049 00000937 FF 30                           	PUSH	DWORD [EAX]
  1050 00000939 E8 FFFFFD04                     	CALL	_boxFill8
  1051 0000093E FF 75 E8                        	PUSH	DWORD [-24+EBP]
  1052 00000941 53                              	PUSH	EBX
  1053 00000942 57                              	PUSH	EDI
  1054 00000943 FF 75 EC                        	PUSH	DWORD [-20+EBP]
  1055 00000946 8B 45 F0                        	MOV	EAX,DWORD [-16+EBP]
  1056 00000949 FF 70 04                        	PUSH	DWORD [4+EAX]
  1057 0000094C FF 30                           	PUSH	DWORD [EAX]
  1058 0000094E E8 FFFFFF51                     	CALL	_putFont8_asc
  1059 00000953 89 7D 10                        	MOV	DWORD [16+EBP],EDI
  1060 00000956 8D 47 10                        	LEA	EAX,DWORD [16+EDI]
  1061 00000959 89 75 14                        	MOV	DWORD [20+EBP],ESI
  1062 0000095C 89 45 18                        	MOV	DWORD [24+EBP],EAX
  1063 0000095F 83 C4 34                        	ADD	ESP,52
  1064 00000962 8B 45 EC                        	MOV	EAX,DWORD [-20+EBP]
  1065 00000965 89 45 0C                        	MOV	DWORD [12+EBP],EAX
  1066 00000968 8B 45 F0                        	MOV	EAX,DWORD [-16+EBP]
  1067 0000096B 89 45 08                        	MOV	DWORD [8+EBP],EAX
  1068 0000096E 8D 65 F4                        	LEA	ESP,DWORD [-12+EBP]
  1069 00000971 5B                              	POP	EBX
  1070 00000972 5E                              	POP	ESI
  1071 00000973 5F                              	POP	EDI
  1072 00000974 5D                              	POP	EBP
  1073 00000975 E9 0000065B                     	JMP	_sheetRefresh
  1074                                          [SECTION .data]
  1075 00000030                                 _cursor.1:
  1076 00000030 2A 2E 2E 2E 2E 2E 2E 2E 2E 2E   	DB	"*..............."
       0000003A 2E 2E 2E 2E 2E 2E 
  1077 00000040 2A 2A 2E 2E 2E 2E 2E 2E 2E 2E   	DB	"**.............."
       0000004A 2E 2E 2E 2E 2E 2E 
  1078 00000050 2A 4F 2A 2E 2E 2E 2E 2E 2E 2E   	DB	"*O*............."
       0000005A 2E 2E 2E 2E 2E 2E 
  1079 00000060 2A 4F 4F 2A 2E 2E 2E 2E 2E 2E   	DB	"*OO*............"
       0000006A 2E 2E 2E 2E 2E 2E 
  1080 00000070 2A 4F 4F 4F 2A 2E 2E 2E 2E 2E   	DB	"*OOO*..........."
       0000007A 2E 2E 2E 2E 2E 2E 
  1081 00000080 2A 4F 4F 4F 4F 2A 2E 2E 2E 2E   	DB	"*OOOO*.........."
       0000008A 2E 2E 2E 2E 2E 2E 
  1082 00000090 2A 4F 4F 4F 4F 4F 2A 2E 2E 2E   	DB	"*OOOOO*........."
       0000009A 2E 2E 2E 2E 2E 2E 
  1083 000000A0 2A 4F 4F 4F 4F 4F 4F 2A 2E 2E   	DB	"*OOOOOO*........"
       000000AA 2E 2E 2E 2E 2E 2E 
  1084 000000B0 2A 4F 4F 4F 4F 4F 4F 4F 2A 2E   	DB	"*OOOOOOO*......."
       000000BA 2E 2E 2E 2E 2E 2E 
  1085 000000C0 2A 4F 4F 4F 4F 2A 2A 2A 2A 2A   	DB	"*OOOO*****......"
       000000CA 2E 2E 2E 2E 2E 2E 
  1086 000000D0 2A 4F 4F 2A 4F 2A 2E 2E 2E 2E   	DB	"*OO*O*.........."
       000000DA 2E 2E 2E 2E 2E 2E 
  1087 000000E0 2A 4F 2A 2E 2A 4F 2A 2E 2E 2E   	DB	"*O*.*O*........."
       000000EA 2E 2E 2E 2E 2E 2E 
  1088 000000F0 2A 2A 2E 2E 2A 4F 2A 2E 2E 2E   	DB	"**..*O*........."
       000000FA 2E 2E 2E 2E 2E 2E 
  1089 00000100 2A 2E 2E 2E 2E 2A 4F 2A 2E 2E   	DB	"*....*O*........"
       0000010A 2E 2E 2E 2E 2E 2E 
  1090 00000110 2E 2E 2E 2E 2E 2A 4F 2A 2E 2E   	DB	".....*O*........"
       0000011A 2E 2E 2E 2E 2E 2E 
  1091 00000120 2E 2E 2E 2E 2E 2E 2A 2E 2E 2E   	DB	"......*........."
       0000012A 2E 2E 2E 2E 2E 2E 
  1092                                          [SECTION .text]
  1093 0000097A                                 	GLOBAL	_initMouseCursor8
  1094 0000097A                                 _initMouseCursor8:
  1095 0000097A 55                              	PUSH	EBP
  1096 0000097B 89 E5                           	MOV	EBP,ESP
  1097 0000097D 57                              	PUSH	EDI
  1098 0000097E 56                              	PUSH	ESI
  1099 0000097F 31 FF                           	XOR	EDI,EDI
  1100 00000981 53                              	PUSH	EBX
  1101 00000982 31 DB                           	XOR	EBX,EBX
  1102 00000984 50                              	PUSH	EAX
  1103 00000985 8A 45 0C                        	MOV	AL,BYTE [12+EBP]
  1104 00000988 8B 75 08                        	MOV	ESI,DWORD [8+EBP]
  1105 0000098B 88 45 F3                        	MOV	BYTE [-13+EBP],AL
  1106 0000098E                                 L147:
  1107 0000098E 31 D2                           	XOR	EDX,EDX
  1108 00000990                                 L146:
  1109 00000990 8D 04 3A                        	LEA	EAX,DWORD [EDX+EDI*1]
  1110 00000993 80 B8 [00000030] 2A             	CMP	BYTE [_cursor.1+EAX],42
  1111 0000099A 74 35                           	JE	L152
  1112 0000099C                                 L143:
  1113 0000099C 80 B8 [00000030] 4F             	CMP	BYTE [_cursor.1+EAX],79
  1114 000009A3 74 26                           	JE	L153
  1115 000009A5                                 L144:
  1116 000009A5 80 B8 [00000030] 2E             	CMP	BYTE [_cursor.1+EAX],46
  1117 000009AC 74 15                           	JE	L154
  1118 000009AE                                 L141:
  1119 000009AE 42                              	INC	EDX
  1120 000009AF 83 FA 0F                        	CMP	EDX,15
  1121 000009B2 7E DC                           	JLE	L146
  1122 000009B4 43                              	INC	EBX
  1123 000009B5 83 C7 10                        	ADD	EDI,16
  1124 000009B8 83 FB 0F                        	CMP	EBX,15
  1125 000009BB 7E D1                           	JLE	L147
  1126 000009BD 58                              	POP	EAX
  1127 000009BE 5B                              	POP	EBX
  1128 000009BF 5E                              	POP	ESI
  1129 000009C0 5F                              	POP	EDI
  1130 000009C1 5D                              	POP	EBP
  1131 000009C2 C3                              	RET
  1132 000009C3                                 L154:
  1133 000009C3 8A 4D F3                        	MOV	CL,BYTE [-13+EBP]
  1134 000009C6 88 0C 30                        	MOV	BYTE [EAX+ESI*1],CL
  1135 000009C9 EB E3                           	JMP	L141
  1136 000009CB                                 L153:
  1137 000009CB C6 04 30 07                     	MOV	BYTE [EAX+ESI*1],7
  1138 000009CF EB D4                           	JMP	L144
  1139 000009D1                                 L152:
  1140 000009D1 C6 04 30 00                     	MOV	BYTE [EAX+ESI*1],0
  1141 000009D5 EB C5                           	JMP	L143
  1142 000009D7                                 	GLOBAL	_putblock8_8
  1143 000009D7                                 _putblock8_8:
  1144 000009D7 55                              	PUSH	EBP
  1145 000009D8 89 E5                           	MOV	EBP,ESP
  1146 000009DA 57                              	PUSH	EDI
  1147 000009DB 56                              	PUSH	ESI
  1148 000009DC 31 F6                           	XOR	ESI,ESI
  1149 000009DE 53                              	PUSH	EBX
  1150 000009DF 83 EC 0C                        	SUB	ESP,12
  1151 000009E2 3B 75 14                        	CMP	ESI,DWORD [20+EBP]
  1152 000009E5 7D 3E                           	JGE	L167
  1153 000009E7 31 FF                           	XOR	EDI,EDI
  1154 000009E9                                 L165:
  1155 000009E9 31 DB                           	XOR	EBX,EBX
  1156 000009EB 3B 5D 10                        	CMP	EBX,DWORD [16+EBP]
  1157 000009EE 7D 2C                           	JGE	L169
  1158 000009F0 8B 45 20                        	MOV	EAX,DWORD [32+EBP]
  1159 000009F3 01 F8                           	ADD	EAX,EDI
  1160 000009F5 89 45 EC                        	MOV	DWORD [-20+EBP],EAX
  1161 000009F8                                 L164:
  1162 000009F8 8B 45 1C                        	MOV	EAX,DWORD [28+EBP]
  1163 000009FB 8B 55 18                        	MOV	EDX,DWORD [24+EBP]
  1164 000009FE 01 F0                           	ADD	EAX,ESI
  1165 00000A00 01 DA                           	ADD	EDX,EBX
  1166 00000A02 0F AF 45 0C                     	IMUL	EAX,DWORD [12+EBP]
  1167 00000A06 01 D0                           	ADD	EAX,EDX
  1168 00000A08 8B 4D 08                        	MOV	ECX,DWORD [8+EBP]
  1169 00000A0B 8B 55 EC                        	MOV	EDX,DWORD [-20+EBP]
  1170 00000A0E 43                              	INC	EBX
  1171 00000A0F 8A 12                           	MOV	DL,BYTE [EDX]
  1172 00000A11 88 14 08                        	MOV	BYTE [EAX+ECX*1],DL
  1173 00000A14 FF 45 EC                        	INC	DWORD [-20+EBP]
  1174 00000A17 3B 5D 10                        	CMP	EBX,DWORD [16+EBP]
  1175 00000A1A 7C DC                           	JL	L164
  1176 00000A1C                                 L169:
  1177 00000A1C 46                              	INC	ESI
  1178 00000A1D 03 7D 24                        	ADD	EDI,DWORD [36+EBP]
  1179 00000A20 3B 75 14                        	CMP	ESI,DWORD [20+EBP]
  1180 00000A23 7C C4                           	JL	L165
  1181 00000A25                                 L167:
  1182 00000A25 83 C4 0C                        	ADD	ESP,12
  1183 00000A28 5B                              	POP	EBX
  1184 00000A29 5E                              	POP	ESI
  1185 00000A2A 5F                              	POP	EDI
  1186 00000A2B 5D                              	POP	EBP
  1187 00000A2C C3                              	RET
  1188 00000A2D                                 	GLOBAL	_memtest
  1189 00000A2D                                 _memtest:
  1190 00000A2D 55                              	PUSH	EBP
  1191 00000A2E 89 E5                           	MOV	EBP,ESP
  1192 00000A30 56                              	PUSH	ESI
  1193 00000A31 53                              	PUSH	EBX
  1194 00000A32 31 F6                           	XOR	ESI,ESI
  1195 00000A34 E8 [00000000]                   	CALL	_io_load_eflags
  1196 00000A39 0D 00040000                     	OR	EAX,262144
  1197 00000A3E 50                              	PUSH	EAX
  1198 00000A3F E8 [00000000]                   	CALL	_io_store_eflags
  1199 00000A44 E8 [00000000]                   	CALL	_io_load_eflags
  1200 00000A49 5A                              	POP	EDX
  1201 00000A4A A9 00040000                     	TEST	EAX,262144
  1202 00000A4F 74 05                           	JE	L171
  1203 00000A51 BE 00000001                     	MOV	ESI,1
  1204 00000A56                                 L171:
  1205 00000A56 25 FFFBFFFF                     	AND	EAX,-262145
  1206 00000A5B 50                              	PUSH	EAX
  1207 00000A5C E8 [00000000]                   	CALL	_io_store_eflags
  1208 00000A61 89 F0                           	MOV	EAX,ESI
  1209 00000A63 5B                              	POP	EBX
  1210 00000A64 84 C0                           	TEST	AL,AL
  1211 00000A66 75 31                           	JNE	L174
  1212 00000A68                                 L172:
  1213 00000A68 FF 75 0C                        	PUSH	DWORD [12+EBP]
  1214 00000A6B FF 75 08                        	PUSH	DWORD [8+EBP]
  1215 00000A6E E8 [00000000]                   	CALL	_memtest_sub
  1216 00000A73 89 C3                           	MOV	EBX,EAX
  1217 00000A75 58                              	POP	EAX
  1218 00000A76 89 F0                           	MOV	EAX,ESI
  1219 00000A78 5A                              	POP	EDX
  1220 00000A79 84 C0                           	TEST	AL,AL
  1221 00000A7B 75 09                           	JNE	L175
  1222 00000A7D                                 L173:
  1223 00000A7D 8D 65 F8                        	LEA	ESP,DWORD [-8+EBP]
  1224 00000A80 89 D8                           	MOV	EAX,EBX
  1225 00000A82 5B                              	POP	EBX
  1226 00000A83 5E                              	POP	ESI
  1227 00000A84 5D                              	POP	EBP
  1228 00000A85 C3                              	RET
  1229 00000A86                                 L175:
  1230 00000A86 E8 [00000000]                   	CALL	_loadCr0
  1231 00000A8B 25 9FFFFFFF                     	AND	EAX,-1610612737
  1232 00000A90 50                              	PUSH	EAX
  1233 00000A91 E8 [00000000]                   	CALL	_storeCr0
  1234 00000A96 58                              	POP	EAX
  1235 00000A97 EB E4                           	JMP	L173
  1236 00000A99                                 L174:
  1237 00000A99 E8 [00000000]                   	CALL	_loadCr0
  1238 00000A9E 0D 60000000                     	OR	EAX,1610612736
  1239 00000AA3 50                              	PUSH	EAX
  1240 00000AA4 E8 [00000000]                   	CALL	_storeCr0
  1241 00000AA9 59                              	POP	ECX
  1242 00000AAA EB BC                           	JMP	L172
  1243 00000AAC                                 	GLOBAL	_memsegTotal
  1244 00000AAC                                 _memsegTotal:
  1245 00000AAC 55                              	PUSH	EBP
  1246 00000AAD 31 C0                           	XOR	EAX,EAX
  1247 00000AAF 89 E5                           	MOV	EBP,ESP
  1248 00000AB1 31 D2                           	XOR	EDX,EDX
  1249 00000AB3 53                              	PUSH	EBX
  1250 00000AB4 8B 5D 08                        	MOV	EBX,DWORD [8+EBP]
  1251 00000AB7 8B 0B                           	MOV	ECX,DWORD [EBX]
  1252 00000AB9 39 C8                           	CMP	EAX,ECX
  1253 00000ABB 73 09                           	JAE	L183
  1254 00000ABD                                 L181:
  1255 00000ABD 03 44 D3 14                     	ADD	EAX,DWORD [20+EBX+EDX*8]
  1256 00000AC1 42                              	INC	EDX
  1257 00000AC2 39 CA                           	CMP	EDX,ECX
  1258 00000AC4 72 F7                           	JB	L181
  1259 00000AC6                                 L183:
  1260 00000AC6 5B                              	POP	EBX
  1261 00000AC7 5D                              	POP	EBP
  1262 00000AC8 C3                              	RET
  1263 00000AC9                                 	GLOBAL	_memsegInit
  1264 00000AC9                                 _memsegInit:
  1265 00000AC9 55                              	PUSH	EBP
  1266 00000ACA 89 E5                           	MOV	EBP,ESP
  1267 00000ACC 8B 45 08                        	MOV	EAX,DWORD [8+EBP]
  1268 00000ACF C7 00 00000000                  	MOV	DWORD [EAX],0
  1269 00000AD5 C7 40 04 00000000               	MOV	DWORD [4+EAX],0
  1270 00000ADC C7 40 08 00000000               	MOV	DWORD [8+EAX],0
  1271 00000AE3 C7 40 0C 00000000               	MOV	DWORD [12+EAX],0
  1272 00000AEA 5D                              	POP	EBP
  1273 00000AEB C3                              	RET
  1274 00000AEC                                 	GLOBAL	_memsegAlloc
  1275 00000AEC                                 _memsegAlloc:
  1276 00000AEC 55                              	PUSH	EBP
  1277 00000AED 31 C9                           	XOR	ECX,ECX
  1278 00000AEF 89 E5                           	MOV	EBP,ESP
  1279 00000AF1 57                              	PUSH	EDI
  1280 00000AF2 56                              	PUSH	ESI
  1281 00000AF3 53                              	PUSH	EBX
  1282 00000AF4 8B 75 0C                        	MOV	ESI,DWORD [12+EBP]
  1283 00000AF7 8B 5D 08                        	MOV	EBX,DWORD [8+EBP]
  1284 00000AFA 8B 03                           	MOV	EAX,DWORD [EBX]
  1285 00000AFC 39 C1                           	CMP	ECX,EAX
  1286 00000AFE 73 0D                           	JAE	L199
  1287 00000B00                                 L197:
  1288 00000B00 8B 54 CB 14                     	MOV	EDX,DWORD [20+EBX+ECX*8]
  1289 00000B04 39 F2                           	CMP	EDX,ESI
  1290 00000B06 73 0C                           	JAE	L201
  1291 00000B08 41                              	INC	ECX
  1292 00000B09 39 C1                           	CMP	ECX,EAX
  1293 00000B0B 72 F3                           	JB	L197
  1294 00000B0D                                 L199:
  1295 00000B0D 31 C0                           	XOR	EAX,EAX
  1296 00000B0F                                 L185:
  1297 00000B0F 5B                              	POP	EBX
  1298 00000B10 5E                              	POP	ESI
  1299 00000B11 5F                              	POP	EDI
  1300 00000B12 5D                              	POP	EBP
  1301 00000B13 C3                              	RET
  1302 00000B14                                 L201:
  1303 00000B14 8B 7C CB 10                     	MOV	EDI,DWORD [16+EBX+ECX*8]
  1304 00000B18 8D 04 3E                        	LEA	EAX,DWORD [ESI+EDI*1]
  1305 00000B1B 89 44 CB 10                     	MOV	DWORD [16+EBX+ECX*8],EAX
  1306 00000B1F 89 D0                           	MOV	EAX,EDX
  1307 00000B21 29 F0                           	SUB	EAX,ESI
  1308 00000B23 89 44 CB 14                     	MOV	DWORD [20+EBX+ECX*8],EAX
  1309 00000B27 85 C0                           	TEST	EAX,EAX
  1310 00000B29 75 20                           	JNE	L191
  1311 00000B2B 8B 03                           	MOV	EAX,DWORD [EBX]
  1312 00000B2D 48                              	DEC	EAX
  1313 00000B2E 89 03                           	MOV	DWORD [EBX],EAX
  1314 00000B30 39 C1                           	CMP	ECX,EAX
  1315 00000B32 73 17                           	JAE	L191
  1316 00000B34 89 C6                           	MOV	ESI,EAX
  1317 00000B36                                 L196:
  1318 00000B36 8B 44 CB 18                     	MOV	EAX,DWORD [24+EBX+ECX*8]
  1319 00000B3A 8B 54 CB 1C                     	MOV	EDX,DWORD [28+EBX+ECX*8]
  1320 00000B3E 89 44 CB 10                     	MOV	DWORD [16+EBX+ECX*8],EAX
  1321 00000B42 89 54 CB 14                     	MOV	DWORD [20+EBX+ECX*8],EDX
  1322 00000B46 41                              	INC	ECX
  1323 00000B47 39 F1                           	CMP	ECX,ESI
  1324 00000B49 72 EB                           	JB	L196
  1325 00000B4B                                 L191:
  1326 00000B4B 89 F8                           	MOV	EAX,EDI
  1327 00000B4D EB C0                           	JMP	L185
  1328 00000B4F                                 	GLOBAL	_memsegFree
  1329 00000B4F                                 _memsegFree:
  1330 00000B4F 55                              	PUSH	EBP
  1331 00000B50 89 E5                           	MOV	EBP,ESP
  1332 00000B52 57                              	PUSH	EDI
  1333 00000B53 56                              	PUSH	ESI
  1334 00000B54 8B 75 08                        	MOV	ESI,DWORD [8+EBP]
  1335 00000B57 53                              	PUSH	EBX
  1336 00000B58 31 DB                           	XOR	EBX,EBX
  1337 00000B5A 8B 3E                           	MOV	EDI,DWORD [ESI]
  1338 00000B5C 39 FB                           	CMP	EBX,EDI
  1339 00000B5E 7D 0E                           	JGE	L204
  1340 00000B60                                 L208:
  1341 00000B60 8B 45 0C                        	MOV	EAX,DWORD [12+EBP]
  1342 00000B63 39 44 DE 10                     	CMP	DWORD [16+ESI+EBX*8],EAX
  1343 00000B67 77 05                           	JA	L204
  1344 00000B69 43                              	INC	EBX
  1345 00000B6A 39 FB                           	CMP	EBX,EDI
  1346 00000B6C 7C F2                           	JL	L208
  1347 00000B6E                                 L204:
  1348 00000B6E 85 DB                           	TEST	EBX,EBX
  1349 00000B70 7E 0F                           	JLE	L209
  1350 00000B72 8B 54 DE 0C                     	MOV	EDX,DWORD [12+ESI+EBX*8]
  1351 00000B76 8B 44 DE 08                     	MOV	EAX,DWORD [8+ESI+EBX*8]
  1352 00000B7A 01 D0                           	ADD	EAX,EDX
  1353 00000B7C 3B 45 0C                        	CMP	EAX,DWORD [12+EBP]
  1354 00000B7F 74 73                           	JE	L229
  1355 00000B81                                 L209:
  1356 00000B81 39 FB                           	CMP	EBX,EDI
  1357 00000B83 7D 0C                           	JGE	L216
  1358 00000B85 8B 45 0C                        	MOV	EAX,DWORD [12+EBP]
  1359 00000B88 03 45 10                        	ADD	EAX,DWORD [16+EBP]
  1360 00000B8B 3B 44 DE 10                     	CMP	EAX,DWORD [16+ESI+EBX*8]
  1361 00000B8F 74 53                           	JE	L230
  1362 00000B91                                 L216:
  1363 00000B91 81 FF 00000FF9                  	CMP	EDI,4089
  1364 00000B97 7F 3D                           	JG	L217
  1365 00000B99 89 F9                           	MOV	ECX,EDI
  1366 00000B9B 39 DF                           	CMP	EDI,EBX
  1367 00000B9D 7E 15                           	JLE	L227
  1368 00000B9F                                 L222:
  1369 00000B9F 8B 44 CE 08                     	MOV	EAX,DWORD [8+ESI+ECX*8]
  1370 00000BA3 8B 54 CE 0C                     	MOV	EDX,DWORD [12+ESI+ECX*8]
  1371 00000BA7 89 44 CE 10                     	MOV	DWORD [16+ESI+ECX*8],EAX
  1372 00000BAB 89 54 CE 14                     	MOV	DWORD [20+ESI+ECX*8],EDX
  1373 00000BAF 49                              	DEC	ECX
  1374 00000BB0 39 D9                           	CMP	ECX,EBX
  1375 00000BB2 7F EB                           	JG	L222
  1376 00000BB4                                 L227:
  1377 00000BB4 8D 47 01                        	LEA	EAX,DWORD [1+EDI]
  1378 00000BB7 89 06                           	MOV	DWORD [ESI],EAX
  1379 00000BB9 39 46 04                        	CMP	DWORD [4+ESI],EAX
  1380 00000BBC 7D 03                           	JGE	L223
  1381 00000BBE 89 46 04                        	MOV	DWORD [4+ESI],EAX
  1382 00000BC1                                 L223:
  1383 00000BC1 8B 45 0C                        	MOV	EAX,DWORD [12+EBP]
  1384 00000BC4 89 44 DE 10                     	MOV	DWORD [16+ESI+EBX*8],EAX
  1385 00000BC8 8B 45 10                        	MOV	EAX,DWORD [16+EBP]
  1386 00000BCB 89 44 DE 14                     	MOV	DWORD [20+ESI+EBX*8],EAX
  1387 00000BCF                                 L228:
  1388 00000BCF 31 C0                           	XOR	EAX,EAX
  1389 00000BD1                                 L202:
  1390 00000BD1 5B                              	POP	EBX
  1391 00000BD2 5E                              	POP	ESI
  1392 00000BD3 5F                              	POP	EDI
  1393 00000BD4 5D                              	POP	EBP
  1394 00000BD5 C3                              	RET
  1395 00000BD6                                 L217:
  1396 00000BD6 8B 45 10                        	MOV	EAX,DWORD [16+EBP]
  1397 00000BD9 FF 46 0C                        	INC	DWORD [12+ESI]
  1398 00000BDC 01 46 08                        	ADD	DWORD [8+ESI],EAX
  1399 00000BDF 83 C8 FF                        	OR	EAX,-1
  1400 00000BE2 EB ED                           	JMP	L202
  1401 00000BE4                                 L230:
  1402 00000BE4 8B 45 0C                        	MOV	EAX,DWORD [12+EBP]
  1403 00000BE7 89 44 DE 10                     	MOV	DWORD [16+ESI+EBX*8],EAX
  1404 00000BEB 8B 45 10                        	MOV	EAX,DWORD [16+EBP]
  1405 00000BEE 01 44 DE 14                     	ADD	DWORD [20+ESI+EBX*8],EAX
  1406 00000BF2 EB DB                           	JMP	L228
  1407 00000BF4                                 L229:
  1408 00000BF4 03 55 10                        	ADD	EDX,DWORD [16+EBP]
  1409 00000BF7 89 54 DE 0C                     	MOV	DWORD [12+ESI+EBX*8],EDX
  1410 00000BFB 3B 1E                           	CMP	EBX,DWORD [ESI]
  1411 00000BFD 7D D0                           	JGE	L228
  1412 00000BFF 8B 45 0C                        	MOV	EAX,DWORD [12+EBP]
  1413 00000C02 03 45 10                        	ADD	EAX,DWORD [16+EBP]
  1414 00000C05 3B 44 DE 10                     	CMP	EAX,DWORD [16+ESI+EBX*8]
  1415 00000C09 75 C4                           	JNE	L228
  1416 00000C0B 03 54 DE 14                     	ADD	EDX,DWORD [20+ESI+EBX*8]
  1417 00000C0F 89 54 DE 0C                     	MOV	DWORD [12+ESI+EBX*8],EDX
  1418 00000C13 8B 06                           	MOV	EAX,DWORD [ESI]
  1419 00000C15 48                              	DEC	EAX
  1420 00000C16 89 06                           	MOV	DWORD [ESI],EAX
  1421 00000C18 39 C3                           	CMP	EBX,EAX
  1422 00000C1A 7D B3                           	JGE	L228
  1423 00000C1C 89 C1                           	MOV	ECX,EAX
  1424 00000C1E                                 L215:
  1425 00000C1E 8B 44 DE 18                     	MOV	EAX,DWORD [24+ESI+EBX*8]
  1426 00000C22 8B 54 DE 1C                     	MOV	EDX,DWORD [28+ESI+EBX*8]
  1427 00000C26 89 44 DE 10                     	MOV	DWORD [16+ESI+EBX*8],EAX
  1428 00000C2A 89 54 DE 14                     	MOV	DWORD [20+ESI+EBX*8],EDX
  1429 00000C2E 43                              	INC	EBX
  1430 00000C2F 39 CB                           	CMP	EBX,ECX
  1431 00000C31 7C EB                           	JL	L215
  1432 00000C33 EB 9A                           	JMP	L228
  1433 00000C35                                 	GLOBAL	_memsegAlloc4K
  1434 00000C35                                 _memsegAlloc4K:
  1435 00000C35 55                              	PUSH	EBP
  1436 00000C36 89 E5                           	MOV	EBP,ESP
  1437 00000C38 8B 45 0C                        	MOV	EAX,DWORD [12+EBP]
  1438 00000C3B 05 00000FFF                     	ADD	EAX,4095
  1439 00000C40 25 FFFFF000                     	AND	EAX,-4096
  1440 00000C45 89 45 0C                        	MOV	DWORD [12+EBP],EAX
  1441 00000C48 5D                              	POP	EBP
  1442 00000C49 E9 FFFFFE9E                     	JMP	_memsegAlloc
  1443 00000C4E                                 	GLOBAL	_memsegFree4K
  1444 00000C4E                                 _memsegFree4K:
  1445 00000C4E 55                              	PUSH	EBP
  1446 00000C4F 89 E5                           	MOV	EBP,ESP
  1447 00000C51 8B 45 10                        	MOV	EAX,DWORD [16+EBP]
  1448 00000C54 05 00000FFF                     	ADD	EAX,4095
  1449 00000C59 25 FFFFF000                     	AND	EAX,-4096
  1450 00000C5E 89 45 10                        	MOV	DWORD [16+EBP],EAX
  1451 00000C61 5D                              	POP	EBP
  1452 00000C62 E9 FFFFFEE8                     	JMP	_memsegFree
  1453 00000C67                                 	GLOBAL	_shtctlInit
  1454 00000C67                                 _shtctlInit:
  1455 00000C67 55                              	PUSH	EBP
  1456 00000C68 89 E5                           	MOV	EBP,ESP
  1457 00000C6A 57                              	PUSH	EDI
  1458 00000C6B 56                              	PUSH	ESI
  1459 00000C6C 53                              	PUSH	EBX
  1460 00000C6D 8B 75 08                        	MOV	ESI,DWORD [8+EBP]
  1461 00000C70 68 00002814                     	PUSH	10260
  1462 00000C75 8B 7D 10                        	MOV	EDI,DWORD [16+EBP]
  1463 00000C78 56                              	PUSH	ESI
  1464 00000C79 E8 FFFFFFB7                     	CALL	_memsegAlloc4K
  1465 00000C7E 59                              	POP	ECX
  1466 00000C7F 89 C3                           	MOV	EBX,EAX
  1467 00000C81 58                              	POP	EAX
  1468 00000C82 31 C0                           	XOR	EAX,EAX
  1469 00000C84 85 DB                           	TEST	EBX,EBX
  1470 00000C86 74 4C                           	JE	L233
  1471 00000C88 8B 45 14                        	MOV	EAX,DWORD [20+EBP]
  1472 00000C8B 0F AF C7                        	IMUL	EAX,EDI
  1473 00000C8E 50                              	PUSH	EAX
  1474 00000C8F 56                              	PUSH	ESI
  1475 00000C90 E8 FFFFFFA0                     	CALL	_memsegAlloc4K
  1476 00000C95 85 C0                           	TEST	EAX,EAX
  1477 00000C97 89 43 04                        	MOV	DWORD [4+EBX],EAX
  1478 00000C9A 59                              	POP	ECX
  1479 00000C9B 5A                              	POP	EDX
  1480 00000C9C 74 3E                           	JE	L244
  1481 00000C9E 8B 45 0C                        	MOV	EAX,DWORD [12+EBP]
  1482 00000CA1 89 7B 08                        	MOV	DWORD [8+EBX],EDI
  1483 00000CA4 89 03                           	MOV	DWORD [EBX],EAX
  1484 00000CA6 8D 93 000023DC                  	LEA	EDX,DWORD [9180+EBX]
  1485 00000CAC 8B 45 14                        	MOV	EAX,DWORD [20+EBP]
  1486 00000CAF 89 43 0C                        	MOV	DWORD [12+EBX],EAX
  1487 00000CB2 89 D8                           	MOV	EAX,EBX
  1488 00000CB4 C7 43 10 FFFFFFFF               	MOV	DWORD [16+EBX],-1
  1489 00000CBB                                 L240:
  1490 00000CBB C7 80 00000430 00000000         	MOV	DWORD [1072+EAX],0
  1491 00000CC5 89 98 00000434                  	MOV	DWORD [1076+EAX],EBX
  1492 00000CCB 83 C0 24                        	ADD	EAX,36
  1493 00000CCE 39 D0                           	CMP	EAX,EDX
  1494 00000CD0 7E E9                           	JLE	L240
  1495 00000CD2                                 L243:
  1496 00000CD2 89 D8                           	MOV	EAX,EBX
  1497 00000CD4                                 L233:
  1498 00000CD4 8D 65 F4                        	LEA	ESP,DWORD [-12+EBP]
  1499 00000CD7 5B                              	POP	EBX
  1500 00000CD8 5E                              	POP	ESI
  1501 00000CD9 5F                              	POP	EDI
  1502 00000CDA 5D                              	POP	EBP
  1503 00000CDB C3                              	RET
  1504 00000CDC                                 L244:
  1505 00000CDC 68 00002814                     	PUSH	10260
  1506 00000CE1 53                              	PUSH	EBX
  1507 00000CE2 56                              	PUSH	ESI
  1508 00000CE3 E8 FFFFFF66                     	CALL	_memsegFree4K
  1509 00000CE8 EB E8                           	JMP	L243
  1510 00000CEA                                 	GLOBAL	_sheetAlloc
  1511 00000CEA                                 _sheetAlloc:
  1512 00000CEA 55                              	PUSH	EBP
  1513 00000CEB 31 D2                           	XOR	EDX,EDX
  1514 00000CED 89 E5                           	MOV	EBP,ESP
  1515 00000CEF 8B 45 08                        	MOV	EAX,DWORD [8+EBP]
  1516 00000CF2 05 00000414                     	ADD	EAX,1044
  1517 00000CF7                                 L251:
  1518 00000CF7 83 78 1C 00                     	CMP	DWORD [28+EAX],0
  1519 00000CFB 74 10                           	JE	L254
  1520 00000CFD 42                              	INC	EDX
  1521 00000CFE 83 C0 24                        	ADD	EAX,36
  1522 00000D01 81 FA 000000FF                  	CMP	EDX,255
  1523 00000D07 7E EE                           	JLE	L251
  1524 00000D09 31 C0                           	XOR	EAX,EAX
  1525 00000D0B                                 L245:
  1526 00000D0B 5D                              	POP	EBP
  1527 00000D0C C3                              	RET
  1528 00000D0D                                 L254:
  1529 00000D0D C7 40 1C 00000001               	MOV	DWORD [28+EAX],1
  1530 00000D14 C7 40 18 FFFFFFFF               	MOV	DWORD [24+EAX],-1
  1531 00000D1B EB EE                           	JMP	L245
  1532 00000D1D                                 	GLOBAL	_sheetSetbuf
  1533 00000D1D                                 _sheetSetbuf:
  1534 00000D1D 55                              	PUSH	EBP
  1535 00000D1E 89 E5                           	MOV	EBP,ESP
  1536 00000D20 8B 55 08                        	MOV	EDX,DWORD [8+EBP]
  1537 00000D23 8B 45 0C                        	MOV	EAX,DWORD [12+EBP]
  1538 00000D26 89 02                           	MOV	DWORD [EDX],EAX
  1539 00000D28 8B 45 10                        	MOV	EAX,DWORD [16+EBP]
  1540 00000D2B 89 42 04                        	MOV	DWORD [4+EDX],EAX
  1541 00000D2E 8B 45 14                        	MOV	EAX,DWORD [20+EBP]
  1542 00000D31 89 42 08                        	MOV	DWORD [8+EDX],EAX
  1543 00000D34 8B 45 18                        	MOV	EAX,DWORD [24+EBP]
  1544 00000D37 89 42 14                        	MOV	DWORD [20+EDX],EAX
  1545 00000D3A 5D                              	POP	EBP
  1546 00000D3B C3                              	RET
  1547 00000D3C                                 	GLOBAL	_sheetRefreshMap
  1548 00000D3C                                 _sheetRefreshMap:
  1549 00000D3C 55                              	PUSH	EBP
  1550 00000D3D 89 E5                           	MOV	EBP,ESP
  1551 00000D3F 57                              	PUSH	EDI
  1552 00000D40 56                              	PUSH	ESI
  1553 00000D41 53                              	PUSH	EBX
  1554 00000D42 83 EC 28                        	SUB	ESP,40
  1555 00000D45 8B 45 08                        	MOV	EAX,DWORD [8+EBP]
  1556 00000D48 83 7D 0C 00                     	CMP	DWORD [12+EBP],0
  1557 00000D4C 8B 40 04                        	MOV	EAX,DWORD [4+EAX]
  1558 00000D4F 89 45 D8                        	MOV	DWORD [-40+EBP],EAX
  1559 00000D52 0F 88 00000135                  	JS	L287
  1560 00000D58                                 L257:
  1561 00000D58 83 7D 10 00                     	CMP	DWORD [16+EBP],0
  1562 00000D5C 0F 88 0000011F                  	JS	L288
  1563 00000D62                                 L258:
  1564 00000D62 8B 55 08                        	MOV	EDX,DWORD [8+EBP]
  1565 00000D65 8B 42 08                        	MOV	EAX,DWORD [8+EDX]
  1566 00000D68 39 45 14                        	CMP	DWORD [20+EBP],EAX
  1567 00000D6B 7E 03                           	JLE	L259
  1568 00000D6D 89 45 14                        	MOV	DWORD [20+EBP],EAX
  1569 00000D70                                 L259:
  1570 00000D70 8B 75 08                        	MOV	ESI,DWORD [8+EBP]
  1571 00000D73 8B 46 0C                        	MOV	EAX,DWORD [12+ESI]
  1572 00000D76 39 45 18                        	CMP	DWORD [24+EBP],EAX
  1573 00000D79 7E 03                           	JLE	L260
  1574 00000D7B 89 45 18                        	MOV	DWORD [24+EBP],EAX
  1575 00000D7E                                 L260:
  1576 00000D7E 8B 45 08                        	MOV	EAX,DWORD [8+EBP]
  1577 00000D81 8B 7D 1C                        	MOV	EDI,DWORD [28+EBP]
  1578 00000D84 89 7D F0                        	MOV	DWORD [-16+EBP],EDI
  1579 00000D87 3B 78 10                        	CMP	EDI,DWORD [16+EAX]
  1580 00000D8A 0F 8F 000000D6                  	JG	L282
  1581 00000D90                                 L280:
  1582 00000D90 8B 75 08                        	MOV	ESI,DWORD [8+EBP]
  1583 00000D93 8B 55 F0                        	MOV	EDX,DWORD [-16+EBP]
  1584 00000D96 8B 5D 10                        	MOV	EBX,DWORD [16+EBP]
  1585 00000D99 8B 4C 96 14                     	MOV	ECX,DWORD [20+ESI+EDX*4]
  1586 00000D9D 89 C8                           	MOV	EAX,ECX
  1587 00000D9F 29 F0                           	SUB	EAX,ESI
  1588 00000DA1 8B 39                           	MOV	EDI,DWORD [ECX]
  1589 00000DA3 2D 00000414                     	SUB	EAX,1044
  1590 00000DA8 8B 51 10                        	MOV	EDX,DWORD [16+ECX]
  1591 00000DAB C1 F8 02                        	SAR	EAX,2
  1592 00000DAE 89 7D E0                        	MOV	DWORD [-32+EBP],EDI
  1593 00000DB1 69 C0 38E38E39                  	IMUL	EAX,EAX,954437177
  1594 00000DB7 8B 7D 18                        	MOV	EDI,DWORD [24+EBP]
  1595 00000DBA 29 D3                           	SUB	EBX,EDX
  1596 00000DBC 29 D7                           	SUB	EDI,EDX
  1597 00000DBE 88 45 DF                        	MOV	BYTE [-33+EBP],AL
  1598 00000DC1 8B 75 14                        	MOV	ESI,DWORD [20+EBP]
  1599 00000DC4 8B 55 0C                        	MOV	EDX,DWORD [12+EBP]
  1600 00000DC7 8B 41 0C                        	MOV	EAX,DWORD [12+ECX]
  1601 00000DCA 89 7D D4                        	MOV	DWORD [-44+EBP],EDI
  1602 00000DCD 29 C6                           	SUB	ESI,EAX
  1603 00000DCF 29 C2                           	SUB	EDX,EAX
  1604 00000DD1 89 75 CC                        	MOV	DWORD [-52+EBP],ESI
  1605 00000DD4 89 55 E4                        	MOV	DWORD [-28+EBP],EDX
  1606 00000DD7 0F 88 00000098                  	JS	L289
  1607 00000DDD                                 L265:
  1608 00000DDD 85 DB                           	TEST	EBX,EBX
  1609 00000DDF 0F 88 00000089                  	JS	L290
  1610 00000DE5                                 L266:
  1611 00000DE5 8B 41 04                        	MOV	EAX,DWORD [4+ECX]
  1612 00000DE8 39 45 CC                        	CMP	DWORD [-52+EBP],EAX
  1613 00000DEB 7E 03                           	JLE	L267
  1614 00000DED 89 45 CC                        	MOV	DWORD [-52+EBP],EAX
  1615 00000DF0                                 L267:
  1616 00000DF0 8B 41 08                        	MOV	EAX,DWORD [8+ECX]
  1617 00000DF3 39 45 D4                        	CMP	DWORD [-44+EBP],EAX
  1618 00000DF6 7E 03                           	JLE	L268
  1619 00000DF8 89 45 D4                        	MOV	DWORD [-44+EBP],EAX
  1620 00000DFB                                 L268:
  1621 00000DFB 3B 5D D4                        	CMP	EBX,DWORD [-44+EBP]
  1622 00000DFE 7D 54                           	JGE	L284
  1623 00000E00                                 L279:
  1624 00000E00 8B 71 10                        	MOV	ESI,DWORD [16+ECX]
  1625 00000E03 8B 55 E4                        	MOV	EDX,DWORD [-28+EBP]
  1626 00000E06 01 DE                           	ADD	ESI,EBX
  1627 00000E08 3B 55 CC                        	CMP	EDX,DWORD [-52+EBP]
  1628 00000E0B 89 75 E8                        	MOV	DWORD [-24+EBP],ESI
  1629 00000E0E 7D 3E                           	JGE	L286
  1630 00000E10                                 L278:
  1631 00000E10 89 D8                           	MOV	EAX,EBX
  1632 00000E12 8B 79 0C                        	MOV	EDI,DWORD [12+ECX]
  1633 00000E15 0F AF 41 04                     	IMUL	EAX,DWORD [4+ECX]
  1634 00000E19 01 D7                           	ADD	EDI,EDX
  1635 00000E1B 8B 75 E0                        	MOV	ESI,DWORD [-32+EBP]
  1636 00000E1E 01 D0                           	ADD	EAX,EDX
  1637 00000E20 89 7D EC                        	MOV	DWORD [-20+EBP],EDI
  1638 00000E23 0F B6 34 30                     	MOVZX	ESI,BYTE [EAX+ESI*1]
  1639 00000E27 3B 71 14                        	CMP	ESI,DWORD [20+ECX]
  1640 00000E2A 74 1C                           	JE	L275
  1641 00000E2C 8B 7D 08                        	MOV	EDI,DWORD [8+EBP]
  1642 00000E2F 8B 45 E8                        	MOV	EAX,DWORD [-24+EBP]
  1643 00000E32 8B 75 D8                        	MOV	ESI,DWORD [-40+EBP]
  1644 00000E35 0F AF 47 08                     	IMUL	EAX,DWORD [8+EDI]
  1645 00000E39 03 45 EC                        	ADD	EAX,DWORD [-20+EBP]
  1646 00000E3C 89 45 D0                        	MOV	DWORD [-48+EBP],EAX
  1647 00000E3F 8A 45 DF                        	MOV	AL,BYTE [-33+EBP]
  1648 00000E42 8B 7D D0                        	MOV	EDI,DWORD [-48+EBP]
  1649 00000E45 88 04 37                        	MOV	BYTE [EDI+ESI*1],AL
  1650 00000E48                                 L275:
  1651 00000E48 42                              	INC	EDX
  1652 00000E49 3B 55 CC                        	CMP	EDX,DWORD [-52+EBP]
  1653 00000E4C 7C C2                           	JL	L278
  1654 00000E4E                                 L286:
  1655 00000E4E 43                              	INC	EBX
  1656 00000E4F 3B 5D D4                        	CMP	EBX,DWORD [-44+EBP]
  1657 00000E52 7C AC                           	JL	L279
  1658 00000E54                                 L284:
  1659 00000E54 8B 55 08                        	MOV	EDX,DWORD [8+EBP]
  1660 00000E57 FF 45 F0                        	INC	DWORD [-16+EBP]
  1661 00000E5A 8B 45 F0                        	MOV	EAX,DWORD [-16+EBP]
  1662 00000E5D 3B 42 10                        	CMP	EAX,DWORD [16+EDX]
  1663 00000E60 0F 8E FFFFFF2A                  	JLE	L280
  1664 00000E66                                 L282:
  1665 00000E66 83 C4 28                        	ADD	ESP,40
  1666 00000E69 5B                              	POP	EBX
  1667 00000E6A 5E                              	POP	ESI
  1668 00000E6B 5F                              	POP	EDI
  1669 00000E6C 5D                              	POP	EBP
  1670 00000E6D C3                              	RET
  1671 00000E6E                                 L290:
  1672 00000E6E 31 DB                           	XOR	EBX,EBX
  1673 00000E70 E9 FFFFFF70                     	JMP	L266
  1674 00000E75                                 L289:
  1675 00000E75 C7 45 E4 00000000               	MOV	DWORD [-28+EBP],0
  1676 00000E7C E9 FFFFFF5C                     	JMP	L265
  1677 00000E81                                 L288:
  1678 00000E81 C7 45 10 00000000               	MOV	DWORD [16+EBP],0
  1679 00000E88 E9 FFFFFED5                     	JMP	L258
  1680 00000E8D                                 L287:
  1681 00000E8D C7 45 0C 00000000               	MOV	DWORD [12+EBP],0
  1682 00000E94 E9 FFFFFEBF                     	JMP	L257
  1683 00000E99                                 	GLOBAL	_sheetUpdown
  1684 00000E99                                 _sheetUpdown:
  1685 00000E99 55                              	PUSH	EBP
  1686 00000E9A 89 E5                           	MOV	EBP,ESP
  1687 00000E9C 57                              	PUSH	EDI
  1688 00000E9D 56                              	PUSH	ESI
  1689 00000E9E 8B 7D 08                        	MOV	EDI,DWORD [8+EBP]
  1690 00000EA1 53                              	PUSH	EBX
  1691 00000EA2 8B 75 0C                        	MOV	ESI,DWORD [12+EBP]
  1692 00000EA5 8B 5F 20                        	MOV	EBX,DWORD [32+EDI]
  1693 00000EA8 8B 47 18                        	MOV	EAX,DWORD [24+EDI]
  1694 00000EAB 8B 53 10                        	MOV	EDX,DWORD [16+EBX]
  1695 00000EAE 42                              	INC	EDX
  1696 00000EAF 39 D6                           	CMP	ESI,EDX
  1697 00000EB1 7E 02                           	JLE	L292
  1698 00000EB3 89 D6                           	MOV	ESI,EDX
  1699 00000EB5                                 L292:
  1700 00000EB5 83 FE FF                        	CMP	ESI,-1
  1701 00000EB8 7D 03                           	JGE	L293
  1702 00000EBA 83 CE FF                        	OR	ESI,-1
  1703 00000EBD                                 L293:
  1704 00000EBD 89 77 18                        	MOV	DWORD [24+EDI],ESI
  1705 00000EC0 39 F0                           	CMP	EAX,ESI
  1706 00000EC2 0F 8E 000000A5                  	JLE	L294
  1707 00000EC8 85 F6                           	TEST	ESI,ESI
  1708 00000ECA 78 5E                           	JS	L295
  1709 00000ECC 89 C1                           	MOV	ECX,EAX
  1710 00000ECE                                 L300:
  1711 00000ECE 8B 44 8B 10                     	MOV	EAX,DWORD [16+EBX+ECX*4]
  1712 00000ED2 89 44 8B 14                     	MOV	DWORD [20+EBX+ECX*4],EAX
  1713 00000ED6 89 48 18                        	MOV	DWORD [24+EAX],ECX
  1714 00000ED9 49                              	DEC	ECX
  1715 00000EDA 39 F1                           	CMP	ECX,ESI
  1716 00000EDC 7F F0                           	JG	L300
  1717 00000EDE 89 7C B3 14                     	MOV	DWORD [20+EBX+ESI*4],EDI
  1718 00000EE2 8D 5E 01                        	LEA	EBX,DWORD [1+ESI]
  1719 00000EE5 53                              	PUSH	EBX
  1720 00000EE6 8B 4F 10                        	MOV	ECX,DWORD [16+EDI]
  1721 00000EE9 89 C8                           	MOV	EAX,ECX
  1722 00000EEB 03 47 08                        	ADD	EAX,DWORD [8+EDI]
  1723 00000EEE 50                              	PUSH	EAX
  1724 00000EEF 8B 57 0C                        	MOV	EDX,DWORD [12+EDI]
  1725 00000EF2 89 D0                           	MOV	EAX,EDX
  1726 00000EF4 03 47 04                        	ADD	EAX,DWORD [4+EDI]
  1727 00000EF7 50                              	PUSH	EAX
  1728 00000EF8 51                              	PUSH	ECX
  1729 00000EF9 52                              	PUSH	EDX
  1730 00000EFA FF 77 20                        	PUSH	DWORD [32+EDI]
  1731 00000EFD E8 FFFFFE3A                     	CALL	_sheetRefreshMap
  1732 00000F02 53                              	PUSH	EBX
  1733 00000F03                                 L329:
  1734 00000F03 8B 4F 10                        	MOV	ECX,DWORD [16+EDI]
  1735 00000F06 89 C8                           	MOV	EAX,ECX
  1736 00000F08 03 47 08                        	ADD	EAX,DWORD [8+EDI]
  1737 00000F0B 50                              	PUSH	EAX
  1738 00000F0C 8B 57 0C                        	MOV	EDX,DWORD [12+EDI]
  1739 00000F0F 89 D0                           	MOV	EAX,EDX
  1740 00000F11 03 47 04                        	ADD	EAX,DWORD [4+EDI]
  1741 00000F14 50                              	PUSH	EAX
  1742 00000F15 51                              	PUSH	ECX
  1743 00000F16 52                              	PUSH	EDX
  1744 00000F17 FF 77 20                        	PUSH	DWORD [32+EDI]
  1745 00000F1A E8 000000EF                     	CALL	_sheetRefreshSub
  1746 00000F1F 83 C4 30                        	ADD	ESP,48
  1747 00000F22                                 L291:
  1748 00000F22 8D 65 F4                        	LEA	ESP,DWORD [-12+EBP]
  1749 00000F25 5B                              	POP	EBX
  1750 00000F26 5E                              	POP	ESI
  1751 00000F27 5F                              	POP	EDI
  1752 00000F28 5D                              	POP	EBP
  1753 00000F29 C3                              	RET
  1754 00000F2A                                 L295:
  1755 00000F2A 8B 53 10                        	MOV	EDX,DWORD [16+EBX]
  1756 00000F2D 39 C2                           	CMP	EDX,EAX
  1757 00000F2F 7E 17                           	JLE	L302
  1758 00000F31 89 C1                           	MOV	ECX,EAX
  1759 00000F33 39 D0                           	CMP	EAX,EDX
  1760 00000F35 7D 11                           	JGE	L302
  1761 00000F37                                 L307:
  1762 00000F37 8B 44 8B 18                     	MOV	EAX,DWORD [24+EBX+ECX*4]
  1763 00000F3B 89 44 8B 14                     	MOV	DWORD [20+EBX+ECX*4],EAX
  1764 00000F3F 89 48 18                        	MOV	DWORD [24+EAX],ECX
  1765 00000F42 41                              	INC	ECX
  1766 00000F43 3B 4B 10                        	CMP	ECX,DWORD [16+EBX]
  1767 00000F46 7C EF                           	JL	L307
  1768 00000F48                                 L302:
  1769 00000F48 FF 4B 10                        	DEC	DWORD [16+EBX]
  1770 00000F4B 6A 00                           	PUSH	0
  1771 00000F4D 8B 4F 10                        	MOV	ECX,DWORD [16+EDI]
  1772 00000F50 89 C8                           	MOV	EAX,ECX
  1773 00000F52 03 47 08                        	ADD	EAX,DWORD [8+EDI]
  1774 00000F55 50                              	PUSH	EAX
  1775 00000F56 8B 57 0C                        	MOV	EDX,DWORD [12+EDI]
  1776 00000F59 89 D0                           	MOV	EAX,EDX
  1777 00000F5B 03 47 04                        	ADD	EAX,DWORD [4+EDI]
  1778 00000F5E 50                              	PUSH	EAX
  1779 00000F5F 51                              	PUSH	ECX
  1780 00000F60 52                              	PUSH	EDX
  1781 00000F61 FF 77 20                        	PUSH	DWORD [32+EDI]
  1782 00000F64 E8 FFFFFDD3                     	CALL	_sheetRefreshMap
  1783 00000F69 6A 00                           	PUSH	0
  1784 00000F6B EB 96                           	JMP	L329
  1785 00000F6D                                 L294:
  1786 00000F6D 39 F0                           	CMP	EAX,ESI
  1787 00000F6F 7D B1                           	JGE	L291
  1788 00000F71 85 C0                           	TEST	EAX,EAX
  1789 00000F73 78 3D                           	JS	L310
  1790 00000F75 89 C1                           	MOV	ECX,EAX
  1791 00000F77 39 F0                           	CMP	EAX,ESI
  1792 00000F79 7D 10                           	JGE	L326
  1793 00000F7B                                 L315:
  1794 00000F7B 8B 44 8B 18                     	MOV	EAX,DWORD [24+EBX+ECX*4]
  1795 00000F7F 89 44 8B 14                     	MOV	DWORD [20+EBX+ECX*4],EAX
  1796 00000F83 89 48 18                        	MOV	DWORD [24+EAX],ECX
  1797 00000F86 41                              	INC	ECX
  1798 00000F87 39 F1                           	CMP	ECX,ESI
  1799 00000F89 7C F0                           	JL	L315
  1800 00000F8B                                 L326:
  1801 00000F8B 89 7C B3 14                     	MOV	DWORD [20+EBX+ESI*4],EDI
  1802 00000F8F                                 L316:
  1803 00000F8F 56                              	PUSH	ESI
  1804 00000F90 8B 4F 10                        	MOV	ECX,DWORD [16+EDI]
  1805 00000F93 89 C8                           	MOV	EAX,ECX
  1806 00000F95 03 47 08                        	ADD	EAX,DWORD [8+EDI]
  1807 00000F98 50                              	PUSH	EAX
  1808 00000F99 8B 57 0C                        	MOV	EDX,DWORD [12+EDI]
  1809 00000F9C 89 D0                           	MOV	EAX,EDX
  1810 00000F9E 03 47 04                        	ADD	EAX,DWORD [4+EDI]
  1811 00000FA1 50                              	PUSH	EAX
  1812 00000FA2 51                              	PUSH	ECX
  1813 00000FA3 52                              	PUSH	EDX
  1814 00000FA4 FF 77 20                        	PUSH	DWORD [32+EDI]
  1815 00000FA7 E8 FFFFFD90                     	CALL	_sheetRefreshMap
  1816 00000FAC 56                              	PUSH	ESI
  1817 00000FAD E9 FFFFFF51                     	JMP	L329
  1818 00000FB2                                 L310:
  1819 00000FB2 8B 4B 10                        	MOV	ECX,DWORD [16+EBX]
  1820 00000FB5 39 F1                           	CMP	ECX,ESI
  1821 00000FB7 7C 13                           	JL	L328
  1822 00000FB9                                 L321:
  1823 00000FB9 8B 54 8B 14                     	MOV	EDX,DWORD [20+EBX+ECX*4]
  1824 00000FBD 8D 41 01                        	LEA	EAX,DWORD [1+ECX]
  1825 00000FC0 89 54 8B 18                     	MOV	DWORD [24+EBX+ECX*4],EDX
  1826 00000FC4 49                              	DEC	ECX
  1827 00000FC5 89 42 18                        	MOV	DWORD [24+EDX],EAX
  1828 00000FC8 39 F1                           	CMP	ECX,ESI
  1829 00000FCA 7D ED                           	JGE	L321
  1830 00000FCC                                 L328:
  1831 00000FCC 89 7C B3 14                     	MOV	DWORD [20+EBX+ESI*4],EDI
  1832 00000FD0 FF 43 10                        	INC	DWORD [16+EBX]
  1833 00000FD3 EB BA                           	JMP	L316
  1834 00000FD5                                 	GLOBAL	_sheetRefresh
  1835 00000FD5                                 _sheetRefresh:
  1836 00000FD5 55                              	PUSH	EBP
  1837 00000FD6 89 E5                           	MOV	EBP,ESP
  1838 00000FD8 53                              	PUSH	EBX
  1839 00000FD9 8B 5D 08                        	MOV	EBX,DWORD [8+EBP]
  1840 00000FDC 8B 43 18                        	MOV	EAX,DWORD [24+EBX]
  1841 00000FDF 85 C0                           	TEST	EAX,EAX
  1842 00000FE1 78 26                           	JS	L330
  1843 00000FE3 50                              	PUSH	EAX
  1844 00000FE4 8B 4B 10                        	MOV	ECX,DWORD [16+EBX]
  1845 00000FE7 89 C8                           	MOV	EAX,ECX
  1846 00000FE9 03 4D 10                        	ADD	ECX,DWORD [16+EBP]
  1847 00000FEC 03 45 18                        	ADD	EAX,DWORD [24+EBP]
  1848 00000FEF 50                              	PUSH	EAX
  1849 00000FF0 8B 53 0C                        	MOV	EDX,DWORD [12+EBX]
  1850 00000FF3 89 D0                           	MOV	EAX,EDX
  1851 00000FF5 03 55 0C                        	ADD	EDX,DWORD [12+EBP]
  1852 00000FF8 03 45 14                        	ADD	EAX,DWORD [20+EBP]
  1853 00000FFB 50                              	PUSH	EAX
  1854 00000FFC 51                              	PUSH	ECX
  1855 00000FFD 52                              	PUSH	EDX
  1856 00000FFE FF 73 20                        	PUSH	DWORD [32+EBX]
  1857 00001001 E8 00000008                     	CALL	_sheetRefreshSub
  1858 00001006 83 C4 18                        	ADD	ESP,24
  1859 00001009                                 L330:
  1860 00001009 8B 5D FC                        	MOV	EBX,DWORD [-4+EBP]
  1861 0000100C C9                              	LEAVE
  1862 0000100D C3                              	RET
  1863 0000100E                                 	GLOBAL	_sheetRefreshSub
  1864 0000100E                                 _sheetRefreshSub:
  1865 0000100E 55                              	PUSH	EBP
  1866 0000100F 89 E5                           	MOV	EBP,ESP
  1867 00001011 57                              	PUSH	EDI
  1868 00001012 56                              	PUSH	ESI
  1869 00001013 53                              	PUSH	EBX
  1870 00001014 83 EC 2C                        	SUB	ESP,44
  1871 00001017 8B 45 08                        	MOV	EAX,DWORD [8+EBP]
  1872 0000101A 8B 55 08                        	MOV	EDX,DWORD [8+EBP]
  1873 0000101D 83 7D 0C 00                     	CMP	DWORD [12+EBP],0
  1874 00001021 8B 00                           	MOV	EAX,DWORD [EAX]
  1875 00001023 8B 52 04                        	MOV	EDX,DWORD [4+EDX]
  1876 00001026 89 45 DC                        	MOV	DWORD [-36+EBP],EAX
  1877 00001029 89 55 D8                        	MOV	DWORD [-40+EBP],EDX
  1878 0000102C 0F 88 00000137                  	JS	L363
  1879 00001032                                 L333:
  1880 00001032 83 7D 10 00                     	CMP	DWORD [16+EBP],0
  1881 00001036 0F 88 00000121                  	JS	L364
  1882 0000103C                                 L334:
  1883 0000103C 8B 75 08                        	MOV	ESI,DWORD [8+EBP]
  1884 0000103F 8B 46 08                        	MOV	EAX,DWORD [8+ESI]
  1885 00001042 39 45 14                        	CMP	DWORD [20+EBP],EAX
  1886 00001045 7E 03                           	JLE	L335
  1887 00001047 89 45 14                        	MOV	DWORD [20+EBP],EAX
  1888 0000104A                                 L335:
  1889 0000104A 8B 7D 08                        	MOV	EDI,DWORD [8+EBP]
  1890 0000104D 8B 47 0C                        	MOV	EAX,DWORD [12+EDI]
  1891 00001050 39 45 18                        	CMP	DWORD [24+EBP],EAX
  1892 00001053 7E 03                           	JLE	L336
  1893 00001055 89 45 18                        	MOV	DWORD [24+EBP],EAX
  1894 00001058                                 L336:
  1895 00001058 8B 55 08                        	MOV	EDX,DWORD [8+EBP]
  1896 0000105B 8B 45 1C                        	MOV	EAX,DWORD [28+EBP]
  1897 0000105E 89 45 F0                        	MOV	DWORD [-16+EBP],EAX
  1898 00001061 3B 42 10                        	CMP	EAX,DWORD [16+EDX]
  1899 00001064 0F 8F 000000BF                  	JG	L358
  1900 0000106A                                 L356:
  1901 0000106A 8B 7D 08                        	MOV	EDI,DWORD [8+EBP]
  1902 0000106D 8B 75 F0                        	MOV	ESI,DWORD [-16+EBP]
  1903 00001070 8B 4D 10                        	MOV	ECX,DWORD [16+EBP]
  1904 00001073 8B 5C B7 14                     	MOV	EBX,DWORD [20+EDI+ESI*4]
  1905 00001077 8B 75 14                        	MOV	ESI,DWORD [20+EBP]
  1906 0000107A 89 D8                           	MOV	EAX,EBX
  1907 0000107C 29 F8                           	SUB	EAX,EDI
  1908 0000107E 8B 53 10                        	MOV	EDX,DWORD [16+EBX]
  1909 00001081 2D 00000414                     	SUB	EAX,1044
  1910 00001086 8B 7D 18                        	MOV	EDI,DWORD [24+EBP]
  1911 00001089 C1 F8 02                        	SAR	EAX,2
  1912 0000108C 29 D7                           	SUB	EDI,EDX
  1913 0000108E 69 C0 38E38E39                  	IMUL	EAX,EAX,954437177
  1914 00001094 88 45 D7                        	MOV	BYTE [-41+EBP],AL
  1915 00001097 29 D1                           	SUB	ECX,EDX
  1916 00001099 8B 03                           	MOV	EAX,DWORD [EBX]
  1917 0000109B 8B 55 0C                        	MOV	EDX,DWORD [12+EBP]
  1918 0000109E 89 45 E0                        	MOV	DWORD [-32+EBP],EAX
  1919 000010A1 89 7D C8                        	MOV	DWORD [-56+EBP],EDI
  1920 000010A4 8B 43 0C                        	MOV	EAX,DWORD [12+EBX]
  1921 000010A7 29 C6                           	SUB	ESI,EAX
  1922 000010A9 29 C2                           	SUB	EDX,EAX
  1923 000010AB 89 75 E4                        	MOV	DWORD [-28+EBP],ESI
  1924 000010AE 89 55 E8                        	MOV	DWORD [-24+EBP],EDX
  1925 000010B1 0F 88 0000009A                  	JS	L365
  1926 000010B7                                 L341:
  1927 000010B7 85 C9                           	TEST	ECX,ECX
  1928 000010B9 0F 88 0000008B                  	JS	L366
  1929 000010BF                                 L342:
  1930 000010BF 8B 43 04                        	MOV	EAX,DWORD [4+EBX]
  1931 000010C2 39 45 E4                        	CMP	DWORD [-28+EBP],EAX
  1932 000010C5 7E 03                           	JLE	L343
  1933 000010C7 89 45 E4                        	MOV	DWORD [-28+EBP],EAX
  1934 000010CA                                 L343:
  1935 000010CA 8B 43 08                        	MOV	EAX,DWORD [8+EBX]
  1936 000010CD 39 45 C8                        	CMP	DWORD [-56+EBP],EAX
  1937 000010D0 7E 03                           	JLE	L344
  1938 000010D2 89 45 C8                        	MOV	DWORD [-56+EBP],EAX
  1939 000010D5                                 L344:
  1940 000010D5 89 CE                           	MOV	ESI,ECX
  1941 000010D7 3B 4D C8                        	CMP	ECX,DWORD [-56+EBP]
  1942 000010DA 7D 3B                           	JGE	L360
  1943 000010DC                                 L355:
  1944 000010DC 8B 7B 10                        	MOV	EDI,DWORD [16+EBX]
  1945 000010DF 8B 4D E8                        	MOV	ECX,DWORD [-24+EBP]
  1946 000010E2 01 F7                           	ADD	EDI,ESI
  1947 000010E4 3B 4D E4                        	CMP	ECX,DWORD [-28+EBP]
  1948 000010E7 89 7D EC                        	MOV	DWORD [-20+EBP],EDI
  1949 000010EA 7D 25                           	JGE	L362
  1950 000010EC                                 L354:
  1951 000010EC 8B 55 08                        	MOV	EDX,DWORD [8+EBP]
  1952 000010EF 8B 7D EC                        	MOV	EDI,DWORD [-20+EBP]
  1953 000010F2 8B 43 0C                        	MOV	EAX,DWORD [12+EBX]
  1954 000010F5 0F AF 7A 08                     	IMUL	EDI,DWORD [8+EDX]
  1955 000010F9 01 C8                           	ADD	EAX,ECX
  1956 000010FB 8A 55 D7                        	MOV	DL,BYTE [-41+EBP]
  1957 000010FE 01 F8                           	ADD	EAX,EDI
  1958 00001100 8B 7D D8                        	MOV	EDI,DWORD [-40+EBP]
  1959 00001103 89 45 CC                        	MOV	DWORD [-52+EBP],EAX
  1960 00001106 38 14 38                        	CMP	BYTE [EAX+EDI*1],DL
  1961 00001109 74 26                           	JE	L367
  1962 0000110B                                 L351:
  1963 0000110B 41                              	INC	ECX
  1964 0000110C 3B 4D E4                        	CMP	ECX,DWORD [-28+EBP]
  1965 0000110F 7C DB                           	JL	L354
  1966 00001111                                 L362:
  1967 00001111 46                              	INC	ESI
  1968 00001112 3B 75 C8                        	CMP	ESI,DWORD [-56+EBP]
  1969 00001115 7C C5                           	JL	L355
  1970 00001117                                 L360:
  1971 00001117 8B 7D 08                        	MOV	EDI,DWORD [8+EBP]
  1972 0000111A FF 45 F0                        	INC	DWORD [-16+EBP]
  1973 0000111D 8B 75 F0                        	MOV	ESI,DWORD [-16+EBP]
  1974 00001120 3B 77 10                        	CMP	ESI,DWORD [16+EDI]
  1975 00001123 0F 8E FFFFFF41                  	JLE	L356
  1976 00001129                                 L358:
  1977 00001129 83 C4 2C                        	ADD	ESP,44
  1978 0000112C 5B                              	POP	EBX
  1979 0000112D 5E                              	POP	ESI
  1980 0000112E 5F                              	POP	EDI
  1981 0000112F 5D                              	POP	EBP
  1982 00001130 C3                              	RET
  1983 00001131                                 L367:
  1984 00001131 89 F0                           	MOV	EAX,ESI
  1985 00001133 8B 55 E0                        	MOV	EDX,DWORD [-32+EBP]
  1986 00001136 0F AF 43 04                     	IMUL	EAX,DWORD [4+EBX]
  1987 0000113A 01 C8                           	ADD	EAX,ECX
  1988 0000113C 8B 7D DC                        	MOV	EDI,DWORD [-36+EBP]
  1989 0000113F 8A 04 10                        	MOV	AL,BYTE [EAX+EDX*1]
  1990 00001142 8B 55 CC                        	MOV	EDX,DWORD [-52+EBP]
  1991 00001145 88 04 3A                        	MOV	BYTE [EDX+EDI*1],AL
  1992 00001148 EB C1                           	JMP	L351
  1993 0000114A                                 L366:
  1994 0000114A 31 C9                           	XOR	ECX,ECX
  1995 0000114C E9 FFFFFF6E                     	JMP	L342
  1996 00001151                                 L365:
  1997 00001151 C7 45 E8 00000000               	MOV	DWORD [-24+EBP],0
  1998 00001158 E9 FFFFFF5A                     	JMP	L341
  1999 0000115D                                 L364:
  2000 0000115D C7 45 10 00000000               	MOV	DWORD [16+EBP],0
  2001 00001164 E9 FFFFFED3                     	JMP	L334
  2002 00001169                                 L363:
  2003 00001169 C7 45 0C 00000000               	MOV	DWORD [12+EBP],0
  2004 00001170 E9 FFFFFEBD                     	JMP	L333
  2005 00001175                                 	GLOBAL	_sheetSlide
  2006 00001175                                 _sheetSlide:
  2007 00001175 55                              	PUSH	EBP
  2008 00001176 89 E5                           	MOV	EBP,ESP
  2009 00001178 57                              	PUSH	EDI
  2010 00001179 56                              	PUSH	ESI
  2011 0000117A 53                              	PUSH	EBX
  2012 0000117B 8B 45 0C                        	MOV	EAX,DWORD [12+EBP]
  2013 0000117E 8B 5D 08                        	MOV	EBX,DWORD [8+EBP]
  2014 00001181 8B 7B 0C                        	MOV	EDI,DWORD [12+EBX]
  2015 00001184 8B 73 10                        	MOV	ESI,DWORD [16+EBX]
  2016 00001187 89 43 0C                        	MOV	DWORD [12+EBX],EAX
  2017 0000118A 8B 45 10                        	MOV	EAX,DWORD [16+EBP]
  2018 0000118D 89 43 10                        	MOV	DWORD [16+EBX],EAX
  2019 00001190 83 7B 18 00                     	CMP	DWORD [24+EBX],0
  2020 00001194 78 74                           	JS	L368
  2021 00001196 6A 00                           	PUSH	0
  2022 00001198 89 F0                           	MOV	EAX,ESI
  2023 0000119A 03 43 08                        	ADD	EAX,DWORD [8+EBX]
  2024 0000119D 50                              	PUSH	EAX
  2025 0000119E 89 F8                           	MOV	EAX,EDI
  2026 000011A0 03 43 04                        	ADD	EAX,DWORD [4+EBX]
  2027 000011A3 50                              	PUSH	EAX
  2028 000011A4 56                              	PUSH	ESI
  2029 000011A5 57                              	PUSH	EDI
  2030 000011A6 FF 73 20                        	PUSH	DWORD [32+EBX]
  2031 000011A9 E8 FFFFFB8E                     	CALL	_sheetRefreshMap
  2032 000011AE 8B 45 10                        	MOV	EAX,DWORD [16+EBP]
  2033 000011B1 FF 73 18                        	PUSH	DWORD [24+EBX]
  2034 000011B4 03 43 08                        	ADD	EAX,DWORD [8+EBX]
  2035 000011B7 50                              	PUSH	EAX
  2036 000011B8 8B 45 0C                        	MOV	EAX,DWORD [12+EBP]
  2037 000011BB 03 43 04                        	ADD	EAX,DWORD [4+EBX]
  2038 000011BE 50                              	PUSH	EAX
  2039 000011BF FF 75 10                        	PUSH	DWORD [16+EBP]
  2040 000011C2 FF 75 0C                        	PUSH	DWORD [12+EBP]
  2041 000011C5 FF 73 20                        	PUSH	DWORD [32+EBX]
  2042 000011C8 E8 FFFFFB6F                     	CALL	_sheetRefreshMap
  2043 000011CD 89 F0                           	MOV	EAX,ESI
  2044 000011CF 83 C4 30                        	ADD	ESP,48
  2045 000011D2 6A 00                           	PUSH	0
  2046 000011D4 03 43 08                        	ADD	EAX,DWORD [8+EBX]
  2047 000011D7 50                              	PUSH	EAX
  2048 000011D8 89 F8                           	MOV	EAX,EDI
  2049 000011DA 03 43 04                        	ADD	EAX,DWORD [4+EBX]
  2050 000011DD 50                              	PUSH	EAX
  2051 000011DE 56                              	PUSH	ESI
  2052 000011DF 57                              	PUSH	EDI
  2053 000011E0 FF 73 20                        	PUSH	DWORD [32+EBX]
  2054 000011E3 E8 FFFFFE26                     	CALL	_sheetRefreshSub
  2055 000011E8 8B 45 10                        	MOV	EAX,DWORD [16+EBP]
  2056 000011EB FF 73 18                        	PUSH	DWORD [24+EBX]
  2057 000011EE 03 43 08                        	ADD	EAX,DWORD [8+EBX]
  2058 000011F1 50                              	PUSH	EAX
  2059 000011F2 8B 45 0C                        	MOV	EAX,DWORD [12+EBP]
  2060 000011F5 03 43 04                        	ADD	EAX,DWORD [4+EBX]
  2061 000011F8 50                              	PUSH	EAX
  2062 000011F9 FF 75 10                        	PUSH	DWORD [16+EBP]
  2063 000011FC FF 75 0C                        	PUSH	DWORD [12+EBP]
  2064 000011FF FF 73 20                        	PUSH	DWORD [32+EBX]
  2065 00001202 E8 FFFFFE07                     	CALL	_sheetRefreshSub
  2066 00001207 83 C4 30                        	ADD	ESP,48
  2067 0000120A                                 L368:
  2068 0000120A 8D 65 F4                        	LEA	ESP,DWORD [-12+EBP]
  2069 0000120D 5B                              	POP	EBX
  2070 0000120E 5E                              	POP	ESI
  2071 0000120F 5F                              	POP	EDI
  2072 00001210 5D                              	POP	EBP
  2073 00001211 C3                              	RET
  2074 00001212                                 	GLOBAL	_sheetFree
  2075 00001212                                 _sheetFree:
  2076 00001212 55                              	PUSH	EBP
  2077 00001213 89 E5                           	MOV	EBP,ESP
  2078 00001215 53                              	PUSH	EBX
  2079 00001216 8B 5D 08                        	MOV	EBX,DWORD [8+EBP]
  2080 00001219 83 7B 18 00                     	CMP	DWORD [24+EBX],0
  2081 0000121D 78 0A                           	JS	L371
  2082 0000121F 6A FF                           	PUSH	-1
  2083 00001221 53                              	PUSH	EBX
  2084 00001222 E8 FFFFFC72                     	CALL	_sheetUpdown
  2085 00001227 58                              	POP	EAX
  2086 00001228 5A                              	POP	EDX
  2087 00001229                                 L371:
  2088 00001229 C7 43 1C 00000000               	MOV	DWORD [28+EBX],0
  2089 00001230 8B 5D FC                        	MOV	EBX,DWORD [-4+EBP]
  2090 00001233 C9                              	LEAVE
  2091 00001234 C3                              	RET
  2092                                          [SECTION .data]
  2093 00000130                                 _closeBtn.2:
  2094 00000130 4F 4F 4F 4F 4F 4F 4F 4F 4F 4F   	DB	"OOOOOOOOOOOOOOO@"
       0000013A 4F 4F 4F 4F 4F 40 
  2095 00000140 4F 51 51 51 51 51 51 51 51 51   	DB	"OQQQQQQQQQQQQQ$@"
       0000014A 51 51 51 51 24 40 
  2096 00000150 4F 51 51 51 51 51 51 51 51 51   	DB	"OQQQQQQQQQQQQQ$@"
       0000015A 51 51 51 51 24 40 
  2097 00000160 4F 51 51 51 40 40 51 51 51 51   	DB	"OQQQ@@QQQQ@@QQ$@"
       0000016A 40 40 51 51 24 40 
  2098 00000170 4F 51 51 51 51 40 40 51 51 40   	DB	"OQQQQ@@QQ@@QQQ$@"
       0000017A 40 51 51 51 24 40 
  2099 00000180 4F 51 51 51 51 51 40 40 40 40   	DB	"OQQQQQ@@@@QQQQ$@"
       0000018A 51 51 51 51 24 40 
  2100 00000190 4F 51 51 51 51 51 51 40 40 51   	DB	"OQQQQQQ@@QQQQQ$@"
       0000019A 51 51 51 51 24 40 
  2101 000001A0 4F 51 51 51 51 51 40 40 40 40   	DB	"OQQQQQ@@@@QQQQ$@"
       000001AA 51 51 51 51 24 40 
  2102 000001B0 4F 51 51 51 51 40 40 51 51 40   	DB	"OQQQQ@@QQ@@QQQ$@"
       000001BA 40 51 51 51 24 40 
  2103 000001C0 4F 51 51 51 40 40 51 51 51 51   	DB	"OQQQ@@QQQQ@@QQ$@"
       000001CA 40 40 51 51 24 40 
  2104 000001D0 4F 51 51 51 51 51 51 51 51 51   	DB	"OQQQQQQQQQQQQQ$@"
       000001DA 51 51 51 51 24 40 
  2105 000001E0 4F 51 51 51 51 51 51 51 51 51   	DB	"OQQQQQQQQQQQQQ$@"
       000001EA 51 51 51 51 24 40 
  2106 000001F0 4F 24 24 24 24 24 24 24 24 24   	DB	"O$$$$$$$$$$$$$$@"
       000001FA 24 24 24 24 24 40 
  2107 00000200 40 40 40 40 40 40 40 40 40 40   	DB	"@@@@@@@@@@@@@@@@"
       0000020A 40 40 40 40 40 40 
  2108                                          [SECTION .text]
  2109 00001235                                 	GLOBAL	_makeWindow
  2110 00001235                                 _makeWindow:
  2111 00001235 55                              	PUSH	EBP
  2112 00001236 89 E5                           	MOV	EBP,ESP
  2113 00001238 57                              	PUSH	EDI
  2114 00001239 56                              	PUSH	ESI
  2115 0000123A 53                              	PUSH	EBX
  2116 0000123B 83 EC 14                        	SUB	ESP,20
  2117 0000123E 8B 5D 0C                        	MOV	EBX,DWORD [12+EBP]
  2118 00001241 6A 00                           	PUSH	0
  2119 00001243 8D 43 FF                        	LEA	EAX,DWORD [-1+EBX]
  2120 00001246 8D 7B FE                        	LEA	EDI,DWORD [-2+EBX]
  2121 00001249 50                              	PUSH	EAX
  2122 0000124A 89 45 EC                        	MOV	DWORD [-20+EBP],EAX
  2123 0000124D 6A 00                           	PUSH	0
  2124 0000124F 6A 00                           	PUSH	0
  2125 00001251 6A 08                           	PUSH	8
  2126 00001253 53                              	PUSH	EBX
  2127 00001254 FF 75 08                        	PUSH	DWORD [8+EBP]
  2128 00001257 E8 FFFFF3E6                     	CALL	_boxFill8
  2129 0000125C 6A 01                           	PUSH	1
  2130 0000125E 57                              	PUSH	EDI
  2131 0000125F 6A 01                           	PUSH	1
  2132 00001261 6A 01                           	PUSH	1
  2133 00001263 6A 07                           	PUSH	7
  2134 00001265 53                              	PUSH	EBX
  2135 00001266 FF 75 08                        	PUSH	DWORD [8+EBP]
  2136 00001269 E8 FFFFF3D4                     	CALL	_boxFill8
  2137 0000126E 8B 55 10                        	MOV	EDX,DWORD [16+EBP]
  2138 00001271 83 C4 38                        	ADD	ESP,56
  2139 00001274 4A                              	DEC	EDX
  2140 00001275 89 55 E8                        	MOV	DWORD [-24+EBP],EDX
  2141 00001278 52                              	PUSH	EDX
  2142 00001279 6A 00                           	PUSH	0
  2143 0000127B 6A 00                           	PUSH	0
  2144 0000127D 6A 00                           	PUSH	0
  2145 0000127F 6A 08                           	PUSH	8
  2146 00001281 53                              	PUSH	EBX
  2147 00001282 FF 75 08                        	PUSH	DWORD [8+EBP]
  2148 00001285 E8 FFFFF3B8                     	CALL	_boxFill8
  2149 0000128A 8B 75 10                        	MOV	ESI,DWORD [16+EBP]
  2150 0000128D 83 EE 02                        	SUB	ESI,2
  2151 00001290 56                              	PUSH	ESI
  2152 00001291 6A 01                           	PUSH	1
  2153 00001293 6A 01                           	PUSH	1
  2154 00001295 6A 01                           	PUSH	1
  2155 00001297 6A 07                           	PUSH	7
  2156 00001299 53                              	PUSH	EBX
  2157 0000129A FF 75 08                        	PUSH	DWORD [8+EBP]
  2158 0000129D E8 FFFFF3A0                     	CALL	_boxFill8
  2159 000012A2 83 C4 38                        	ADD	ESP,56
  2160 000012A5 56                              	PUSH	ESI
  2161 000012A6 57                              	PUSH	EDI
  2162 000012A7 6A 01                           	PUSH	1
  2163 000012A9 57                              	PUSH	EDI
  2164 000012AA 6A 0F                           	PUSH	15
  2165 000012AC 53                              	PUSH	EBX
  2166 000012AD FF 75 08                        	PUSH	DWORD [8+EBP]
  2167 000012B0 E8 FFFFF38D                     	CALL	_boxFill8
  2168 000012B5 FF 75 E8                        	PUSH	DWORD [-24+EBP]
  2169 000012B8 FF 75 EC                        	PUSH	DWORD [-20+EBP]
  2170 000012BB 6A 00                           	PUSH	0
  2171 000012BD FF 75 EC                        	PUSH	DWORD [-20+EBP]
  2172 000012C0 6A 00                           	PUSH	0
  2173 000012C2 53                              	PUSH	EBX
  2174 000012C3 FF 75 08                        	PUSH	DWORD [8+EBP]
  2175 000012C6 E8 FFFFF377                     	CALL	_boxFill8
  2176 000012CB 8B 45 10                        	MOV	EAX,DWORD [16+EBP]
  2177 000012CE 83 C4 38                        	ADD	ESP,56
  2178 000012D1 83 E8 03                        	SUB	EAX,3
  2179 000012D4 50                              	PUSH	EAX
  2180 000012D5 8D 43 FD                        	LEA	EAX,DWORD [-3+EBX]
  2181 000012D8 50                              	PUSH	EAX
  2182 000012D9 6A 02                           	PUSH	2
  2183 000012DB 6A 02                           	PUSH	2
  2184 000012DD 6A 08                           	PUSH	8
  2185 000012DF 53                              	PUSH	EBX
  2186 000012E0 FF 75 08                        	PUSH	DWORD [8+EBP]
  2187 000012E3 E8 FFFFF35A                     	CALL	_boxFill8
  2188 000012E8 8D 43 FC                        	LEA	EAX,DWORD [-4+EBX]
  2189 000012EB 6A 14                           	PUSH	20
  2190 000012ED 50                              	PUSH	EAX
  2191 000012EE 6A 03                           	PUSH	3
  2192 000012F0 6A 03                           	PUSH	3
  2193 000012F2 6A 0C                           	PUSH	12
  2194 000012F4 53                              	PUSH	EBX
  2195 000012F5 FF 75 08                        	PUSH	DWORD [8+EBP]
  2196 000012F8 E8 FFFFF345                     	CALL	_boxFill8
  2197 000012FD 83 C4 38                        	ADD	ESP,56
  2198 00001300 56                              	PUSH	ESI
  2199 00001301 57                              	PUSH	EDI
  2200 00001302 56                              	PUSH	ESI
  2201 00001303 6A 01                           	PUSH	1
  2202 00001305 6A 0F                           	PUSH	15
  2203 00001307 53                              	PUSH	EBX
  2204 00001308 FF 75 08                        	PUSH	DWORD [8+EBP]
  2205 0000130B E8 FFFFF332                     	CALL	_boxFill8
  2206 00001310 FF 75 E8                        	PUSH	DWORD [-24+EBP]
  2207 00001313 FF 75 EC                        	PUSH	DWORD [-20+EBP]
  2208 00001316 FF 75 E8                        	PUSH	DWORD [-24+EBP]
  2209 00001319 6A 00                           	PUSH	0
  2210 0000131B 6A 00                           	PUSH	0
  2211 0000131D 6B F3 05                        	IMUL	ESI,EBX,5
  2212 00001320 53                              	PUSH	EBX
  2213 00001321 FF 75 08                        	PUSH	DWORD [8+EBP]
  2214 00001324 E8 FFFFF319                     	CALL	_boxFill8
  2215 00001329 83 C4 38                        	ADD	ESP,56
  2216 0000132C FF 75 14                        	PUSH	DWORD [20+EBP]
  2217 0000132F 6A 07                           	PUSH	7
  2218 00001331 6A 04                           	PUSH	4
  2219 00001333 6A 18                           	PUSH	24
  2220 00001335 53                              	PUSH	EBX
  2221 00001336 FF 75 08                        	PUSH	DWORD [8+EBP]
  2222 00001339 E8 FFFFF566                     	CALL	_putFont8_asc
  2223 0000133E 83 C4 18                        	ADD	ESP,24
  2224 00001341 C7 45 F0 00000000               	MOV	DWORD [-16+EBP],0
  2225 00001348 C7 45 E0 00000000               	MOV	DWORD [-32+EBP],0
  2226 0000134F                                 L388:
  2227 0000134F 8D 04 1E                        	LEA	EAX,DWORD [ESI+EBX*1]
  2228 00001352 8B 55 08                        	MOV	EDX,DWORD [8+EBP]
  2229 00001355 31 FF                           	XOR	EDI,EDI
  2230 00001357 8D 4C 02 EB                     	LEA	ECX,DWORD [-21+EDX+EAX*1]
  2231 0000135B                                 L387:
  2232 0000135B 8B 45 E0                        	MOV	EAX,DWORD [-32+EBP]
  2233 0000135E 8A 94 07 [00000130]             	MOV	DL,BYTE [_closeBtn.2+EDI+EAX*1]
  2234 00001365 80 FA 40                        	CMP	DL,64
  2235 00001368 74 33                           	JE	L393
  2236 0000136A 80 FA 24                        	CMP	DL,36
  2237 0000136D 74 2A                           	JE	L394
  2238 0000136F 80 FA 51                        	CMP	DL,81
  2239 00001372 B2 08                           	MOV	DL,8
  2240 00001374 0F 95 C0                        	SETNE	AL
  2241 00001377 28 C2                           	SUB	DL,AL
  2242 00001379                                 L382:
  2243 00001379 47                              	INC	EDI
  2244 0000137A 88 11                           	MOV	BYTE [ECX],DL
  2245 0000137C 41                              	INC	ECX
  2246 0000137D 83 FF 0F                        	CMP	EDI,15
  2247 00001380 7E D9                           	JLE	L387
  2248 00001382 FF 45 F0                        	INC	DWORD [-16+EBP]
  2249 00001385 01 DE                           	ADD	ESI,EBX
  2250 00001387 83 45 E0 10                     	ADD	DWORD [-32+EBP],16
  2251 0000138B 83 7D F0 0D                     	CMP	DWORD [-16+EBP],13
  2252 0000138F 7E BE                           	JLE	L388
  2253 00001391 8D 65 F4                        	LEA	ESP,DWORD [-12+EBP]
  2254 00001394 5B                              	POP	EBX
  2255 00001395 5E                              	POP	ESI
  2256 00001396 5F                              	POP	EDI
  2257 00001397 5D                              	POP	EBP
  2258 00001398 C3                              	RET
  2259 00001399                                 L394:
  2260 00001399 B2 0F                           	MOV	DL,15
  2261 0000139B EB DC                           	JMP	L382
  2262 0000139D                                 L393:
  2263 0000139D 31 D2                           	XOR	EDX,EDX
  2264 0000139F EB D8                           	JMP	L382
  2265                                          [SECTION .data]
  2266 00000210                                 LC0:
  2267 00000210 63 6F 75 6E 74 65 72 00         	DB	"counter",0x00
  2268 00000218                                 LC1:
  2269 00000218 44 69 63 6B 4F 53 00            	DB	"DickOS",0x00
  2270 0000021F                                 LC2:
  2271 0000021F 28 25 33 64 2C 20 25 33 64 29   	DB	"(%3d, %3d)",0x00
       00000229 00 
  2272 0000022A                                 LC3:
  2273 0000022A 6D 65 6D 6F 72 79 20 25 64 4D   	DB	"memory %dMB free : %dKB",0x00
       00000234 42 20 66 72 65 65 20 3A 20 25 
       0000023E 64 4B 42 00 
  2274 00000242                                 LC8:
  2275 00000242 33 5B 73 65 63 5D 00            	DB	"3[sec]",0x00
  2276 00000249                                 LC7:
  2277 00000249 31 30 5B 73 65 63 5D 00         	DB	"10[sec]",0x00
  2278 00000251                                 LC6:
  2279 00000251 5B 6C 63 72 20 25 34 64 20 25   	DB	"[lcr %4d %4d]",0x00
       0000025B 34 64 5D 00 
  2280 0000025F                                 LC4:
  2281 0000025F 25 30 32 58 00                  	DB	"%02X",0x00
  2282 00000264                                 LC5:
  2283 00000264 41 00                           	DB	"A",0x00
  2284                                          [SECTION .text]
  2285 000013A1                                 	GLOBAL	_Main
  2286 000013A1                                 _Main:
  2287 000013A1 55                              	PUSH	EBP
  2288 000013A2 89 E5                           	MOV	EBP,ESP
  2289 000013A4 57                              	PUSH	EDI
  2290 000013A5 56                              	PUSH	ESI
  2291 000013A6 53                              	PUSH	EBX
  2292 000013A7 8D B5 FFFFFC94                  	LEA	ESI,DWORD [-876+EBP]
  2293 000013AD 81 EC 00000380                  	SUB	ESP,896
  2294 000013B3 E8 FFFFF0FB                     	CALL	_initGdtit
  2295 000013B8 E8 FFFFEF26                     	CALL	_init_pic
  2296 000013BD E8 [00000000]                   	CALL	_io_sti
  2297 000013C2 8D 85 FFFFFDC4                  	LEA	EAX,DWORD [-572+EBP]
  2298 000013C8 50                              	PUSH	EAX
  2299 000013C9 68 00000080                     	PUSH	128
  2300 000013CE 56                              	PUSH	ESI
  2301 000013CF E8 FFFFEC2C                     	CALL	_QueueInit
  2302 000013D4 E8 FFFFEDF0                     	CALL	_initPit
  2303 000013D9 68 00000100                     	PUSH	256
  2304 000013DE 56                              	PUSH	ESI
  2305 000013DF E8 FFFFECCD                     	CALL	_initKeyboard
  2306 000013E4 8D 85 FFFFFDB4                  	LEA	EAX,DWORD [-588+EBP]
  2307 000013EA 50                              	PUSH	EAX
  2308 000013EB 68 00000200                     	PUSH	512
  2309 000013F0 56                              	PUSH	ESI
  2310 000013F1 E8 FFFFECF7                     	CALL	_enableMouse
  2311 000013F6 83 C4 20                        	ADD	ESP,32
  2312 000013F9 68 000000F8                     	PUSH	248
  2313 000013FE 6A 21                           	PUSH	33
  2314 00001400 E8 [00000000]                   	CALL	_io_out8
  2315 00001405 68 000000EF                     	PUSH	239
  2316 0000140A 68 000000A1                     	PUSH	161
  2317 0000140F E8 [00000000]                   	CALL	_io_out8
  2318 00001414 E8 FFFFEE1F                     	CALL	_timerAlloc
  2319 00001419 6A 0A                           	PUSH	10
  2320 0000141B 56                              	PUSH	ESI
  2321 0000141C 89 C3                           	MOV	EBX,EAX
  2322 0000141E 50                              	PUSH	EAX
  2323 0000141F E8 FFFFEE4C                     	CALL	_timerInit
  2324 00001424 68 000003E8                     	PUSH	1000
  2325 00001429 53                              	PUSH	EBX
  2326 0000142A E8 FFFFEE55                     	CALL	_timerSetTime
  2327 0000142F 83 C4 24                        	ADD	ESP,36
  2328 00001432 E8 FFFFEE01                     	CALL	_timerAlloc
  2329 00001437 6A 03                           	PUSH	3
  2330 00001439 89 C3                           	MOV	EBX,EAX
  2331 0000143B 56                              	PUSH	ESI
  2332 0000143C 50                              	PUSH	EAX
  2333 0000143D E8 FFFFEE2E                     	CALL	_timerInit
  2334 00001442 68 0000012C                     	PUSH	300
  2335 00001447 53                              	PUSH	EBX
  2336 00001448 E8 FFFFEE37                     	CALL	_timerSetTime
  2337 0000144D E8 FFFFEDE6                     	CALL	_timerAlloc
  2338 00001452 6A 01                           	PUSH	1
  2339 00001454 56                              	PUSH	ESI
  2340 00001455 50                              	PUSH	EAX
  2341 00001456 89 85 FFFFFC7C                  	MOV	DWORD [-900+EBP],EAX
  2342 0000145C E8 FFFFEE0F                     	CALL	_timerInit
  2343 00001461 83 C4 20                        	ADD	ESP,32
  2344 00001464 6A 32                           	PUSH	50
  2345 00001466 FF B5 FFFFFC7C                  	PUSH	DWORD [-900+EBP]
  2346 0000146C E8 FFFFEE13                     	CALL	_timerSetTime
  2347 00001471 68 BFFFFFFF                     	PUSH	-1073741825
  2348 00001476 68 00400000                     	PUSH	4194304
  2349 0000147B E8 FFFFF5AD                     	CALL	_memtest
  2350 00001480 68 003C0000                     	PUSH	3932160
  2351 00001485 89 C3                           	MOV	EBX,EAX
  2352 00001487 E8 FFFFF63D                     	CALL	_memsegInit
  2353 0000148C 68 0009E000                     	PUSH	647168
  2354 00001491 68 00001000                     	PUSH	4096
  2355 00001496 68 003C0000                     	PUSH	3932160
  2356 0000149B E8 FFFFF6AF                     	CALL	_memsegFree
  2357 000014A0 8D 83 FFC00000                  	LEA	EAX,DWORD [-4194304+EBX]
  2358 000014A6 83 C4 20                        	ADD	ESP,32
  2359 000014A9 50                              	PUSH	EAX
  2360 000014AA 68 00400000                     	PUSH	4194304
  2361 000014AF 68 003C0000                     	PUSH	3932160
  2362 000014B4 E8 FFFFF696                     	CALL	_memsegFree
  2363 000014B9 E8 FFFFF171                     	CALL	_init_palette
  2364 000014BE 0F BF 05 00000FF6               	MOVSX	EAX,WORD [4086]
  2365 000014C5 50                              	PUSH	EAX
  2366 000014C6 0F BF 05 00000FF4               	MOVSX	EAX,WORD [4084]
  2367 000014CD 50                              	PUSH	EAX
  2368 000014CE FF 35 00000FF8                  	PUSH	DWORD [4088]
  2369 000014D4 68 003C0000                     	PUSH	3932160
  2370 000014D9 E8 FFFFF789                     	CALL	_shtctlInit
  2371 000014DE 89 C3                           	MOV	EBX,EAX
  2372 000014E0 50                              	PUSH	EAX
  2373 000014E1 E8 FFFFF804                     	CALL	_sheetAlloc
  2374 000014E6 83 C4 20                        	ADD	ESP,32
  2375 000014E9 89 C7                           	MOV	EDI,EAX
  2376 000014EB 53                              	PUSH	EBX
  2377 000014EC E8 FFFFF7F9                     	CALL	_sheetAlloc
  2378 000014F1 53                              	PUSH	EBX
  2379 000014F2 8D 9D FFFFFCB4                  	LEA	EBX,DWORD [-844+EBP]
  2380 000014F8 89 85 FFFFFC88                  	MOV	DWORD [-888+EBP],EAX
  2381 000014FE E8 FFFFF7E7                     	CALL	_sheetAlloc
  2382 00001503 0F BF 15 00000FF6               	MOVSX	EDX,WORD [4086]
  2383 0000150A 89 85 FFFFFC84                  	MOV	DWORD [-892+EBP],EAX
  2384 00001510 0F BF 05 00000FF4               	MOVSX	EAX,WORD [4084]
  2385 00001517 0F AF C2                        	IMUL	EAX,EDX
  2386 0000151A 50                              	PUSH	EAX
  2387 0000151B 68 003C0000                     	PUSH	3932160
  2388 00001520 E8 FFFFF710                     	CALL	_memsegAlloc4K
  2389 00001525 68 00002080                     	PUSH	8320
  2390 0000152A 68 003C0000                     	PUSH	3932160
  2391 0000152F 89 85 FFFFFC80                  	MOV	DWORD [-896+EBP],EAX
  2392 00001535 E8 FFFFF6FB                     	CALL	_memsegAlloc4K
  2393 0000153A 6A FF                           	PUSH	-1
  2394 0000153C 89 C6                           	MOV	ESI,EAX
  2395 0000153E 0F BF 05 00000FF6               	MOVSX	EAX,WORD [4086]
  2396 00001545 50                              	PUSH	EAX
  2397 00001546 0F BF 05 00000FF4               	MOVSX	EAX,WORD [4084]
  2398 0000154D 50                              	PUSH	EAX
  2399 0000154E FF B5 FFFFFC80                  	PUSH	DWORD [-896+EBP]
  2400 00001554 57                              	PUSH	EDI
  2401 00001555 E8 FFFFF7C3                     	CALL	_sheetSetbuf
  2402 0000155A 83 C4 2C                        	ADD	ESP,44
  2403 0000155D 6A 0E                           	PUSH	14
  2404 0000155F 6A 10                           	PUSH	16
  2405 00001561 6A 10                           	PUSH	16
  2406 00001563 53                              	PUSH	EBX
  2407 00001564 FF B5 FFFFFC88                  	PUSH	DWORD [-888+EBP]
  2408 0000156A E8 FFFFF7AE                     	CALL	_sheetSetbuf
  2409 0000156F 6A FF                           	PUSH	-1
  2410 00001571 6A 34                           	PUSH	52
  2411 00001573 68 000000A0                     	PUSH	160
  2412 00001578 56                              	PUSH	ESI
  2413 00001579 FF B5 FFFFFC84                  	PUSH	DWORD [-892+EBP]
  2414 0000157F E8 FFFFF799                     	CALL	_sheetSetbuf
  2415 00001584 83 C4 28                        	ADD	ESP,40
  2416 00001587 0F BF 05 00000FF6               	MOVSX	EAX,WORD [4086]
  2417 0000158E 50                              	PUSH	EAX
  2418 0000158F 0F BF 05 00000FF4               	MOVSX	EAX,WORD [4084]
  2419 00001596 50                              	PUSH	EAX
  2420 00001597 FF B5 FFFFFC80                  	PUSH	DWORD [-896+EBP]
  2421 0000159D E8 FFFFF0F1                     	CALL	_init_GUI
  2422 000015A2 6A 0E                           	PUSH	14
  2423 000015A4 53                              	PUSH	EBX
  2424 000015A5 BB 00000002                     	MOV	EBX,2
  2425 000015AA E8 FFFFF3CB                     	CALL	_initMouseCursor8
  2426 000015AF 68 [00000210]                   	PUSH	LC0
  2427 000015B4 6A 34                           	PUSH	52
  2428 000015B6 68 000000A0                     	PUSH	160
  2429 000015BB 56                              	PUSH	ESI
  2430 000015BC E8 FFFFFC74                     	CALL	_makeWindow
  2431 000015C1 83 C4 24                        	ADD	ESP,36
  2432 000015C4 6A 00                           	PUSH	0
  2433 000015C6 6A 00                           	PUSH	0
  2434 000015C8 57                              	PUSH	EDI
  2435 000015C9 E8 FFFFFBA7                     	CALL	_sheetSlide
  2436 000015CE 0F BF 05 00000FF4               	MOVSX	EAX,WORD [4084]
  2437 000015D5 8D 48 F0                        	LEA	ECX,DWORD [-16+EAX]
  2438 000015D8 89 C8                           	MOV	EAX,ECX
  2439 000015DA 99                              	CDQ
  2440 000015DB F7 FB                           	IDIV	EBX
  2441 000015DD 89 85 FFFFFC90                  	MOV	DWORD [-880+EBP],EAX
  2442 000015E3 0F BF 05 00000FF6               	MOVSX	EAX,WORD [4086]
  2443 000015EA 8D 48 D4                        	LEA	ECX,DWORD [-44+EAX]
  2444 000015ED 89 C8                           	MOV	EAX,ECX
  2445 000015EF 99                              	CDQ
  2446 000015F0 F7 FB                           	IDIV	EBX
  2447 000015F2 50                              	PUSH	EAX
  2448 000015F3 89 85 FFFFFC8C                  	MOV	DWORD [-884+EBP],EAX
  2449 000015F9 FF B5 FFFFFC90                  	PUSH	DWORD [-880+EBP]
  2450 000015FF FF B5 FFFFFC88                  	PUSH	DWORD [-888+EBP]
  2451 00001605 8D 5D C4                        	LEA	EBX,DWORD [-60+EBP]
  2452 00001608 E8 FFFFFB68                     	CALL	_sheetSlide
  2453 0000160D 6A 50                           	PUSH	80
  2454 0000160F 6A 50                           	PUSH	80
  2455 00001611 FF B5 FFFFFC84                  	PUSH	DWORD [-892+EBP]
  2456 00001617 E8 FFFFFB59                     	CALL	_sheetSlide
  2457 0000161C 83 C4 24                        	ADD	ESP,36
  2458 0000161F 6A 00                           	PUSH	0
  2459 00001621 57                              	PUSH	EDI
  2460 00001622 E8 FFFFF872                     	CALL	_sheetUpdown
  2461 00001627 6A 01                           	PUSH	1
  2462 00001629 FF B5 FFFFFC84                  	PUSH	DWORD [-892+EBP]
  2463 0000162F E8 FFFFF865                     	CALL	_sheetUpdown
  2464 00001634 6A 02                           	PUSH	2
  2465 00001636 FF B5 FFFFFC88                  	PUSH	DWORD [-888+EBP]
  2466 0000163C E8 FFFFF858                     	CALL	_sheetUpdown
  2467 00001641 6A 06                           	PUSH	6
  2468 00001643 68 [00000218]                   	PUSH	LC1
  2469 00001648 6A 0E                           	PUSH	14
  2470 0000164A 6A 07                           	PUSH	7
  2471 0000164C 6A 20                           	PUSH	32
  2472 0000164E 6A 1E                           	PUSH	30
  2473 00001650 57                              	PUSH	EDI
  2474 00001651 E8 FFFFF29D                     	CALL	_putFont8AscSheet
  2475 00001656 83 C4 34                        	ADD	ESP,52
  2476 00001659 FF B5 FFFFFC8C                  	PUSH	DWORD [-884+EBP]
  2477 0000165F FF B5 FFFFFC90                  	PUSH	DWORD [-880+EBP]
  2478 00001665 68 [0000021F]                   	PUSH	LC2
  2479 0000166A 53                              	PUSH	EBX
  2480 0000166B E8 [00000000]                   	CALL	_sprintf
  2481 00001670 6A 0A                           	PUSH	10
  2482 00001672 53                              	PUSH	EBX
  2483 00001673 6A 0E                           	PUSH	14
  2484 00001675 6A 07                           	PUSH	7
  2485 00001677 6A 00                           	PUSH	0
  2486 00001679 6A 00                           	PUSH	0
  2487 0000167B 57                              	PUSH	EDI
  2488 0000167C E8 FFFFF272                     	CALL	_putFont8AscSheet
  2489 00001681 83 C4 2C                        	ADD	ESP,44
  2490 00001684 68 003C0000                     	PUSH	3932160
  2491 00001689 E8 FFFFF41E                     	CALL	_memsegTotal
  2492 0000168E C1 E8 0A                        	SHR	EAX,10
  2493 00001691 89 04 24                        	MOV	DWORD [ESP],EAX
  2494 00001694 68 BFFFFFFF                     	PUSH	-1073741825
  2495 00001699 68 00400000                     	PUSH	4194304
  2496 0000169E E8 FFFFF38A                     	CALL	_memtest
  2497 000016A3 5E                              	POP	ESI
  2498 000016A4 C1 E8 14                        	SHR	EAX,20
  2499 000016A7 5A                              	POP	EDX
  2500 000016A8 50                              	PUSH	EAX
  2501 000016A9 68 [0000022A]                   	PUSH	LC3
  2502 000016AE 53                              	PUSH	EBX
  2503 000016AF E8 [00000000]                   	CALL	_sprintf
  2504 000016B4 6A 1A                           	PUSH	26
  2505 000016B6 53                              	PUSH	EBX
  2506 000016B7 6A 0E                           	PUSH	14
  2507 000016B9 6A 07                           	PUSH	7
  2508 000016BB 6A 30                           	PUSH	48
  2509 000016BD 6A 00                           	PUSH	0
  2510 000016BF 57                              	PUSH	EDI
  2511 000016C0 E8 FFFFF22E                     	CALL	_putFont8AscSheet
  2512 000016C5 83 C4 2C                        	ADD	ESP,44
  2513 000016C8                                 L396:
  2514 000016C8 8D 9D FFFFFC94                  	LEA	EBX,DWORD [-876+EBP]
  2515 000016CE E8 [00000000]                   	CALL	_io_cli
  2516 000016D3 53                              	PUSH	EBX
  2517 000016D4 E8 FFFFE9B8                     	CALL	_QueueSize
  2518 000016D9 59                              	POP	ECX
  2519 000016DA 85 C0                           	TEST	EAX,EAX
  2520 000016DC 0F 84 00000251                  	JE	L426
  2521 000016E2 53                              	PUSH	EBX
  2522 000016E3 E8 FFFFE977                     	CALL	_QueuePop
  2523 000016E8 89 C6                           	MOV	ESI,EAX
  2524 000016EA E8 [00000000]                   	CALL	_io_sti
  2525 000016EF 5A                              	POP	EDX
  2526 000016F0 8D 86 FFFFFF00                  	LEA	EAX,DWORD [-256+ESI]
  2527 000016F6 3D 000000FF                     	CMP	EAX,255
  2528 000016FB 0F 86 000001E9                  	JBE	L427
  2529 00001701 8D 86 FFFFFE00                  	LEA	EAX,DWORD [-512+ESI]
  2530 00001707 3D 000000FF                     	CMP	EAX,255
  2531 0000170C 0F 86 000000AB                  	JBE	L428
  2532 00001712 83 FE 0A                        	CMP	ESI,10
  2533 00001715 0F 84 00000093                  	JE	L429
  2534 0000171B 83 FE 03                        	CMP	ESI,3
  2535 0000171E 74 77                           	JE	L430
  2536 00001720 83 FE 01                        	CMP	ESI,1
  2537 00001723 74 58                           	JE	L431
  2538 00001725 85 F6                           	TEST	ESI,ESI
  2539 00001727 75 9F                           	JNE	L396
  2540 00001729 6A 01                           	PUSH	1
  2541 0000172B 53                              	PUSH	EBX
  2542 0000172C FF B5 FFFFFC7C                  	PUSH	DWORD [-900+EBP]
  2543 00001732 E8 FFFFEB39                     	CALL	_timerInit
  2544 00001737 6A 7F                           	PUSH	127
  2545 00001739 6A 0F                           	PUSH	15
  2546 0000173B 6A 70                           	PUSH	112
  2547 0000173D 6A 08                           	PUSH	8
  2548 0000173F 6A 0E                           	PUSH	14
  2549 00001741                                 L421:
  2550 00001741 0F BF 05 00000FF4               	MOVSX	EAX,WORD [4084]
  2551 00001748 50                              	PUSH	EAX
  2552 00001749 FF B5 FFFFFC80                  	PUSH	DWORD [-896+EBP]
  2553 0000174F E8 FFFFEEEE                     	CALL	_boxFill8
  2554 00001754 83 C4 28                        	ADD	ESP,40
  2555 00001757 6A 32                           	PUSH	50
  2556 00001759 FF B5 FFFFFC7C                  	PUSH	DWORD [-900+EBP]
  2557 0000175F E8 FFFFEB20                     	CALL	_timerSetTime
  2558 00001764 68 00000080                     	PUSH	128
  2559 00001769 6A 10                           	PUSH	16
  2560 0000176B 6A 70                           	PUSH	112
  2561 0000176D 6A 08                           	PUSH	8
  2562 0000176F 57                              	PUSH	EDI
  2563 00001770 E8 FFFFF860                     	CALL	_sheetRefresh
  2564 00001775                                 L422:
  2565 00001775 83 C4 1C                        	ADD	ESP,28
  2566 00001778 E9 FFFFFF4B                     	JMP	L396
  2567 0000177D                                 L431:
  2568 0000177D 6A 00                           	PUSH	0
  2569 0000177F 53                              	PUSH	EBX
  2570 00001780 FF B5 FFFFFC7C                  	PUSH	DWORD [-900+EBP]
  2571 00001786 E8 FFFFEAE5                     	CALL	_timerInit
  2572 0000178B 6A 7F                           	PUSH	127
  2573 0000178D 6A 0F                           	PUSH	15
  2574 0000178F 6A 70                           	PUSH	112
  2575 00001791 6A 08                           	PUSH	8
  2576 00001793 6A 07                           	PUSH	7
  2577 00001795 EB AA                           	JMP	L421
  2578 00001797                                 L430:
  2579 00001797 6A 06                           	PUSH	6
  2580 00001799 68 [00000242]                   	PUSH	LC8
  2581 0000179E 6A 0E                           	PUSH	14
  2582 000017A0 6A 07                           	PUSH	7
  2583 000017A2 6A 60                           	PUSH	96
  2584 000017A4                                 L425:
  2585 000017A4 6A 00                           	PUSH	0
  2586 000017A6 57                              	PUSH	EDI
  2587 000017A7                                 L424:
  2588 000017A7 E8 FFFFF147                     	CALL	_putFont8AscSheet
  2589 000017AC EB C7                           	JMP	L422
  2590 000017AE                                 L429:
  2591 000017AE 6A 07                           	PUSH	7
  2592 000017B0 68 [00000249]                   	PUSH	LC7
  2593 000017B5 6A 0E                           	PUSH	14
  2594 000017B7 6A 07                           	PUSH	7
  2595 000017B9 6A 50                           	PUSH	80
  2596 000017BB EB E7                           	JMP	L425
  2597 000017BD                                 L428:
  2598 000017BD 89 F3                           	MOV	EBX,ESI
  2599 000017BF 0F B6 C3                        	MOVZX	EAX,BL
  2600 000017C2 50                              	PUSH	EAX
  2601 000017C3 8D 85 FFFFFDB4                  	LEA	EAX,DWORD [-588+EBP]
  2602 000017C9 50                              	PUSH	EAX
  2603 000017CA E8 FFFFE95C                     	CALL	_mouseDecode
  2604 000017CF 59                              	POP	ECX
  2605 000017D0 5B                              	POP	EBX
  2606 000017D1 85 C0                           	TEST	EAX,EAX
  2607 000017D3 0F 84 FFFFFEEF                  	JE	L396
  2608 000017D9 FF B5 FFFFFDBC                  	PUSH	DWORD [-580+EBP]
  2609 000017DF FF B5 FFFFFDB8                  	PUSH	DWORD [-584+EBP]
  2610 000017E5 68 [00000251]                   	PUSH	LC6
  2611 000017EA 8D 5D C4                        	LEA	EBX,DWORD [-60+EBP]
  2612 000017ED 53                              	PUSH	EBX
  2613 000017EE E8 [00000000]                   	CALL	_sprintf
  2614 000017F3 83 C4 10                        	ADD	ESP,16
  2615 000017F6 8B 85 FFFFFDC0                  	MOV	EAX,DWORD [-576+EBP]
  2616 000017FC A9 00000001                     	TEST	EAX,1
  2617 00001801 74 04                           	JE	L406
  2618 00001803 C6 45 C5 4C                     	MOV	BYTE [-59+EBP],76
  2619 00001807                                 L406:
  2620 00001807 A9 00000002                     	TEST	EAX,2
  2621 0000180C 74 04                           	JE	L407
  2622 0000180E C6 45 C7 52                     	MOV	BYTE [-57+EBP],82
  2623 00001812                                 L407:
  2624 00001812 83 E0 04                        	AND	EAX,4
  2625 00001815 74 04                           	JE	L408
  2626 00001817 C6 45 C6 43                     	MOV	BYTE [-58+EBP],67
  2627 0000181B                                 L408:
  2628 0000181B 6A 0F                           	PUSH	15
  2629 0000181D 53                              	PUSH	EBX
  2630 0000181E 6A 0E                           	PUSH	14
  2631 00001820 6A 07                           	PUSH	7
  2632 00001822 6A 10                           	PUSH	16
  2633 00001824 6A 20                           	PUSH	32
  2634 00001826 57                              	PUSH	EDI
  2635 00001827 E8 FFFFF0C7                     	CALL	_putFont8AscSheet
  2636 0000182C 8B 95 FFFFFDB8                  	MOV	EDX,DWORD [-584+EBP]
  2637 00001832 8B 85 FFFFFDBC                  	MOV	EAX,DWORD [-580+EBP]
  2638 00001838 83 C4 1C                        	ADD	ESP,28
  2639 0000183B 01 85 FFFFFC8C                  	ADD	DWORD [-884+EBP],EAX
  2640 00001841 01 95 FFFFFC90                  	ADD	DWORD [-880+EBP],EDX
  2641 00001847 0F 88 0000008E                  	JS	L432
  2642 0000184D                                 L409:
  2643 0000184D 83 BD FFFFFC8C 00               	CMP	DWORD [-884+EBP],0
  2644 00001854 78 76                           	JS	L433
  2645 00001856                                 L410:
  2646 00001856 0F BF 05 00000FF4               	MOVSX	EAX,WORD [4084]
  2647 0000185D 48                              	DEC	EAX
  2648 0000185E 39 85 FFFFFC90                  	CMP	DWORD [-880+EBP],EAX
  2649 00001864 7E 06                           	JLE	L411
  2650 00001866 89 85 FFFFFC90                  	MOV	DWORD [-880+EBP],EAX
  2651 0000186C                                 L411:
  2652 0000186C 0F BF 05 00000FF6               	MOVSX	EAX,WORD [4086]
  2653 00001873 48                              	DEC	EAX
  2654 00001874 39 85 FFFFFC8C                  	CMP	DWORD [-884+EBP],EAX
  2655 0000187A 7E 06                           	JLE	L412
  2656 0000187C 89 85 FFFFFC8C                  	MOV	DWORD [-884+EBP],EAX
  2657 00001882                                 L412:
  2658 00001882 FF B5 FFFFFC8C                  	PUSH	DWORD [-884+EBP]
  2659 00001888 FF B5 FFFFFC90                  	PUSH	DWORD [-880+EBP]
  2660 0000188E 68 [0000021F]                   	PUSH	LC2
  2661 00001893 53                              	PUSH	EBX
  2662 00001894 E8 [00000000]                   	CALL	_sprintf
  2663 00001899 6A 0A                           	PUSH	10
  2664 0000189B 53                              	PUSH	EBX
  2665 0000189C 6A 0E                           	PUSH	14
  2666 0000189E 6A 07                           	PUSH	7
  2667 000018A0 6A 00                           	PUSH	0
  2668 000018A2 6A 00                           	PUSH	0
  2669 000018A4 57                              	PUSH	EDI
  2670 000018A5 E8 FFFFF049                     	CALL	_putFont8AscSheet
  2671 000018AA 83 C4 2C                        	ADD	ESP,44
  2672 000018AD FF B5 FFFFFC8C                  	PUSH	DWORD [-884+EBP]
  2673 000018B3 FF B5 FFFFFC90                  	PUSH	DWORD [-880+EBP]
  2674 000018B9 FF B5 FFFFFC88                  	PUSH	DWORD [-888+EBP]
  2675 000018BF E8 FFFFF8B1                     	CALL	_sheetSlide
  2676 000018C4 83 C4 0C                        	ADD	ESP,12
  2677 000018C7 E9 FFFFFDFC                     	JMP	L396
  2678 000018CC                                 L433:
  2679 000018CC C7 85 FFFFFC8C 00000000         	MOV	DWORD [-884+EBP],0
  2680 000018D6 E9 FFFFFF7B                     	JMP	L410
  2681 000018DB                                 L432:
  2682 000018DB C7 85 FFFFFC90 00000000         	MOV	DWORD [-880+EBP],0
  2683 000018E5 E9 FFFFFF63                     	JMP	L409
  2684 000018EA                                 L427:
  2685 000018EA 50                              	PUSH	EAX
  2686 000018EB 8D 5D C4                        	LEA	EBX,DWORD [-60+EBP]
  2687 000018EE 68 [0000025F]                   	PUSH	LC4
  2688 000018F3 53                              	PUSH	EBX
  2689 000018F4 E8 [00000000]                   	CALL	_sprintf
  2690 000018F9 6A 02                           	PUSH	2
  2691 000018FB 53                              	PUSH	EBX
  2692 000018FC 6A 0E                           	PUSH	14
  2693 000018FE 6A 07                           	PUSH	7
  2694 00001900 6A 10                           	PUSH	16
  2695 00001902 6A 00                           	PUSH	0
  2696 00001904 57                              	PUSH	EDI
  2697 00001905 E8 FFFFEFE9                     	CALL	_putFont8AscSheet
  2698 0000190A 83 C4 28                        	ADD	ESP,40
  2699 0000190D 81 FE 0000011E                  	CMP	ESI,286
  2700 00001913 0F 85 FFFFFDAF                  	JNE	L396
  2701 00001919 6A 01                           	PUSH	1
  2702 0000191B 68 [00000264]                   	PUSH	LC5
  2703 00001920 6A 08                           	PUSH	8
  2704 00001922 6A 00                           	PUSH	0
  2705 00001924 6A 1C                           	PUSH	28
  2706 00001926 6A 28                           	PUSH	40
  2707 00001928 FF B5 FFFFFC84                  	PUSH	DWORD [-892+EBP]
  2708 0000192E E9 FFFFFE74                     	JMP	L424
  2709 00001933                                 L426:
  2710 00001933 E8 [00000000]                   	CALL	_io_stihlt
  2711 00001938 E9 FFFFFD8B                     	JMP	L396
  2712 0000193D                                 	GLOBAL	_keybuf
  2713                                          [SECTION .data]
  2714 00000266 00 00                           	ALIGNB	4
  2715 00000268                                 _keybuf:
  2716 00000268 00 00 00 00                     	RESB	4
  2717 0000026C                                 	GLOBAL	_keyData0
  2718                                          [SECTION .data]
  2719 0000026C                                 	ALIGNB	4
  2720 0000026C                                 _keyData0:
  2721 0000026C 00 00 00 00                     	RESB	4
  2722 00000270                                 	GLOBAL	_mousebuf
  2723                                          [SECTION .data]
  2724 00000270                                 	ALIGNB	4
  2725 00000270                                 _mousebuf:
  2726 00000270 00 00 00 00                     	RESB	4
  2727 00000274                                 	GLOBAL	_mouseData0
  2728                                          [SECTION .data]
  2729 00000274                                 	ALIGNB	4
  2730 00000274                                 _mouseData0:
  2731 00000274 00 00 00 00                     	RESB	4
  2732 00000278                                 	GLOBAL	_timerctl
  2733                                          [SECTION .data]
  2734 00000278 00 00 00 00 00 00 00 00         	ALIGNB	16
  2735 00000280                                 _timerctl:
  2736 00000280 00 00 00 00 00 00 00 00 00 00   	RESB	10012
       0000028A 00 00 00 00 00 00 00 00 00 00 
       00000294 00 00 00 00 00 00 00 00 00 00 
       0000029E 00 00 00 00 00 00 00 00 00 00 
       000002A8 00 00 00 00 00 00 00 00 00 00 
       000002B2 00 00 00 00 00 00 00 00 00 00 
       000002BC 00 00 00 00 00 00 00 00 00 00 
       000002C6 00 00 00 00 00 00 00 00 00 00 
       000002D0 00 00 00 00 00 00 00 00 00 00 
       000002DA 00 00 00 00 00 00 00 00 00 00 
       000002E4 00 00 00 00 00 00 00 00 00 00 
       000002EE 00 00 00 00 00 00 00 00 00 00 
       000002F8 00 00 00 00 00 00 00 00 00 00 
       00000302 00 00 00 00 00 00 00 00 00 00 
       0000030C 00 00 00 00 00 00 00 00 00 00 
       00000316 00 00 00 00 00 00 00 00 00 00 
       00000320 00 00 00 00 00 00 00 00 00 00 
       0000032A 00 00 00 00 00 00 00 00 00 00 
       00000334 00 00 00 00 00 00 00 00 00 00 
       0000033E 00 00 00 00 00 00 00 00 00 00 
       00000348 00 00 00 00 00 00 00 00 00 00 
       00000352 00 00 00 00 00 00 00 00 00 00 
       0000035C 00 00 00 00 00 00 00 00 00 00 
       00000366 00 00 00 00 00 00 00 00 00 00 
       00000370 00 00 00 00 00 00 00 00 00 00 
       0000037A 00 00 00 00 00 00 00 00 00 00 
       00000384 00 00 00 00 00 00 00 00 00 00 
       0000038E 00 00 00 00 00 00 00 00 00 00 
       00000398 00 00 00 00 00 00 00 00 00 00 
       000003A2 00 00 00 00 00 00 00 00 00 00 
       000003AC 00 00 00 00 00 00 00 00 00 00 
       000003B6 00 00 00 00 00 00 00 00 00 00 
       000003C0 00 00 00 00 00 00 00 00 00 00 
       000003CA 00 00 00 00 00 00 00 00 00 00 
       000003D4 00 00 00 00 00 00 00 00 00 00 
       000003DE 00 00 00 00 00 00 00 00 00 00 
       000003E8 00 00 00 00 00 00 00 00 00 00 
       000003F2 00 00 00 00 00 00 00 00 00 00 
       000003FC 00 00 00 00 00 00 00 00 00 00 
       00000406 00 00 00 00 00 00 00 00 00 00 
       00000410 00 00 00 00 00 00 00 00 00 00 
       0000041A 00 00 00 00 00 00 00 00 00 00 
       00000424 00 00 00 00 00 00 00 00 00 00 
       0000042E 00 00 00 00 00 00 00 00 00 00 
       00000438 00 00 00 00 00 00 00 00 00 00 
       00000442 00 00 00 00 00 00 00 00 00 00 
       0000044C 00 00 00 00 00 00 00 00 00 00 
       00000456 00 00 00 00 00 00 00 00 00 00 
       00000460 00 00 00 00 00 00 00 00 00 00 
       0000046A 00 00 00 00 00 00 00 00 00 00 
       00000474 00 00 00 00 00 00 00 00 00 00 
       0000047E 00 00 00 00 00 00 00 00 00 00 
       00000488 00 00 00 00 00 00 00 00 00 00 
       00000492 00 00 00 00 00 00 00 00 00 00 
       0000049C 00 00 00 00 00 00 00 00 00 00 
       000004A6 00 00 00 00 00 00 00 00 00 00 
       000004B0 00 00 00 00 00 00 00 00 00 00 
       000004BA 00 00 00 00 00 00 00 00 00 00 
       000004C4 00 00 00 00 00 00 00 00 00 00 
       000004CE 00 00 00 00 00 00 00 00 00 00 
       000004D8 00 00 00 00 00 00 00 00 00 00 
       000004E2 00 00 00 00 00 00 00 00 00 00 
       000004EC 00 00 00 00 00 00 00 00 00 00 
       000004F6 00 00 00 00 00 00 00 00 00 00 
       00000500 00 00 00 00 00 00 00 00 00 00 
       0000050A 00 00 00 00 00 00 00 00 00 00 
       00000514 00 00 00 00 00 00 00 00 00 00 
       0000051E 00 00 00 00 00 00 00 00 00 00 
       00000528 00 00 00 00 00 00 00 00 00 00 
       00000532 00 00 00 00 00 00 00 00 00 00 
       0000053C 00 00 00 00 00 00 00 00 00 00 
       00000546 00 00 00 00 00 00 00 00 00 00 
       00000550 00 00 00 00 00 00 00 00 00 00 
       0000055A 00 00 00 00 00 00 00 00 00 00 
       00000564 00 00 00 00 00 00 00 00 00 00 
       0000056E 00 00 00 00 00 00 00 00 00 00 
       00000578 00 00 00 00 00 00 00 00 00 00 
       00000582 00 00 00 00 00 00 00 00 00 00 
       0000058C 00 00 00 00 00 00 00 00 00 00 
       00000596 00 00 00 00 00 00 00 00 00 00 
       000005A0 00 00 00 00 00 00 00 00 00 00 
       000005AA 00 00 00 00 00 00 00 00 00 00 
       000005B4 00 00 00 00 00 00 00 00 00 00 
       000005BE 00 00 00 00 00 00 00 00 00 00 
       000005C8 00 00 00 00 00 00 00 00 00 00 
       000005D2 00 00 00 00 00 00 00 00 00 00 
       000005DC 00 00 00 00 00 00 00 00 00 00 
       000005E6 00 00 00 00 00 00 00 00 00 00 
       000005F0 00 00 00 00 00 00 00 00 00 00 
       000005FA 00 00 00 00 00 00 00 00 00 00 
       00000604 00 00 00 00 00 00 00 00 00 00 
       0000060E 00 00 00 00 00 00 00 00 00 00 
       00000618 00 00 00 00 00 00 00 00 00 00 
       00000622 00 00 00 00 00 00 00 00 00 00 
       0000062C 00 00 00 00 00 00 00 00 00 00 
       00000636 00 00 00 00 00 00 00 00 00 00 
       00000640 00 00 00 00 00 00 00 00 00 00 
       0000064A 00 00 00 00 00 00 00 00 00 00 
       00000654 00 00 00 00 00 00 00 00 00 00 
       0000065E 00 00 00 00 00 00 00 00 00 00 
       00000668 00 00 00 00 00 00 00 00 00 00 
       00000672 00 00 00 00 00 00 00 00 00 00 
       0000067C 00 00 00 00 00 00 00 00 00 00 
       00000686 00 00 00 00 00 00 00 00 00 00 
       00000690 00 00 00 00 00 00 00 00 00 00 
       0000069A 00 00 00 00 00 00 00 00 00 00 
       000006A4 00 00 00 00 00 00 00 00 00 00 
       000006AE 00 00 00 00 00 00 00 00 00 00 
       000006B8 00 00 00 00 00 00 00 00 00 00 
       000006C2 00 00 00 00 00 00 00 00 00 00 
       000006CC 00 00 00 00 00 00 00 00 00 00 
       000006D6 00 00 00 00 00 00 00 00 00 00 
       000006E0 00 00 00 00 00 00 00 00 00 00 
       000006EA 00 00 00 00 00 00 00 00 00 00 
       000006F4 00 00 00 00 00 00 00 00 00 00 
       000006FE 00 00 00 00 00 00 00 00 00 00 
       00000708 00 00 00 00 00 00 00 00 00 00 
       00000712 00 00 00 00 00 00 00 00 00 00 
       0000071C 00 00 00 00 00 00 00 00 00 00 
       00000726 00 00 00 00 00 00 00 00 00 00 
       00000730 00 00 00 00 00 00 00 00 00 00 
       0000073A 00 00 00 00 00 00 00 00 00 00 
       00000744 00 00 00 00 00 00 00 00 00 00 
       0000074E 00 00 00 00 00 00 00 00 00 00 
       00000758 00 00 00 00 00 00 00 00 00 00 
       00000762 00 00 00 00 00 00 00 00 00 00 
       0000076C 00 00 00 00 00 00 00 00 00 00 
       00000776 00 00 00 00 00 00 00 00 00 00 
       00000780 00 00 00 00 00 00 00 00 00 00 
       0000078A 00 00 00 00 00 00 00 00 00 00 
       00000794 00 00 00 00 00 00 00 00 00 00 
       0000079E 00 00 00 00 00 00 00 00 00 00 
       000007A8 00 00 00 00 00 00 00 00 00 00 
       000007B2 00 00 00 00 00 00 00 00 00 00 
       000007BC 00 00 00 00 00 00 00 00 00 00 
       000007C6 00 00 00 00 00 00 00 00 00 00 
       000007D0 00 00 00 00 00 00 00 00 00 00 
       000007DA 00 00 00 00 00 00 00 00 00 00 
       000007E4 00 00 00 00 00 00 00 00 00 00 
       000007EE 00 00 00 00 00 00 00 00 00 00 
       000007F8 00 00 00 00 00 00 00 00 00 00 
       00000802 00 00 00 00 00 00 00 00 00 00 
       0000080C 00 00 00 00 00 00 00 00 00 00 
       00000816 00 00 00 00 00 00 00 00 00 00 
       00000820 00 00 00 00 00 00 00 00 00 00 
       0000082A 00 00 00 00 00 00 00 00 00 00 
       00000834 00 00 00 00 00 00 00 00 00 00 
       0000083E 00 00 00 00 00 00 00 00 00 00 
       00000848 00 00 00 00 00 00 00 00 00 00 
       00000852 00 00 00 00 00 00 00 00 00 00 
       0000085C 00 00 00 00 00 00 00 00 00 00 
       00000866 00 00 00 00 00 00 00 00 00 00 
       00000870 00 00 00 00 00 00 00 00 00 00 
       0000087A 00 00 00 00 00 00 00 00 00 00 
       00000884 00 00 00 00 00 00 00 00 00 00 
       0000088E 00 00 00 00 00 00 00 00 00 00 
       00000898 00 00 00 00 00 00 00 00 00 00 
       000008A2 00 00 00 00 00 00 00 00 00 00 
       000008AC 00 00 00 00 00 00 00 00 00 00 
       000008B6 00 00 00 00 00 00 00 00 00 00 
       000008C0 00 00 00 00 00 00 00 00 00 00 
       000008CA 00 00 00 00 00 00 00 00 00 00 
       000008D4 00 00 00 00 00 00 00 00 00 00 
       000008DE 00 00 00 00 00 00 00 00 00 00 
       000008E8 00 00 00 00 00 00 00 00 00 00 
       000008F2 00 00 00 00 00 00 00 00 00 00 
       000008FC 00 00 00 00 00 00 00 00 00 00 
       00000906 00 00 00 00 00 00 00 00 00 00 
       00000910 00 00 00 00 00 00 00 00 00 00 
       0000091A 00 00 00 00 00 00 00 00 00 00 
       00000924 00 00 00 00 00 00 00 00 00 00 
       0000092E 00 00 00 00 00 00 00 00 00 00 
       00000938 00 00 00 00 00 00 00 00 00 00 
       00000942 00 00 00 00 00 00 00 00 00 00 
       0000094C 00 00 00 00 00 00 00 00 00 00 
       00000956 00 00 00 00 00 00 00 00 00 00 
       00000960 00 00 00 00 00 00 00 00 00 00 
       0000096A 00 00 00 00 00 00 00 00 00 00 
       00000974 00 00 00 00 00 00 00 00 00 00 
       0000097E 00 00 00 00 00 00 00 00 00 00 
       00000988 00 00 00 00 00 00 00 00 00 00 
       00000992 00 00 00 00 00 00 00 00 00 00 
       0000099C 00 00 00 00 00 00 00 00 00 00 
       000009A6 00 00 00 00 00 00 00 00 00 00 
       000009B0 00 00 00 00 00 00 00 00 00 00 
       000009BA 00 00 00 00 00 00 00 00 00 00 
       000009C4 00 00 00 00 00 00 00 00 00 00 
       000009CE 00 00 00 00 00 00 00 00 00 00 
       000009D8 00 00 00 00 00 00 00 00 00 00 
       000009E2 00 00 00 00 00 00 00 00 00 00 
       000009EC 00 00 00 00 00 00 00 00 00 00 
       000009F6 00 00 00 00 00 00 00 00 00 00 
       00000A00 00 00 00 00 00 00 00 00 00 00 
       00000A0A 00 00 00 00 00 00 00 00 00 00 
       00000A14 00 00 00 00 00 00 00 00 00 00 
       00000A1E 00 00 00 00 00 00 00 00 00 00 
       00000A28 00 00 00 00 00 00 00 00 00 00 
       00000A32 00 00 00 00 00 00 00 00 00 00 
       00000A3C 00 00 00 00 00 00 00 00 00 00 
       00000A46 00 00 00 00 00 00 00 00 00 00 
       00000A50 00 00 00 00 00 00 00 00 00 00 
       00000A5A 00 00 00 00 00 00 00 00 00 00 
       00000A64 00 00 00 00 00 00 00 00 00 00 
       00000A6E 00 00 00 00 00 00 00 00 00 00 
       00000A78 00 00 00 00 00 00 00 00 00 00 
       00000A82 00 00 00 00 00 00 00 00 00 00 
       00000A8C 00 00 00 00 00 00 00 00 00 00 
       00000A96 00 00 00 00 00 00 00 00 00 00 
       00000AA0 00 00 00 00 00 00 00 00 00 00 
       00000AAA 00 00 00 00 00 00 00 00 00 00 
       00000AB4 00 00 00 00 00 00 00 00 00 00 
       00000ABE 00 00 00 00 00 00 00 00 00 00 
       00000AC8 00 00 00 00 00 00 00 00 00 00 
       00000AD2 00 00 00 00 00 00 00 00 00 00 
       00000ADC 00 00 00 00 00 00 00 00 00 00 
       00000AE6 00 00 00 00 00 00 00 00 00 00 
       00000AF0 00 00 00 00 00 00 00 00 00 00 
       00000AFA 00 00 00 00 00 00 00 00 00 00 
       00000B04 00 00 00 00 00 00 00 00 00 00 
       00000B0E 00 00 00 00 00 00 00 00 00 00 
       00000B18 00 00 00 00 00 00 00 00 00 00 
       00000B22 00 00 00 00 00 00 00 00 00 00 
       00000B2C 00 00 00 00 00 00 00 00 00 00 
       00000B36 00 00 00 00 00 00 00 00 00 00 
       00000B40 00 00 00 00 00 00 00 00 00 00 
       00000B4A 00 00 00 00 00 00 00 00 00 00 
       00000B54 00 00 00 00 00 00 00 00 00 00 
       00000B5E 00 00 00 00 00 00 00 00 00 00 
       00000B68 00 00 00 00 00 00 00 00 00 00 
       00000B72 00 00 00 00 00 00 00 00 00 00 
       00000B7C 00 00 00 00 00 00 00 00 00 00 
       00000B86 00 00 00 00 00 00 00 00 00 00 
       00000B90 00 00 00 00 00 00 00 00 00 00 
       00000B9A 00 00 00 00 00 00 00 00 00 00 
       00000BA4 00 00 00 00 00 00 00 00 00 00 
       00000BAE 00 00 00 00 00 00 00 00 00 00 
       00000BB8 00 00 00 00 00 00 00 00 00 00 
       00000BC2 00 00 00 00 00 00 00 00 00 00 
       00000BCC 00 00 00 00 00 00 00 00 00 00 
       00000BD6 00 00 00 00 00 00 00 00 00 00 
       00000BE0 00 00 00 00 00 00 00 00 00 00 
       00000BEA 00 00 00 00 00 00 00 00 00 00 
       00000BF4 00 00 00 00 00 00 00 00 00 00 
       00000BFE 00 00 00 00 00 00 00 00 00 00 
       00000C08 00 00 00 00 00 00 00 00 00 00 
       00000C12 00 00 00 00 00 00 00 00 00 00 
       00000C1C 00 00 00 00 00 00 00 00 00 00 
       00000C26 00 00 00 00 00 00 00 00 00 00 
       00000C30 00 00 00 00 00 00 00 00 00 00 
       00000C3A 00 00 00 00 00 00 00 00 00 00 
       00000C44 00 00 00 00 00 00 00 00 00 00 
       00000C4E 00 00 00 00 00 00 00 00 00 00 
       00000C58 00 00 00 00 00 00 00 00 00 00 
       00000C62 00 00 00 00 00 00 00 00 00 00 
       00000C6C 00 00 00 00 00 00 00 00 00 00 
       00000C76 00 00 00 00 00 00 00 00 00 00 
       00000C80 00 00 00 00 00 00 00 00 00 00 
       00000C8A 00 00 00 00 00 00 00 00 00 00 
       00000C94 00 00 00 00 00 00 00 00 00 00 
       00000C9E 00 00 00 00 00 00 00 00 00 00 
       00000CA8 00 00 00 00 00 00 00 00 00 00 
       00000CB2 00 00 00 00 00 00 00 00 00 00 
       00000CBC 00 00 00 00 00 00 00 00 00 00 
       00000CC6 00 00 00 00 00 00 00 00 00 00 
       00000CD0 00 00 00 00 00 00 00 00 00 00 
       00000CDA 00 00 00 00 00 00 00 00 00 00 
       00000CE4 00 00 00 00 00 00 00 00 00 00 
       00000CEE 00 00 00 00 00 00 00 00 00 00 
       00000CF8 00 00 00 00 00 00 00 00 00 00 
       00000D02 00 00 00 00 00 00 00 00 00 00 
       00000D0C 00 00 00 00 00 00 00 00 00 00 
       00000D16 00 00 00 00 00 00 00 00 00 00 
       00000D20 00 00 00 00 00 00 00 00 00 00 
       00000D2A 00 00 00 00 00 00 00 00 00 00 
       00000D34 00 00 00 00 00 00 00 00 00 00 
       00000D3E 00 00 00 00 00 00 00 00 00 00 
       00000D48 00 00 00 00 00 00 00 00 00 00 
       00000D52 00 00 00 00 00 00 00 00 00 00 
       00000D5C 00 00 00 00 00 00 00 00 00 00 
       00000D66 00 00 00 00 00 00 00 00 00 00 
       00000D70 00 00 00 00 00 00 00 00 00 00 
       00000D7A 00 00 00 00 00 00 00 00 00 00 
       00000D84 00 00 00 00 00 00 00 00 00 00 
       00000D8E 00 00 00 00 00 00 00 00 00 00 
       00000D98 00 00 00 00 00 00 00 00 00 00 
       00000DA2 00 00 00 00 00 00 00 00 00 00 
       00000DAC 00 00 00 00 00 00 00 00 00 00 
       00000DB6 00 00 00 00 00 00 00 00 00 00 
       00000DC0 00 00 00 00 00 00 00 00 00 00 
       00000DCA 00 00 00 00 00 00 00 00 00 00 
       00000DD4 00 00 00 00 00 00 00 00 00 00 
       00000DDE 00 00 00 00 00 00 00 00 00 00 
       00000DE8 00 00 00 00 00 00 00 00 00 00 
       00000DF2 00 00 00 00 00 00 00 00 00 00 
       00000DFC 00 00 00 00 00 00 00 00 00 00 
       00000E06 00 00 00 00 00 00 00 00 00 00 
       00000E10 00 00 00 00 00 00 00 00 00 00 
       00000E1A 00 00 00 00 00 00 00 00 00 00 
       00000E24 00 00 00 00 00 00 00 00 00 00 
       00000E2E 00 00 00 00 00 00 00 00 00 00 
       00000E38 00 00 00 00 00 00 00 00 00 00 
       00000E42 00 00 00 00 00 00 00 00 00 00 
       00000E4C 00 00 00 00 00 00 00 00 00 00 
       00000E56 00 00 00 00 00 00 00 00 00 00 
       00000E60 00 00 00 00 00 00 00 00 00 00 
       00000E6A 00 00 00 00 00 00 00 00 00 00 
       00000E74 00 00 00 00 00 00 00 00 00 00 
       00000E7E 00 00 00 00 00 00 00 00 00 00 
       00000E88 00 00 00 00 00 00 00 00 00 00 
       00000E92 00 00 00 00 00 00 00 00 00 00 
       00000E9C 00 00 00 00 00 00 00 00 00 00 
       00000EA6 00 00 00 00 00 00 00 00 00 00 
       00000EB0 00 00 00 00 00 00 00 00 00 00 
       00000EBA 00 00 00 00 00 00 00 00 00 00 
       00000EC4 00 00 00 00 00 00 00 00 00 00 
       00000ECE 00 00 00 00 00 00 00 00 00 00 
       00000ED8 00 00 00 00 00 00 00 00 00 00 
       00000EE2 00 00 00 00 00 00 00 00 00 00 
       00000EEC 00 00 00 00 00 00 00 00 00 00 
       00000EF6 00 00 00 00 00 00 00 00 00 00 
       00000F00 00 00 00 00 00 00 00 00 00 00 
       00000F0A 00 00 00 00 00 00 00 00 00 00 
       00000F14 00 00 00 00 00 00 00 00 00 00 
       00000F1E 00 00 00 00 00 00 00 00 00 00 
       00000F28 00 00 00 00 00 00 00 00 00 00 
       00000F32 00 00 00 00 00 00 00 00 00 00 
       00000F3C 00 00 00 00 00 00 00 00 00 00 
       00000F46 00 00 00 00 00 00 00 00 00 00 
       00000F50 00 00 00 00 00 00 00 00 00 00 
       00000F5A 00 00 00 00 00 00 00 00 00 00 
       00000F64 00 00 00 00 00 00 00 00 00 00 
       00000F6E 00 00 00 00 00 00 00 00 00 00 
       00000F78 00 00 00 00 00 00 00 00 00 00 
       00000F82 00 00 00 00 00 00 00 00 00 00 
       00000F8C 00 00 00 00 00 00 00 00 00 00 
       00000F96 00 00 00 00 00 00 00 00 00 00 
       00000FA0 00 00 00 00 00 00 00 00 00 00 
       00000FAA 00 00 00 00 00 00 00 00 00 00 
       00000FB4 00 00 00 00 00 00 00 00 00 00 
       00000FBE 00 00 00 00 00 00 00 00 00 00 
       00000FC8 00 00 00 00 00 00 00 00 00 00 
       00000FD2 00 00 00 00 00 00 00 00 00 00 
       00000FDC 00 00 00 00 00 00 00 00 00 00 
       00000FE6 00 00 00 00 00 00 00 00 00 00 
       00000FF0 00 00 00 00 00 00 00 00 00 00 
       00000FFA 00 00 00 00 00 00 00 00 00 00 
       00001004 00 00 00 00 00 00 00 00 00 00 
       0000100E 00 00 00 00 00 00 00 00 00 00 
       00001018 00 00 00 00 00 00 00 00 00 00 
       00001022 00 00 00 00 00 00 00 00 00 00 
       0000102C 00 00 00 00 00 00 00 00 00 00 
       00001036 00 00 00 00 00 00 00 00 00 00 
       00001040 00 00 00 00 00 00 00 00 00 00 
       0000104A 00 00 00 00 00 00 00 00 00 00 
       00001054 00 00 00 00 00 00 00 00 00 00 
       0000105E 00 00 00 00 00 00 00 00 00 00 
       00001068 00 00 00 00 00 00 00 00 00 00 
       00001072 00 00 00 00 00 00 00 00 00 00 
       0000107C 00 00 00 00 00 00 00 00 00 00 
       00001086 00 00 00 00 00 00 00 00 00 00 
       00001090 00 00 00 00 00 00 00 00 00 00 
       0000109A 00 00 00 00 00 00 00 00 00 00 
       000010A4 00 00 00 00 00 00 00 00 00 00 
       000010AE 00 00 00 00 00 00 00 00 00 00 
       000010B8 00 00 00 00 00 00 00 00 00 00 
       000010C2 00 00 00 00 00 00 00 00 00 00 
       000010CC 00 00 00 00 00 00 00 00 00 00 
       000010D6 00 00 00 00 00 00 00 00 00 00 
       000010E0 00 00 00 00 00 00 00 00 00 00 
       000010EA 00 00 00 00 00 00 00 00 00 00 
       000010F4 00 00 00 00 00 00 00 00 00 00 
       000010FE 00 00 00 00 00 00 00 00 00 00 
       00001108 00 00 00 00 00 00 00 00 00 00 
       00001112 00 00 00 00 00 00 00 00 00 00 
       0000111C 00 00 00 00 00 00 00 00 00 00 
       00001126 00 00 00 00 00 00 00 00 00 00 
       00001130 00 00 00 00 00 00 00 00 00 00 
       0000113A 00 00 00 00 00 00 00 00 00 00 
       00001144 00 00 00 00 00 00 00 00 00 00 
       0000114E 00 00 00 00 00 00 00 00 00 00 
       00001158 00 00 00 00 00 00 00 00 00 00 
       00001162 00 00 00 00 00 00 00 00 00 00 
       0000116C 00 00 00 00 00 00 00 00 00 00 
       00001176 00 00 00 00 00 00 00 00 00 00 
       00001180 00 00 00 00 00 00 00 00 00 00 
       0000118A 00 00 00 00 00 00 00 00 00 00 
       00001194 00 00 00 00 00 00 00 00 00 00 
       0000119E 00 00 00 00 00 00 00 00 00 00 
       000011A8 00 00 00 00 00 00 00 00 00 00 
       000011B2 00 00 00 00 00 00 00 00 00 00 
       000011BC 00 00 00 00 00 00 00 00 00 00 
       000011C6 00 00 00 00 00 00 00 00 00 00 
       000011D0 00 00 00 00 00 00 00 00 00 00 
       000011DA 00 00 00 00 00 00 00 00 00 00 
       000011E4 00 00 00 00 00 00 00 00 00 00 
       000011EE 00 00 00 00 00 00 00 00 00 00 
       000011F8 00 00 00 00 00 00 00 00 00 00 
       00001202 00 00 00 00 00 00 00 00 00 00 
       0000120C 00 00 00 00 00 00 00 00 00 00 
       00001216 00 00 00 00 00 00 00 00 00 00 
       00001220 00 00 00 00 00 00 00 00 00 00 
       0000122A 00 00 00 00 00 00 00 00 00 00 
       00001234 00 00 00 00 00 00 00 00 00 00 
       0000123E 00 00 00 00 00 00 00 00 00 00 
       00001248 00 00 00 00 00 00 00 00 00 00 
       00001252 00 00 00 00 00 00 00 00 00 00 
       0000125C 00 00 00 00 00 00 00 00 00 00 
       00001266 00 00 00 00 00 00 00 00 00 00 
       00001270 00 00 00 00 00 00 00 00 00 00 
       0000127A 00 00 00 00 00 00 00 00 00 00 
       00001284 00 00 00 00 00 00 00 00 00 00 
       0000128E 00 00 00 00 00 00 00 00 00 00 
       00001298 00 00 00 00 00 00 00 00 00 00 
       000012A2 00 00 00 00 00 00 00 00 00 00 
       000012AC 00 00 00 00 00 00 00 00 00 00 
       000012B6 00 00 00 00 00 00 00 00 00 00 
       000012C0 00 00 00 00 00 00 00 00 00 00 
       000012CA 00 00 00 00 00 00 00 00 00 00 
       000012D4 00 00 00 00 00 00 00 00 00 00 
       000012DE 00 00 00 00 00 00 00 00 00 00 
       000012E8 00 00 00 00 00 00 00 00 00 00 
       000012F2 00 00 00 00 00 00 00 00 00 00 
       000012FC 00 00 00 00 00 00 00 00 00 00 
       00001306 00 00 00 00 00 00 00 00 00 00 
       00001310 00 00 00 00 00 00 00 00 00 00 
       0000131A 00 00 00 00 00 00 00 00 00 00 
       00001324 00 00 00 00 00 00 00 00 00 00 
       0000132E 00 00 00 00 00 00 00 00 00 00 
       00001338 00 00 00 00 00 00 00 00 00 00 
       00001342 00 00 00 00 00 00 00 00 00 00 
       0000134C 00 00 00 00 00 00 00 00 00 00 
       00001356 00 00 00 00 00 00 00 00 00 00 
       00001360 00 00 00 00 00 00 00 00 00 00 
       0000136A 00 00 00 00 00 00 00 00 00 00 
       00001374 00 00 00 00 00 00 00 00 00 00 
       0000137E 00 00 00 00 00 00 00 00 00 00 
       00001388 00 00 00 00 00 00 00 00 00 00 
       00001392 00 00 00 00 00 00 00 00 00 00 
       0000139C 00 00 00 00 00 00 00 00 00 00 
       000013A6 00 00 00 00 00 00 00 00 00 00 
       000013B0 00 00 00 00 00 00 00 00 00 00 
       000013BA 00 00 00 00 00 00 00 00 00 00 
       000013C4 00 00 00 00 00 00 00 00 00 00 
       000013CE 00 00 00 00 00 00 00 00 00 00 
       000013D8 00 00 00 00 00 00 00 00 00 00 
       000013E2 00 00 00 00 00 00 00 00 00 00 
       000013EC 00 00 00 00 00 00 00 00 00 00 
       000013F6 00 00 00 00 00 00 00 00 00 00 
       00001400 00 00 00 00 00 00 00 00 00 00 
       0000140A 00 00 00 00 00 00 00 00 00 00 
       00001414 00 00 00 00 00 00 00 00 00 00 
       0000141E 00 00 00 00 00 00 00 00 00 00 
       00001428 00 00 00 00 00 00 00 00 00 00 
       00001432 00 00 00 00 00 00 00 00 00 00 
       0000143C 00 00 00 00 00 00 00 00 00 00 
       00001446 00 00 00 00 00 00 00 00 00 00 
       00001450 00 00 00 00 00 00 00 00 00 00 
       0000145A 00 00 00 00 00 00 00 00 00 00 
       00001464 00 00 00 00 00 00 00 00 00 00 
       0000146E 00 00 00 00 00 00 00 00 00 00 
       00001478 00 00 00 00 00 00 00 00 00 00 
       00001482 00 00 00 00 00 00 00 00 00 00 
       0000148C 00 00 00 00 00 00 00 00 00 00 
       00001496 00 00 00 00 00 00 00 00 00 00 
       000014A0 00 00 00 00 00 00 00 00 00 00 
       000014AA 00 00 00 00 00 00 00 00 00 00 
       000014B4 00 00 00 00 00 00 00 00 00 00 
       000014BE 00 00 00 00 00 00 00 00 00 00 
       000014C8 00 00 00 00 00 00 00 00 00 00 
       000014D2 00 00 00 00 00 00 00 00 00 00 
       000014DC 00 00 00 00 00 00 00 00 00 00 
       000014E6 00 00 00 00 00 00 00 00 00 00 
       000014F0 00 00 00 00 00 00 00 00 00 00 
       000014FA 00 00 00 00 00 00 00 00 00 00 
       00001504 00 00 00 00 00 00 00 00 00 00 
       0000150E 00 00 00 00 00 00 00 00 00 00 
       00001518 00 00 00 00 00 00 00 00 00 00 
       00001522 00 00 00 00 00 00 00 00 00 00 
       0000152C 00 00 00 00 00 00 00 00 00 00 
       00001536 00 00 00 00 00 00 00 00 00 00 
       00001540 00 00 00 00 00 00 00 00 00 00 
       0000154A 00 00 00 00 00 00 00 00 00 00 
       00001554 00 00 00 00 00 00 00 00 00 00 
       0000155E 00 00 00 00 00 00 00 00 00 00 
       00001568 00 00 00 00 00 00 00 00 00 00 
       00001572 00 00 00 00 00 00 00 00 00 00 
       0000157C 00 00 00 00 00 00 00 00 00 00 
       00001586 00 00 00 00 00 00 00 00 00 00 
       00001590 00 00 00 00 00 00 00 00 00 00 
       0000159A 00 00 00 00 00 00 00 00 00 00 
       000015A4 00 00 00 00 00 00 00 00 00 00 
       000015AE 00 00 00 00 00 00 00 00 00 00 
       000015B8 00 00 00 00 00 00 00 00 00 00 
       000015C2 00 00 00 00 00 00 00 00 00 00 
       000015CC 00 00 00 00 00 00 00 00 00 00 
       000015D6 00 00 00 00 00 00 00 00 00 00 
       000015E0 00 00 00 00 00 00 00 00 00 00 
       000015EA 00 00 00 00 00 00 00 00 00 00 
       000015F4 00 00 00 00 00 00 00 00 00 00 
       000015FE 00 00 00 00 00 00 00 00 00 00 
       00001608 00 00 00 00 00 00 00 00 00 00 
       00001612 00 00 00 00 00 00 00 00 00 00 
       0000161C 00 00 00 00 00 00 00 00 00 00 
       00001626 00 00 00 00 00 00 00 00 00 00 
       00001630 00 00 00 00 00 00 00 00 00 00 
       0000163A 00 00 00 00 00 00 00 00 00 00 
       00001644 00 00 00 00 00 00 00 00 00 00 
       0000164E 00 00 00 00 00 00 00 00 00 00 
       00001658 00 00 00 00 00 00 00 00 00 00 
       00001662 00 00 00 00 00 00 00 00 00 00 
       0000166C 00 00 00 00 00 00 00 00 00 00 
       00001676 00 00 00 00 00 00 00 00 00 00 
       00001680 00 00 00 00 00 00 00 00 00 00 
       0000168A 00 00 00 00 00 00 00 00 00 00 
       00001694 00 00 00 00 00 00 00 00 00 00 
       0000169E 00 00 00 00 00 00 00 00 00 00 
       000016A8 00 00 00 00 00 00 00 00 00 00 
       000016B2 00 00 00 00 00 00 00 00 00 00 
       000016BC 00 00 00 00 00 00 00 00 00 00 
       000016C6 00 00 00 00 00 00 00 00 00 00 
       000016D0 00 00 00 00 00 00 00 00 00 00 
       000016DA 00 00 00 00 00 00 00 00 00 00 
       000016E4 00 00 00 00 00 00 00 00 00 00 
       000016EE 00 00 00 00 00 00 00 00 00 00 
       000016F8 00 00 00 00 00 00 00 00 00 00 
       00001702 00 00 00 00 00 00 00 00 00 00 
       0000170C 00 00 00 00 00 00 00 00 00 00 
       00001716 00 00 00 00 00 00 00 00 00 00 
       00001720 00 00 00 00 00 00 00 00 00 00 
       0000172A 00 00 00 00 00 00 00 00 00 00 
       00001734 00 00 00 00 00 00 00 00 00 00 
       0000173E 00 00 00 00 00 00 00 00 00 00 
       00001748 00 00 00 00 00 00 00 00 00 00 
       00001752 00 00 00 00 00 00 00 00 00 00 
       0000175C 00 00 00 00 00 00 00 00 00 00 
       00001766 00 00 00 00 00 00 00 00 00 00 
       00001770 00 00 00 00 00 00 00 00 00 00 
       0000177A 00 00 00 00 00 00 00 00 00 00 
       00001784 00 00 00 00 00 00 00 00 00 00 
       0000178E 00 00 00 00 00 00 00 00 00 00 
       00001798 00 00 00 00 00 00 00 00 00 00 
       000017A2 00 00 00 00 00 00 00 00 00 00 
       000017AC 00 00 00 00 00 00 00 00 00 00 
       000017B6 00 00 00 00 00 00 00 00 00 00 
       000017C0 00 00 00 00 00 00 00 00 00 00 
       000017CA 00 00 00 00 00 00 00 00 00 00 
       000017D4 00 00 00 00 00 00 00 00 00 00 
       000017DE 00 00 00 00 00 00 00 00 00 00 
       000017E8 00 00 00 00 00 00 00 00 00 00 
       000017F2 00 00 00 00 00 00 00 00 00 00 
       000017FC 00 00 00 00 00 00 00 00 00 00 
       00001806 00 00 00 00 00 00 00 00 00 00 
       00001810 00 00 00 00 00 00 00 00 00 00 
       0000181A 00 00 00 00 00 00 00 00 00 00 
       00001824 00 00 00 00 00 00 00 00 00 00 
       0000182E 00 00 00 00 00 00 00 00 00 00 
       00001838 00 00 00 00 00 00 00 00 00 00 
       00001842 00 00 00 00 00 00 00 00 00 00 
       0000184C 00 00 00 00 00 00 00 00 00 00 
       00001856 00 00 00 00 00 00 00 00 00 00 
       00001860 00 00 00 00 00 00 00 00 00 00 
       0000186A 00 00 00 00 00 00 00 00 00 00 
       00001874 00 00 00 00 00 00 00 00 00 00 
       0000187E 00 00 00 00 00 00 00 00 00 00 
       00001888 00 00 00 00 00 00 00 00 00 00 
       00001892 00 00 00 00 00 00 00 00 00 00 
       0000189C 00 00 00 00 00 00 00 00 00 00 
       000018A6 00 00 00 00 00 00 00 00 00 00 
       000018B0 00 00 00 00 00 00 00 00 00 00 
       000018BA 00 00 00 00 00 00 00 00 00 00 
       000018C4 00 00 00 00 00 00 00 00 00 00 
       000018CE 00 00 00 00 00 00 00 00 00 00 
       000018D8 00 00 00 00 00 00 00 00 00 00 
       000018E2 00 00 00 00 00 00 00 00 00 00 
       000018EC 00 00 00 00 00 00 00 00 00 00 
       000018F6 00 00 00 00 00 00 00 00 00 00 
       00001900 00 00 00 00 00 00 00 00 00 00 
       0000190A 00 00 00 00 00 00 00 00 00 00 
       00001914 00 00 00 00 00 00 00 00 00 00 
       0000191E 00 00 00 00 00 00 00 00 00 00 
       00001928 00 00 00 00 00 00 00 00 00 00 
       00001932 00 00 00 00 00 00 00 00 00 00 
       0000193C 00 00 00 00 00 00 00 00 00 00 
       00001946 00 00 00 00 00 00 00 00 00 00 
       00001950 00 00 00 00 00 00 00 00 00 00 
       0000195A 00 00 00 00 00 00 00 00 00 00 
       00001964 00 00 00 00 00 00 00 00 00 00 
       0000196E 00 00 00 00 00 00 00 00 00 00 
       00001978 00 00 00 00 00 00 00 00 00 00 
       00001982 00 00 00 00 00 00 00 00 00 00 
       0000198C 00 00 00 00 00 00 00 00 00 00 
       00001996 00 00 00 00 00 00 00 00 00 00 
       000019A0 00 00 00 00 00 00 00 00 00 00 
       000019AA 00 00 00 00 00 00 00 00 00 00 
       000019B4 00 00 00 00 00 00 00 00 00 00 
       000019BE 00 00 00 00 00 00 00 00 00 00 
       000019C8 00 00 00 00 00 00 00 00 00 00 
       000019D2 00 00 00 00 00 00 00 00 00 00 
       000019DC 00 00 00 00 00 00 00 00 00 00 
       000019E6 00 00 00 00 00 00 00 00 00 00 
       000019F0 00 00 00 00 00 00 00 00 00 00 
       000019FA 00 00 00 00 00 00 00 00 00 00 
       00001A04 00 00 00 00 00 00 00 00 00 00 
       00001A0E 00 00 00 00 00 00 00 00 00 00 
       00001A18 00 00 00 00 00 00 00 00 00 00 
       00001A22 00 00 00 00 00 00 00 00 00 00 
       00001A2C 00 00 00 00 00 00 00 00 00 00 
       00001A36 00 00 00 00 00 00 00 00 00 00 
       00001A40 00 00 00 00 00 00 00 00 00 00 
       00001A4A 00 00 00 00 00 00 00 00 00 00 
       00001A54 00 00 00 00 00 00 00 00 00 00 
       00001A5E 00 00 00 00 00 00 00 00 00 00 
       00001A68 00 00 00 00 00 00 00 00 00 00 
       00001A72 00 00 00 00 00 00 00 00 00 00 
       00001A7C 00 00 00 00 00 00 00 00 00 00 
       00001A86 00 00 00 00 00 00 00 00 00 00 
       00001A90 00 00 00 00 00 00 00 00 00 00 
       00001A9A 00 00 00 00 00 00 00 00 00 00 
       00001AA4 00 00 00 00 00 00 00 00 00 00 
       00001AAE 00 00 00 00 00 00 00 00 00 00 
       00001AB8 00 00 00 00 00 00 00 00 00 00 
       00001AC2 00 00 00 00 00 00 00 00 00 00 
       00001ACC 00 00 00 00 00 00 00 00 00 00 
       00001AD6 00 00 00 00 00 00 00 00 00 00 
       00001AE0 00 00 00 00 00 00 00 00 00 00 
       00001AEA 00 00 00 00 00 00 00 00 00 00 
       00001AF4 00 00 00 00 00 00 00 00 00 00 
       00001AFE 00 00 00 00 00 00 00 00 00 00 
       00001B08 00 00 00 00 00 00 00 00 00 00 
       00001B12 00 00 00 00 00 00 00 00 00 00 
       00001B1C 00 00 00 00 00 00 00 00 00 00 
       00001B26 00 00 00 00 00 00 00 00 00 00 
       00001B30 00 00 00 00 00 00 00 00 00 00 
       00001B3A 00 00 00 00 00 00 00 00 00 00 
       00001B44 00 00 00 00 00 00 00 00 00 00 
       00001B4E 00 00 00 00 00 00 00 00 00 00 
       00001B58 00 00 00 00 00 00 00 00 00 00 
       00001B62 00 00 00 00 00 00 00 00 00 00 
       00001B6C 00 00 00 00 00 00 00 00 00 00 
       00001B76 00 00 00 00 00 00 00 00 00 00 
       00001B80 00 00 00 00 00 00 00 00 00 00 
       00001B8A 00 00 00 00 00 00 00 00 00 00 
       00001B94 00 00 00 00 00 00 00 00 00 00 
       00001B9E 00 00 00 00 00 00 00 00 00 00 
       00001BA8 00 00 00 00 00 00 00 00 00 00 
       00001BB2 00 00 00 00 00 00 00 00 00 00 
       00001BBC 00 00 00 00 00 00 00 00 00 00 
       00001BC6 00 00 00 00 00 00 00 00 00 00 
       00001BD0 00 00 00 00 00 00 00 00 00 00 
       00001BDA 00 00 00 00 00 00 00 00 00 00 
       00001BE4 00 00 00 00 00 00 00 00 00 00 
       00001BEE 00 00 00 00 00 00 00 00 00 00 
       00001BF8 00 00 00 00 00 00 00 00 00 00 
       00001C02 00 00 00 00 00 00 00 00 00 00 
       00001C0C 00 00 00 00 00 00 00 00 00 00 
       00001C16 00 00 00 00 00 00 00 00 00 00 
       00001C20 00 00 00 00 00 00 00 00 00 00 
       00001C2A 00 00 00 00 00 00 00 00 00 00 
       00001C34 00 00 00 00 00 00 00 00 00 00 
       00001C3E 00 00 00 00 00 00 00 00 00 00 
       00001C48 00 00 00 00 00 00 00 00 00 00 
       00001C52 00 00 00 00 00 00 00 00 00 00 
       00001C5C 00 00 00 00 00 00 00 00 00 00 
       00001C66 00 00 00 00 00 00 00 00 00 00 
       00001C70 00 00 00 00 00 00 00 00 00 00 
       00001C7A 00 00 00 00 00 00 00 00 00 00 
       00001C84 00 00 00 00 00 00 00 00 00 00 
       00001C8E 00 00 00 00 00 00 00 00 00 00 
       00001C98 00 00 00 00 00 00 00 00 00 00 
       00001CA2 00 00 00 00 00 00 00 00 00 00 
       00001CAC 00 00 00 00 00 00 00 00 00 00 
       00001CB6 00 00 00 00 00 00 00 00 00 00 
       00001CC0 00 00 00 00 00 00 00 00 00 00 
       00001CCA 00 00 00 00 00 00 00 00 00 00 
       00001CD4 00 00 00 00 00 00 00 00 00 00 
       00001CDE 00 00 00 00 00 00 00 00 00 00 
       00001CE8 00 00 00 00 00 00 00 00 00 00 
       00001CF2 00 00 00 00 00 00 00 00 00 00 
       00001CFC 00 00 00 00 00 00 00 00 00 00 
       00001D06 00 00 00 00 00 00 00 00 00 00 
       00001D10 00 00 00 00 00 00 00 00 00 00 
       00001D1A 00 00 00 00 00 00 00 00 00 00 
       00001D24 00 00 00 00 00 00 00 00 00 00 
       00001D2E 00 00 00 00 00 00 00 00 00 00 
       00001D38 00 00 00 00 00 00 00 00 00 00 
       00001D42 00 00 00 00 00 00 00 00 00 00 
       00001D4C 00 00 00 00 00 00 00 00 00 00 
       00001D56 00 00 00 00 00 00 00 00 00 00 
       00001D60 00 00 00 00 00 00 00 00 00 00 
       00001D6A 00 00 00 00 00 00 00 00 00 00 
       00001D74 00 00 00 00 00 00 00 00 00 00 
       00001D7E 00 00 00 00 00 00 00 00 00 00 
       00001D88 00 00 00 00 00 00 00 00 00 00 
       00001D92 00 00 00 00 00 00 00 00 00 00 
       00001D9C 00 00 00 00 00 00 00 00 00 00 
       00001DA6 00 00 00 00 00 00 00 00 00 00 
       00001DB0 00 00 00 00 00 00 00 00 00 00 
       00001DBA 00 00 00 00 00 00 00 00 00 00 
       00001DC4 00 00 00 00 00 00 00 00 00 00 
       00001DCE 00 00 00 00 00 00 00 00 00 00 
       00001DD8 00 00 00 00 00 00 00 00 00 00 
       00001DE2 00 00 00 00 00 00 00 00 00 00 
       00001DEC 00 00 00 00 00 00 00 00 00 00 
       00001DF6 00 00 00 00 00 00 00 00 00 00 
       00001E00 00 00 00 00 00 00 00 00 00 00 
       00001E0A 00 00 00 00 00 00 00 00 00 00 
       00001E14 00 00 00 00 00 00 00 00 00 00 
       00001E1E 00 00 00 00 00 00 00 00 00 00 
       00001E28 00 00 00 00 00 00 00 00 00 00 
       00001E32 00 00 00 00 00 00 00 00 00 00 
       00001E3C 00 00 00 00 00 00 00 00 00 00 
       00001E46 00 00 00 00 00 00 00 00 00 00 
       00001E50 00 00 00 00 00 00 00 00 00 00 
       00001E5A 00 00 00 00 00 00 00 00 00 00 
       00001E64 00 00 00 00 00 00 00 00 00 00 
       00001E6E 00 00 00 00 00 00 00 00 00 00 
       00001E78 00 00 00 00 00 00 00 00 00 00 
       00001E82 00 00 00 00 00 00 00 00 00 00 
       00001E8C 00 00 00 00 00 00 00 00 00 00 
       00001E96 00 00 00 00 00 00 00 00 00 00 
       00001EA0 00 00 00 00 00 00 00 00 00 00 
       00001EAA 00 00 00 00 00 00 00 00 00 00 
       00001EB4 00 00 00 00 00 00 00 00 00 00 
       00001EBE 00 00 00 00 00 00 00 00 00 00 
       00001EC8 00 00 00 00 00 00 00 00 00 00 
       00001ED2 00 00 00 00 00 00 00 00 00 00 
       00001EDC 00 00 00 00 00 00 00 00 00 00 
       00001EE6 00 00 00 00 00 00 00 00 00 00 
       00001EF0 00 00 00 00 00 00 00 00 00 00 
       00001EFA 00 00 00 00 00 00 00 00 00 00 
       00001F04 00 00 00 00 00 00 00 00 00 00 
       00001F0E 00 00 00 00 00 00 00 00 00 00 
       00001F18 00 00 00 00 00 00 00 00 00 00 
       00001F22 00 00 00 00 00 00 00 00 00 00 
       00001F2C 00 00 00 00 00 00 00 00 00 00 
       00001F36 00 00 00 00 00 00 00 00 00 00 
       00001F40 00 00 00 00 00 00 00 00 00 00 
       00001F4A 00 00 00 00 00 00 00 00 00 00 
       00001F54 00 00 00 00 00 00 00 00 00 00 
       00001F5E 00 00 00 00 00 00 00 00 00 00 
       00001F68 00 00 00 00 00 00 00 00 00 00 
       00001F72 00 00 00 00 00 00 00 00 00 00 
       00001F7C 00 00 00 00 00 00 00 00 00 00 
       00001F86 00 00 00 00 00 00 00 00 00 00 
       00001F90 00 00 00 00 00 00 00 00 00 00 
       00001F9A 00 00 00 00 00 00 00 00 00 00 
       00001FA4 00 00 00 00 00 00 00 00 00 00 
       00001FAE 00 00 00 00 00 00 00 00 00 00 
       00001FB8 00 00 00 00 00 00 00 00 00 00 
       00001FC2 00 00 00 00 00 00 00 00 00 00 
       00001FCC 00 00 00 00 00 00 00 00 00 00 
       00001FD6 00 00 00 00 00 00 00 00 00 00 
       00001FE0 00 00 00 00 00 00 00 00 00 00 
       00001FEA 00 00 00 00 00 00 00 00 00 00 
       00001FF4 00 00 00 00 00 00 00 00 00 00 
       00001FFE 00 00 00 00 00 00 00 00 00 00 
       00002008 00 00 00 00 00 00 00 00 00 00 
       00002012 00 00 00 00 00 00 00 00 00 00 
       0000201C 00 00 00 00 00 00 00 00 00 00 
       00002026 00 00 00 00 00 00 00 00 00 00 
       00002030 00 00 00 00 00 00 00 00 00 00 
       0000203A 00 00 00 00 00 00 00 00 00 00 
       00002044 00 00 00 00 00 00 00 00 00 00 
       0000204E 00 00 00 00 00 00 00 00 00 00 
       00002058 00 00 00 00 00 00 00 00 00 00 
       00002062 00 00 00 00 00 00 00 00 00 00 
       0000206C 00 00 00 00 00 00 00 00 00 00 
       00002076 00 00 00 00 00 00 00 00 00 00 
       00002080 00 00 00 00 00 00 00 00 00 00 
       0000208A 00 00 00 00 00 00 00 00 00 00 
       00002094 00 00 00 00 00 00 00 00 00 00 
       0000209E 00 00 00 00 00 00 00 00 00 00 
       000020A8 00 00 00 00 00 00 00 00 00 00 
       000020B2 00 00 00 00 00 00 00 00 00 00 
       000020BC 00 00 00 00 00 00 00 00 00 00 
       000020C6 00 00 00 00 00 00 00 00 00 00 
       000020D0 00 00 00 00 00 00 00 00 00 00 
       000020DA 00 00 00 00 00 00 00 00 00 00 
       000020E4 00 00 00 00 00 00 00 00 00 00 
       000020EE 00 00 00 00 00 00 00 00 00 00 
       000020F8 00 00 00 00 00 00 00 00 00 00 
       00002102 00 00 00 00 00 00 00 00 00 00 
       0000210C 00 00 00 00 00 00 00 00 00 00 
       00002116 00 00 00 00 00 00 00 00 00 00 
       00002120 00 00 00 00 00 00 00 00 00 00 
       0000212A 00 00 00 00 00 00 00 00 00 00 
       00002134 00 00 00 00 00 00 00 00 00 00 
       0000213E 00 00 00 00 00 00 00 00 00 00 
       00002148 00 00 00 00 00 00 00 00 00 00 
       00002152 00 00 00 00 00 00 00 00 00 00 
       0000215C 00 00 00 00 00 00 00 00 00 00 
       00002166 00 00 00 00 00 00 00 00 00 00 
       00002170 00 00 00 00 00 00 00 00 00 00 
       0000217A 00 00 00 00 00 00 00 00 00 00 
       00002184 00 00 00 00 00 00 00 00 00 00 
       0000218E 00 00 00 00 00 00 00 00 00 00 
       00002198 00 00 00 00 00 00 00 00 00 00 
       000021A2 00 00 00 00 00 00 00 00 00 00 
       000021AC 00 00 00 00 00 00 00 00 00 00 
       000021B6 00 00 00 00 00 00 00 00 00 00 
       000021C0 00 00 00 00 00 00 00 00 00 00 
       000021CA 00 00 00 00 00 00 00 00 00 00 
       000021D4 00 00 00 00 00 00 00 00 00 00 
       000021DE 00 00 00 00 00 00 00 00 00 00 
       000021E8 00 00 00 00 00 00 00 00 00 00 
       000021F2 00 00 00 00 00 00 00 00 00 00 
       000021FC 00 00 00 00 00 00 00 00 00 00 
       00002206 00 00 00 00 00 00 00 00 00 00 
       00002210 00 00 00 00 00 00 00 00 00 00 
       0000221A 00 00 00 00 00 00 00 00 00 00 
       00002224 00 00 00 00 00 00 00 00 00 00 
       0000222E 00 00 00 00 00 00 00 00 00 00 
       00002238 00 00 00 00 00 00 00 00 00 00 
       00002242 00 00 00 00 00 00 00 00 00 00 
       0000224C 00 00 00 00 00 00 00 00 00 00 
       00002256 00 00 00 00 00 00 00 00 00 00 
       00002260 00 00 00 00 00 00 00 00 00 00 
       0000226A 00 00 00 00 00 00 00 00 00 00 
       00002274 00 00 00 00 00 00 00 00 00 00 
       0000227E 00 00 00 00 00 00 00 00 00 00 
       00002288 00 00 00 00 00 00 00 00 00 00 
       00002292 00 00 00 00 00 00 00 00 00 00 
       0000229C 00 00 00 00 00 00 00 00 00 00 
       000022A6 00 00 00 00 00 00 00 00 00 00 
       000022B0 00 00 00 00 00 00 00 00 00 00 
       000022BA 00 00 00 00 00 00 00 00 00 00 
       000022C4 00 00 00 00 00 00 00 00 00 00 
       000022CE 00 00 00 00 00 00 00 00 00 00 
       000022D8 00 00 00 00 00 00 00 00 00 00 
       000022E2 00 00 00 00 00 00 00 00 00 00 
       000022EC 00 00 00 00 00 00 00 00 00 00 
       000022F6 00 00 00 00 00 00 00 00 00 00 
       00002300 00 00 00 00 00 00 00 00 00 00 
       0000230A 00 00 00 00 00 00 00 00 00 00 
       00002314 00 00 00 00 00 00 00 00 00 00 
       0000231E 00 00 00 00 00 00 00 00 00 00 
       00002328 00 00 00 00 00 00 00 00 00 00 
       00002332 00 00 00 00 00 00 00 00 00 00 
       0000233C 00 00 00 00 00 00 00 00 00 00 
       00002346 00 00 00 00 00 00 00 00 00 00 
       00002350 00 00 00 00 00 00 00 00 00 00 
       0000235A 00 00 00 00 00 00 00 00 00 00 
       00002364 00 00 00 00 00 00 00 00 00 00 
       0000236E 00 00 00 00 00 00 00 00 00 00 
       00002378 00 00 00 00 00 00 00 00 00 00 
       00002382 00 00 00 00 00 00 00 00 00 00 
       0000238C 00 00 00 00 00 00 00 00 00 00 
       00002396 00 00 00 00 00 00 00 00 00 00 
       000023A0 00 00 00 00 00 00 00 00 00 00 
       000023AA 00 00 00 00 00 00 00 00 00 00 
       000023B4 00 00 00 00 00 00 00 00 00 00 
       000023BE 00 00 00 00 00 00 00 00 00 00 
       000023C8 00 00 00 00 00 00 00 00 00 00 
       000023D2 00 00 00 00 00 00 00 00 00 00 
       000023DC 00 00 00 00 00 00 00 00 00 00 
       000023E6 00 00 00 00 00 00 00 00 00 00 
       000023F0 00 00 00 00 00 00 00 00 00 00 
       000023FA 00 00 00 00 00 00 00 00 00 00 
       00002404 00 00 00 00 00 00 00 00 00 00 
       0000240E 00 00 00 00 00 00 00 00 00 00 
       00002418 00 00 00 00 00 00 00 00 00 00 
       00002422 00 00 00 00 00 00 00 00 00 00 
       0000242C 00 00 00 00 00 00 00 00 00 00 
       00002436 00 00 00 00 00 00 00 00 00 00 
       00002440 00 00 00 00 00 00 00 00 00 00 
       0000244A 00 00 00 00 00 00 00 00 00 00 
       00002454 00 00 00 00 00 00 00 00 00 00 
       0000245E 00 00 00 00 00 00 00 00 00 00 
       00002468 00 00 00 00 00 00 00 00 00 00 
       00002472 00 00 00 00 00 00 00 00 00 00 
       0000247C 00 00 00 00 00 00 00 00 00 00 
       00002486 00 00 00 00 00 00 00 00 00 00 
       00002490 00 00 00 00 00 00 00 00 00 00 
       0000249A 00 00 00 00 00 00 00 00 00 00 
       000024A4 00 00 00 00 00 00 00 00 00 00 
       000024AE 00 00 00 00 00 00 00 00 00 00 
       000024B8 00 00 00 00 00 00 00 00 00 00 
       000024C2 00 00 00 00 00 00 00 00 00 00 
       000024CC 00 00 00 00 00 00 00 00 00 00 
       000024D6 00 00 00 00 00 00 00 00 00 00 
       000024E0 00 00 00 00 00 00 00 00 00 00 
       000024EA 00 00 00 00 00 00 00 00 00 00 
       000024F4 00 00 00 00 00 00 00 00 00 00 
       000024FE 00 00 00 00 00 00 00 00 00 00 
       00002508 00 00 00 00 00 00 00 00 00 00 
       00002512 00 00 00 00 00 00 00 00 00 00 
       0000251C 00 00 00 00 00 00 00 00 00 00 
       00002526 00 00 00 00 00 00 00 00 00 00 
       00002530 00 00 00 00 00 00 00 00 00 00 
       0000253A 00 00 00 00 00 00 00 00 00 00 
       00002544 00 00 00 00 00 00 00 00 00 00 
       0000254E 00 00 00 00 00 00 00 00 00 00 
       00002558 00 00 00 00 00 00 00 00 00 00 
       00002562 00 00 00 00 00 00 00 00 00 00 
       0000256C 00 00 00 00 00 00 00 00 00 00 
       00002576 00 00 00 00 00 00 00 00 00 00 
       00002580 00 00 00 00 00 00 00 00 00 00 
       0000258A 00 00 00 00 00 00 00 00 00 00 
       00002594 00 00 00 00 00 00 00 00 00 00 
       0000259E 00 00 00 00 00 00 00 00 00 00 
       000025A8 00 00 00 00 00 00 00 00 00 00 
       000025B2 00 00 00 00 00 00 00 00 00 00 
       000025BC 00 00 00 00 00 00 00 00 00 00 
       000025C6 00 00 00 00 00 00 00 00 00 00 
       000025D0 00 00 00 00 00 00 00 00 00 00 
       000025DA 00 00 00 00 00 00 00 00 00 00 
       000025E4 00 00 00 00 00 00 00 00 00 00 
       000025EE 00 00 00 00 00 00 00 00 00 00 
       000025F8 00 00 00 00 00 00 00 00 00 00 
       00002602 00 00 00 00 00 00 00 00 00 00 
       0000260C 00 00 00 00 00 00 00 00 00 00 
       00002616 00 00 00 00 00 00 00 00 00 00 
       00002620 00 00 00 00 00 00 00 00 00 00 
       0000262A 00 00 00 00 00 00 00 00 00 00 
       00002634 00 00 00 00 00 00 00 00 00 00 
       0000263E 00 00 00 00 00 00 00 00 00 00 
       00002648 00 00 00 00 00 00 00 00 00 00 
       00002652 00 00 00 00 00 00 00 00 00 00 
       0000265C 00 00 00 00 00 00 00 00 00 00 
       00002666 00 00 00 00 00 00 00 00 00 00 
       00002670 00 00 00 00 00 00 00 00 00 00 
       0000267A 00 00 00 00 00 00 00 00 00 00 
       00002684 00 00 00 00 00 00 00 00 00 00 
       0000268E 00 00 00 00 00 00 00 00 00 00 
       00002698 00 00 00 00 00 00 00 00 00 00 
       000026A2 00 00 00 00 00 00 00 00 00 00 
       000026AC 00 00 00 00 00 00 00 00 00 00 
       000026B6 00 00 00 00 00 00 00 00 00 00 
       000026C0 00 00 00 00 00 00 00 00 00 00 
       000026CA 00 00 00 00 00 00 00 00 00 00 
       000026D4 00 00 00 00 00 00 00 00 00 00 
       000026DE 00 00 00 00 00 00 00 00 00 00 
       000026E8 00 00 00 00 00 00 00 00 00 00 
       000026F2 00 00 00 00 00 00 00 00 00 00 
       000026FC 00 00 00 00 00 00 00 00 00 00 
       00002706 00 00 00 00 00 00 00 00 00 00 
       00002710 00 00 00 00 00 00 00 00 00 00 
       0000271A 00 00 00 00 00 00 00 00 00 00 
       00002724 00 00 00 00 00 00 00 00 00 00 
       0000272E 00 00 00 00 00 00 00 00 00 00 
       00002738 00 00 00 00 00 00 00 00 00 00 
       00002742 00 00 00 00 00 00 00 00 00 00 
       0000274C 00 00 00 00 00 00 00 00 00 00 
       00002756 00 00 00 00 00 00 00 00 00 00 
       00002760 00 00 00 00 00 00 00 00 00 00 
       0000276A 00 00 00 00 00 00 00 00 00 00 
       00002774 00 00 00 00 00 00 00 00 00 00 
       0000277E 00 00 00 00 00 00 00 00 00 00 
       00002788 00 00 00 00 00 00 00 00 00 00 
       00002792 00 00 00 00 00 00 00 00 00 00 
       0000279C 00 00 00 00 00 00 00 00 00 00 
       000027A6 00 00 00 00 00 00 00 00 00 00 
       000027B0 00 00 00 00 00 00 00 00 00 00 
       000027BA 00 00 00 00 00 00 00 00 00 00 
       000027C4 00 00 00 00 00 00 00 00 00 00 
       000027CE 00 00 00 00 00 00 00 00 00 00 
       000027D8 00 00 00 00 00 00 00 00 00 00 
       000027E2 00 00 00 00 00 00 00 00 00 00 
       000027EC 00 00 00 00 00 00 00 00 00 00 
       000027F6 00 00 00 00 00 00 00 00 00 00 
       00002800 00 00 00 00 00 00 00 00 00 00 
       0000280A 00 00 00 00 00 00 00 00 00 00 
       00002814 00 00 00 00 00 00 00 00 00 00 
       0000281E 00 00 00 00 00 00 00 00 00 00 
       00002828 00 00 00 00 00 00 00 00 00 00 
       00002832 00 00 00 00 00 00 00 00 00 00 
       0000283C 00 00 00 00 00 00 00 00 00 00 
       00002846 00 00 00 00 00 00 00 00 00 00 
       00002850 00 00 00 00 00 00 00 00 00 00 
       0000285A 00 00 00 00 00 00 00 00 00 00 
       00002864 00 00 00 00 00 00 00 00 00 00 
       0000286E 00 00 00 00 00 00 00 00 00 00 
       00002878 00 00 00 00 00 00 00 00 00 00 
       00002882 00 00 00 00 00 00 00 00 00 00 
       0000288C 00 00 00 00 00 00 00 00 00 00 
       00002896 00 00 00 00 00 00 00 00 00 00 
       000028A0 00 00 00 00 00 00 00 00 00 00 
       000028AA 00 00 00 00 00 00 00 00 00 00 
       000028B4 00 00 00 00 00 00 00 00 00 00 
       000028BE 00 00 00 00 00 00 00 00 00 00 
       000028C8 00 00 00 00 00 00 00 00 00 00 
       000028D2 00 00 00 00 00 00 00 00 00 00 
       000028DC 00 00 00 00 00 00 00 00 00 00 
       000028E6 00 00 00 00 00 00 00 00 00 00 
       000028F0 00 00 00 00 00 00 00 00 00 00 
       000028FA 00 00 00 00 00 00 00 00 00 00 
       00002904 00 00 00 00 00 00 00 00 00 00 
       0000290E 00 00 00 00 00 00 00 00 00 00 
       00002918 00 00 00 00 00 00 00 00 00 00 
       00002922 00 00 00 00 00 00 00 00 00 00 
       0000292C 00 00 00 00 00 00 00 00 00 00 
       00002936 00 00 00 00 00 00 00 00 00 00 
       00002940 00 00 00 00 00 00 00 00 00 00 
       0000294A 00 00 00 00 00 00 00 00 00 00 
       00002954 00 00 00 00 00 00 00 00 00 00 
       0000295E 00 00 00 00 00 00 00 00 00 00 
       00002968 00 00 00 00 00 00 00 00 00 00 
       00002972 00 00 00 00 00 00 00 00 00 00 
       0000297C 00 00 00 00 00 00 00 00 00 00 
       00002986 00 00 00 00 00 00 00 00 00 00 
       00002990 00 00 00 00 00 00 00 00 00 00 
       0000299A 00 00 
