     1 00000000                                 [FORMAT "WCOFF"]
     2 00000000                                 [INSTRSET "i486p"]
     3 00000000                                 [OPTIMIZE 1]
     4 00000000                                 [OPTION 1]
     5 00000000                                 [BITS 32]
     6 00000000                                 	EXTERN	_io_in8
     7 00000000                                 	EXTERN	_io_out8
     8 00000000                                 	EXTERN	_io_load_eflags
     9 00000000                                 	EXTERN	_io_cli
    10 00000000                                 	EXTERN	_io_store_eflags
    11 00000000                                 	EXTERN	_io_hlt
    12 00000000                                 	EXTERN	_loadTr
    13 00000000                                 	EXTERN	_farJmp
    14 00000000                                 	EXTERN	_sprintf
    15 00000000                                 	EXTERN	_startApp
    16 00000000                                 	EXTERN	_io_sti
    17 00000000                                 	EXTERN	_loadGdtr
    18 00000000                                 	EXTERN	_loadIdtr
    19 00000000                                 	EXTERN	_asm_interruptHandler0c
    20 00000000                                 	EXTERN	_asm_interruptHandler0d
    21 00000000                                 	EXTERN	_asm_interruptHandler20
    22 00000000                                 	EXTERN	_asm_interruptHandler21
    23 00000000                                 	EXTERN	_asm_interruptHandler27
    24 00000000                                 	EXTERN	_asm_interruptHandler2c
    25 00000000                                 	EXTERN	_asm_dickApi
    26 00000000                                 	EXTERN	_font
    27 00000000                                 	EXTERN	_memtest_sub
    28 00000000                                 	EXTERN	_loadCr0
    29 00000000                                 	EXTERN	_storeCr0
    30 00000000                                 	EXTERN	_asm_endApp
    31 00000000                                 [FILE "bootpack.c"]
    32                                          [SECTION .text]
    33 00000000                                 	GLOBAL	_QueueInit
    34 00000000                                 _QueueInit:
    35 00000000 55                              	PUSH	EBP
    36 00000001 89 E5                           	MOV	EBP,ESP
    37 00000003 8B 45 08                        	MOV	EAX,DWORD [8+EBP]
    38 00000006 8B 55 10                        	MOV	EDX,DWORD [16+EBP]
    39 00000009 8B 4D 0C                        	MOV	ECX,DWORD [12+EBP]
    40 0000000C 89 10                           	MOV	DWORD [EAX],EDX
    41 0000000E 89 48 0C                        	MOV	DWORD [12+EAX],ECX
    42 00000011 8B 55 14                        	MOV	EDX,DWORD [20+EBP]
    43 00000014 89 48 10                        	MOV	DWORD [16+EAX],ECX
    44 00000017 C7 40 14 00000000               	MOV	DWORD [20+EAX],0
    45 0000001E C7 40 08 00000000               	MOV	DWORD [8+EAX],0
    46 00000025 C7 40 04 00000000               	MOV	DWORD [4+EAX],0
    47 0000002C 89 50 18                        	MOV	DWORD [24+EAX],EDX
    48 0000002F 5D                              	POP	EBP
    49 00000030 C3                              	RET
    50 00000031                                 	GLOBAL	_QueuePush
    51 00000031                                 _QueuePush:
    52 00000031 55                              	PUSH	EBP
    53 00000032 89 E5                           	MOV	EBP,ESP
    54 00000034 53                              	PUSH	EBX
    55 00000035 8B 5D 08                        	MOV	EBX,DWORD [8+EBP]
    56 00000038 83 7B 10 00                     	CMP	DWORD [16+EBX],0
    57 0000003C 75 0C                           	JNE	L3
    58 0000003E 83 4B 14 01                     	OR	DWORD [20+EBX],1
    59 00000042 83 C8 FF                        	OR	EAX,-1
    60 00000045                                 L2:
    61 00000045 8B 5D FC                        	MOV	EBX,DWORD [-4+EBP]
    62 00000048 C9                              	LEAVE
    63 00000049 C3                              	RET
    64 0000004A                                 L3:
    65 0000004A 8B 4B 04                        	MOV	ECX,DWORD [4+EBX]
    66 0000004D 8B 13                           	MOV	EDX,DWORD [EBX]
    67 0000004F 8B 45 0C                        	MOV	EAX,DWORD [12+EBP]
    68 00000052 89 04 8A                        	MOV	DWORD [EDX+ECX*4],EAX
    69 00000055 8B 43 04                        	MOV	EAX,DWORD [4+EBX]
    70 00000058 FF 4B 10                        	DEC	DWORD [16+EBX]
    71 0000005B 40                              	INC	EAX
    72 0000005C 99                              	CDQ
    73 0000005D F7 7B 0C                        	IDIV	DWORD [12+EBX]
    74 00000060 8B 43 18                        	MOV	EAX,DWORD [24+EBX]
    75 00000063 89 53 04                        	MOV	DWORD [4+EBX],EDX
    76 00000066 85 C0                           	TEST	EAX,EAX
    77 00000068 74 13                           	JE	L4
    78 0000006A 83 78 04 02                     	CMP	DWORD [4+EAX],2
    79 0000006E 74 0D                           	JE	L4
    80 00000070 6A 00                           	PUSH	0
    81 00000072 6A FF                           	PUSH	-1
    82 00000074 50                              	PUSH	EAX
    83 00000075 E8 000005F7                     	CALL	_processRun
    84 0000007A 83 C4 0C                        	ADD	ESP,12
    85 0000007D                                 L4:
    86 0000007D 31 C0                           	XOR	EAX,EAX
    87 0000007F EB C4                           	JMP	L2
    88 00000081                                 	GLOBAL	_QueuePop
    89 00000081                                 _QueuePop:
    90 00000081 55                              	PUSH	EBP
    91 00000082 83 C8 FF                        	OR	EAX,-1
    92 00000085 89 E5                           	MOV	EBP,ESP
    93 00000087 57                              	PUSH	EDI
    94 00000088 56                              	PUSH	ESI
    95 00000089 8B 75 08                        	MOV	ESI,DWORD [8+EBP]
    96 0000008C 53                              	PUSH	EBX
    97 0000008D 8B 7E 10                        	MOV	EDI,DWORD [16+ESI]
    98 00000090 8B 5E 0C                        	MOV	EBX,DWORD [12+ESI]
    99 00000093 39 DF                           	CMP	EDI,EBX
   100 00000095 74 17                           	JE	L6
   101 00000097 8B 46 08                        	MOV	EAX,DWORD [8+ESI]
   102 0000009A 8B 16                           	MOV	EDX,DWORD [ESI]
   103 0000009C 8B 0C 82                        	MOV	ECX,DWORD [EDX+EAX*4]
   104 0000009F 40                              	INC	EAX
   105 000000A0 99                              	CDQ
   106 000000A1 F7 FB                           	IDIV	EBX
   107 000000A3 8D 47 01                        	LEA	EAX,DWORD [1+EDI]
   108 000000A6 89 56 08                        	MOV	DWORD [8+ESI],EDX
   109 000000A9 89 46 10                        	MOV	DWORD [16+ESI],EAX
   110 000000AC 89 C8                           	MOV	EAX,ECX
   111 000000AE                                 L6:
   112 000000AE 5B                              	POP	EBX
   113 000000AF 5E                              	POP	ESI
   114 000000B0 5F                              	POP	EDI
   115 000000B1 5D                              	POP	EBP
   116 000000B2 C3                              	RET
   117 000000B3                                 	GLOBAL	_QueueSize
   118 000000B3                                 _QueueSize:
   119 000000B3 55                              	PUSH	EBP
   120 000000B4 89 E5                           	MOV	EBP,ESP
   121 000000B6 8B 55 08                        	MOV	EDX,DWORD [8+EBP]
   122 000000B9 5D                              	POP	EBP
   123 000000BA 8B 42 0C                        	MOV	EAX,DWORD [12+EDX]
   124 000000BD 2B 42 10                        	SUB	EAX,DWORD [16+EDX]
   125 000000C0 C3                              	RET
   126                                          [SECTION .data]
   127 00000000                                 _keyboardTable0:
   128 00000000 00                              	DB	0
   129 00000001 00                              	DB	0
   130 00000002 31                              	DB	49
   131 00000003 32                              	DB	50
   132 00000004 33                              	DB	51
   133 00000005 34                              	DB	52
   134 00000006 35                              	DB	53
   135 00000007 36                              	DB	54
   136 00000008 37                              	DB	55
   137 00000009 38                              	DB	56
   138 0000000A 39                              	DB	57
   139 0000000B 30                              	DB	48
   140 0000000C 2D                              	DB	45
   141 0000000D 3D                              	DB	61
   142 0000000E 00                              	DB	0
   143 0000000F 00                              	DB	0
   144 00000010 51                              	DB	81
   145 00000011 57                              	DB	87
   146 00000012 45                              	DB	69
   147 00000013 52                              	DB	82
   148 00000014 54                              	DB	84
   149 00000015 59                              	DB	89
   150 00000016 55                              	DB	85
   151 00000017 49                              	DB	73
   152 00000018 4F                              	DB	79
   153 00000019 50                              	DB	80
   154 0000001A 5B                              	DB	91
   155 0000001B 5D                              	DB	93
   156 0000001C 00                              	DB	0
   157 0000001D 00                              	DB	0
   158 0000001E 41                              	DB	65
   159 0000001F 53                              	DB	83
   160 00000020 44                              	DB	68
   161 00000021 46                              	DB	70
   162 00000022 47                              	DB	71
   163 00000023 48                              	DB	72
   164 00000024 4A                              	DB	74
   165 00000025 4B                              	DB	75
   166 00000026 4C                              	DB	76
   167 00000027 3B                              	DB	59
   168 00000028 27                              	DB	39
   169 00000029 60                              	DB	96
   170 0000002A 00                              	DB	0
   171 0000002B 5C                              	DB	92
   172 0000002C 5A                              	DB	90
   173 0000002D 58                              	DB	88
   174 0000002E 43                              	DB	67
   175 0000002F 56                              	DB	86
   176 00000030 42                              	DB	66
   177 00000031 4E                              	DB	78
   178 00000032 4D                              	DB	77
   179 00000033 2C                              	DB	44
   180 00000034 2E                              	DB	46
   181 00000035 2F                              	DB	47
   182 00000036 00                              	DB	0
   183 00000037 2A                              	DB	42
   184 00000038 00                              	DB	0
   185 00000039 20                              	DB	32
   186 0000003A 00                              	DB	0
   187 0000003B 00                              	DB	0
   188 0000003C 00                              	DB	0
   189 0000003D 00                              	DB	0
   190 0000003E 00                              	DB	0
   191 0000003F 00                              	DB	0
   192 00000040 00                              	DB	0
   193 00000041 00                              	DB	0
   194 00000042 00                              	DB	0
   195 00000043 00                              	DB	0
   196 00000044 00                              	DB	0
   197 00000045 00                              	DB	0
   198 00000046 00                              	DB	0
   199 00000047 37                              	DB	55
   200 00000048 38                              	DB	56
   201 00000049 39                              	DB	57
   202 0000004A 2D                              	DB	45
   203 0000004B 34                              	DB	52
   204 0000004C 35                              	DB	53
   205 0000004D 36                              	DB	54
   206 0000004E 2B                              	DB	43
   207 0000004F 31                              	DB	49
   208 00000050 32                              	DB	50
   209 00000051 33                              	DB	51
   210 00000052 30                              	DB	48
   211 00000053 2E                              	DB	46
   212 00000054 00                              	DB	0
   213 00000055 00                              	DB	0
   214 00000056 00                              	DB	0
   215 00000057 00                              	DB	0
   216 00000058 00                              	DB	0
   217 00000059 00                              	DB	0
   218 0000005A 00                              	DB	0
   219 0000005B 00                              	DB	0
   220 0000005C 00                              	DB	0
   221 0000005D 00                              	DB	0
   222 0000005E 00                              	DB	0
   223 0000005F 00                              	DB	0
   224 00000060 00                              	DB	0
   225 00000061 00                              	DB	0
   226 00000062 00                              	DB	0
   227 00000063 00                              	DB	0
   228 00000064 00                              	DB	0
   229 00000065 00                              	DB	0
   230 00000066 00                              	DB	0
   231 00000067 00                              	DB	0
   232 00000068 00                              	DB	0
   233 00000069 00                              	DB	0
   234 0000006A 00                              	DB	0
   235 0000006B 00                              	DB	0
   236 0000006C 00                              	DB	0
   237 0000006D 00                              	DB	0
   238 0000006E 00                              	DB	0
   239 0000006F 00                              	DB	0
   240 00000070 00                              	DB	0
   241 00000071 00                              	DB	0
   242 00000072 00                              	DB	0
   243 00000073 00                              	DB	0
   244 00000074 00                              	DB	0
   245 00000075 00                              	DB	0
   246 00000076 00                              	DB	0
   247 00000077 00                              	DB	0
   248 00000078 00                              	DB	0
   249 00000079 00                              	DB	0
   250 0000007A 00                              	DB	0
   251 0000007B 00                              	DB	0
   252 0000007C 00                              	DB	0
   253 0000007D 00                              	DB	0
   254 0000007E 00                              	DB	0
   255 0000007F 00                              	DB	0
   256 00000080                                 _keyboardTable1:
   257 00000080 00                              	DB	0
   258 00000081 00                              	DB	0
   259 00000082 21                              	DB	33
   260 00000083 40                              	DB	64
   261 00000084 23                              	DB	35
   262 00000085 24                              	DB	36
   263 00000086 25                              	DB	37
   264 00000087 5E                              	DB	94
   265 00000088 26                              	DB	38
   266 00000089 2A                              	DB	42
   267 0000008A 28                              	DB	40
   268 0000008B 29                              	DB	41
   269 0000008C 5F                              	DB	95
   270 0000008D 2B                              	DB	43
   271 0000008E 00                              	DB	0
   272 0000008F 00                              	DB	0
   273 00000090 51                              	DB	81
   274 00000091 57                              	DB	87
   275 00000092 45                              	DB	69
   276 00000093 52                              	DB	82
   277 00000094 54                              	DB	84
   278 00000095 59                              	DB	89
   279 00000096 55                              	DB	85
   280 00000097 49                              	DB	73
   281 00000098 4F                              	DB	79
   282 00000099 50                              	DB	80
   283 0000009A 7B                              	DB	123
   284 0000009B 7D                              	DB	125
   285 0000009C 00                              	DB	0
   286 0000009D 00                              	DB	0
   287 0000009E 41                              	DB	65
   288 0000009F 53                              	DB	83
   289 000000A0 44                              	DB	68
   290 000000A1 46                              	DB	70
   291 000000A2 47                              	DB	71
   292 000000A3 48                              	DB	72
   293 000000A4 4A                              	DB	74
   294 000000A5 4B                              	DB	75
   295 000000A6 4C                              	DB	76
   296 000000A7 3A                              	DB	58
   297 000000A8 22                              	DB	34
   298 000000A9 7E                              	DB	126
   299 000000AA 00                              	DB	0
   300 000000AB 7C                              	DB	124
   301 000000AC 5A                              	DB	90
   302 000000AD 58                              	DB	88
   303 000000AE 43                              	DB	67
   304 000000AF 56                              	DB	86
   305 000000B0 42                              	DB	66
   306 000000B1 4E                              	DB	78
   307 000000B2 4D                              	DB	77
   308 000000B3 3C                              	DB	60
   309 000000B4 3E                              	DB	62
   310 000000B5 3F                              	DB	63
   311 000000B6 00                              	DB	0
   312 000000B7 2A                              	DB	42
   313 000000B8 00                              	DB	0
   314 000000B9 20                              	DB	32
   315 000000BA 00                              	DB	0
   316 000000BB 00                              	DB	0
   317 000000BC 00                              	DB	0
   318 000000BD 00                              	DB	0
   319 000000BE 00                              	DB	0
   320 000000BF 00                              	DB	0
   321 000000C0 00                              	DB	0
   322 000000C1 00                              	DB	0
   323 000000C2 00                              	DB	0
   324 000000C3 00                              	DB	0
   325 000000C4 00                              	DB	0
   326 000000C5 00                              	DB	0
   327 000000C6 00                              	DB	0
   328 000000C7 37                              	DB	55
   329 000000C8 38                              	DB	56
   330 000000C9 39                              	DB	57
   331 000000CA 2D                              	DB	45
   332 000000CB 34                              	DB	52
   333 000000CC 35                              	DB	53
   334 000000CD 36                              	DB	54
   335 000000CE 2B                              	DB	43
   336 000000CF 31                              	DB	49
   337 000000D0 32                              	DB	50
   338 000000D1 33                              	DB	51
   339 000000D2 30                              	DB	48
   340 000000D3 2E                              	DB	46
   341 000000D4 00                              	DB	0
   342 000000D5 00                              	DB	0
   343 000000D6 00                              	DB	0
   344 000000D7 00                              	DB	0
   345 000000D8 00                              	DB	0
   346 000000D9 00                              	DB	0
   347 000000DA 00                              	DB	0
   348 000000DB 00                              	DB	0
   349 000000DC 00                              	DB	0
   350 000000DD 00                              	DB	0
   351 000000DE 00                              	DB	0
   352 000000DF 00                              	DB	0
   353 000000E0 00                              	DB	0
   354 000000E1 00                              	DB	0
   355 000000E2 00                              	DB	0
   356 000000E3 00                              	DB	0
   357 000000E4 00                              	DB	0
   358 000000E5 00                              	DB	0
   359 000000E6 00                              	DB	0
   360 000000E7 00                              	DB	0
   361 000000E8 00                              	DB	0
   362 000000E9 00                              	DB	0
   363 000000EA 00                              	DB	0
   364 000000EB 00                              	DB	0
   365 000000EC 00                              	DB	0
   366 000000ED 00                              	DB	0
   367 000000EE 00                              	DB	0
   368 000000EF 00                              	DB	0
   369 000000F0 00                              	DB	0
   370 000000F1 00                              	DB	0
   371 000000F2 00                              	DB	0
   372 000000F3 00                              	DB	0
   373 000000F4 00                              	DB	0
   374 000000F5 00                              	DB	0
   375 000000F6 00                              	DB	0
   376 000000F7 00                              	DB	0
   377 000000F8 00                              	DB	0
   378 000000F9 00                              	DB	0
   379 000000FA 00                              	DB	0
   380 000000FB 00                              	DB	0
   381 000000FC 00                              	DB	0
   382 000000FD 00                              	DB	0
   383 000000FE 00                              	DB	0
   384 000000FF 00                              	DB	0
   385                                          [SECTION .text]
   386 000000C1                                 	GLOBAL	_waitKeyboardControllerReady
   387 000000C1                                 _waitKeyboardControllerReady:
   388 000000C1 55                              	PUSH	EBP
   389 000000C2 89 E5                           	MOV	EBP,ESP
   390 000000C4                                 L10:
   391 000000C4 6A 64                           	PUSH	100
   392 000000C6 E8 [00000000]                   	CALL	_io_in8
   393 000000CB 5A                              	POP	EDX
   394 000000CC 83 E0 02                        	AND	EAX,2
   395 000000CF 75 F3                           	JNE	L10
   396 000000D1 C9                              	LEAVE
   397 000000D2 C3                              	RET
   398 000000D3                                 	GLOBAL	_initKeyboard
   399 000000D3                                 _initKeyboard:
   400 000000D3 55                              	PUSH	EBP
   401 000000D4 89 E5                           	MOV	EBP,ESP
   402 000000D6 8B 45 08                        	MOV	EAX,DWORD [8+EBP]
   403 000000D9 A3 [00000440]                   	MOV	DWORD [_keybuf],EAX
   404 000000DE 8B 45 0C                        	MOV	EAX,DWORD [12+EBP]
   405 000000E1 A3 [00000444]                   	MOV	DWORD [_keyData0],EAX
   406 000000E6 E8 FFFFFFD6                     	CALL	_waitKeyboardControllerReady
   407 000000EB 6A 60                           	PUSH	96
   408 000000ED 6A 64                           	PUSH	100
   409 000000EF E8 [00000000]                   	CALL	_io_out8
   410 000000F4 E8 FFFFFFC8                     	CALL	_waitKeyboardControllerReady
   411 000000F9 59                              	POP	ECX
   412 000000FA 58                              	POP	EAX
   413 000000FB C7 45 0C 00000047               	MOV	DWORD [12+EBP],71
   414 00000102 C7 45 08 00000060               	MOV	DWORD [8+EBP],96
   415 00000109 C9                              	LEAVE
   416 0000010A E9 [00000000]                   	JMP	_io_out8
   417 0000010F                                 	GLOBAL	_enableMouse
   418 0000010F                                 _enableMouse:
   419 0000010F 55                              	PUSH	EBP
   420 00000110 89 E5                           	MOV	EBP,ESP
   421 00000112 8B 45 08                        	MOV	EAX,DWORD [8+EBP]
   422 00000115 A3 [00000448]                   	MOV	DWORD [_mousebuf],EAX
   423 0000011A 8B 45 0C                        	MOV	EAX,DWORD [12+EBP]
   424 0000011D A3 [0000044C]                   	MOV	DWORD [_mouseData0],EAX
   425 00000122 E8 FFFFFF9A                     	CALL	_waitKeyboardControllerReady
   426 00000127 68 000000D4                     	PUSH	212
   427 0000012C 6A 64                           	PUSH	100
   428 0000012E E8 [00000000]                   	CALL	_io_out8
   429 00000133 E8 FFFFFF89                     	CALL	_waitKeyboardControllerReady
   430 00000138 68 000000F4                     	PUSH	244
   431 0000013D 6A 60                           	PUSH	96
   432 0000013F E8 [00000000]                   	CALL	_io_out8
   433 00000144 8B 45 10                        	MOV	EAX,DWORD [16+EBP]
   434 00000147 C6 40 03 00                     	MOV	BYTE [3+EAX],0
   435 0000014B C9                              	LEAVE
   436 0000014C C3                              	RET
   437 0000014D                                 	GLOBAL	_mouseDecode
   438 0000014D                                 _mouseDecode:
   439 0000014D 55                              	PUSH	EBP
   440 0000014E 89 E5                           	MOV	EBP,ESP
   441 00000150 56                              	PUSH	ESI
   442 00000151 53                              	PUSH	EBX
   443 00000152 8B 55 08                        	MOV	EDX,DWORD [8+EBP]
   444 00000155 8B 4D 0C                        	MOV	ECX,DWORD [12+EBP]
   445 00000158 89 CE                           	MOV	ESI,ECX
   446 0000015A 8A 42 03                        	MOV	AL,BYTE [3+EDX]
   447 0000015D 84 C0                           	TEST	AL,AL
   448 0000015F 75 11                           	JNE	L17
   449 00000161 80 F9 FA                        	CMP	CL,-6
   450 00000164 74 06                           	JE	L26
   451 00000166                                 L25:
   452 00000166 31 C0                           	XOR	EAX,EAX
   453 00000168                                 L16:
   454 00000168 5B                              	POP	EBX
   455 00000169 5E                              	POP	ESI
   456 0000016A 5D                              	POP	EBP
   457 0000016B C3                              	RET
   458 0000016C                                 L26:
   459 0000016C C6 42 03 01                     	MOV	BYTE [3+EDX],1
   460 00000170 EB F4                           	JMP	L25
   461 00000172                                 L17:
   462 00000172 3C 01                           	CMP	AL,1
   463 00000174 74 61                           	JE	L27
   464 00000176 3C 02                           	CMP	AL,2
   465 00000178 74 54                           	JE	L28
   466 0000017A 3C 03                           	CMP	AL,3
   467 0000017C 74 05                           	JE	L29
   468 0000017E 83 C8 FF                        	OR	EAX,-1
   469 00000181 EB E5                           	JMP	L16
   470 00000183                                 L29:
   471 00000183 8A 1A                           	MOV	BL,BYTE [EDX]
   472 00000185 81 E6 000000FF                  	AND	ESI,255
   473 0000018B 89 D8                           	MOV	EAX,EBX
   474 0000018D 88 4A 02                        	MOV	BYTE [2+EDX],CL
   475 00000190 83 E0 07                        	AND	EAX,7
   476 00000193 89 72 08                        	MOV	DWORD [8+EDX],ESI
   477 00000196 89 42 0C                        	MOV	DWORD [12+EDX],EAX
   478 00000199 88 D8                           	MOV	AL,BL
   479 0000019B 0F B6 4A 01                     	MOVZX	ECX,BYTE [1+EDX]
   480 0000019F 83 E0 10                        	AND	EAX,16
   481 000001A2 89 4A 04                        	MOV	DWORD [4+EDX],ECX
   482 000001A5 C6 42 03 01                     	MOV	BYTE [3+EDX],1
   483 000001A9 84 C0                           	TEST	AL,AL
   484 000001AB 74 09                           	JE	L23
   485 000001AD 81 C9 FFFFFF00                  	OR	ECX,-256
   486 000001B3 89 4A 04                        	MOV	DWORD [4+EDX],ECX
   487 000001B6                                 L23:
   488 000001B6 83 E3 20                        	AND	EBX,32
   489 000001B9 84 DB                           	TEST	BL,BL
   490 000001BB 74 07                           	JE	L24
   491 000001BD 81 4A 08 FFFFFF00               	OR	DWORD [8+EDX],-256
   492 000001C4                                 L24:
   493 000001C4 F7 5A 08                        	NEG	DWORD [8+EDX]
   494 000001C7 B8 00000001                     	MOV	EAX,1
   495 000001CC EB 9A                           	JMP	L16
   496 000001CE                                 L28:
   497 000001CE 88 4A 01                        	MOV	BYTE [1+EDX],CL
   498 000001D1 C6 42 03 03                     	MOV	BYTE [3+EDX],3
   499 000001D5 EB 8F                           	JMP	L25
   500 000001D7                                 L27:
   501 000001D7 83 E6 C8                        	AND	ESI,-56
   502 000001DA 89 F0                           	MOV	EAX,ESI
   503 000001DC 3C 08                           	CMP	AL,8
   504 000001DE 75 86                           	JNE	L25
   505 000001E0 88 0A                           	MOV	BYTE [EDX],CL
   506 000001E2 C6 42 03 02                     	MOV	BYTE [3+EDX],2
   507 000001E6 E9 FFFFFF7B                     	JMP	L25
   508 000001EB                                 	GLOBAL	_initPit
   509 000001EB                                 _initPit:
   510 000001EB 55                              	PUSH	EBP
   511 000001EC 89 E5                           	MOV	EBP,ESP
   512 000001EE 6A 34                           	PUSH	52
   513 000001F0 6A 43                           	PUSH	67
   514 000001F2 E8 [00000000]                   	CALL	_io_out8
   515 000001F7 68 0000009C                     	PUSH	156
   516 000001FC 6A 40                           	PUSH	64
   517 000001FE E8 [00000000]                   	CALL	_io_out8
   518 00000203 6A 2E                           	PUSH	46
   519 00000205 6A 40                           	PUSH	64
   520 00000207 E8 [00000000]                   	CALL	_io_out8
   521 0000020C BA [00002B60]                   	MOV	EDX,_timerctl+10000
   522 00000211 C7 05 [00000450] 00000000       	MOV	DWORD [_timerctl],0
   523 0000021B 83 C4 18                        	ADD	ESP,24
   524 0000021E B8 [00000464]                   	MOV	EAX,_timerctl+20
   525 00000223                                 L35:
   526 00000223 C6 00 00                        	MOV	BYTE [EAX],0
   527 00000226 83 C0 14                        	ADD	EAX,20
   528 00000229 39 D0                           	CMP	EAX,EDX
   529 0000022B 7E F6                           	JLE	L35
   530 0000022D E8 00000022                     	CALL	_timerAlloc
   531 00000232 C6 40 08 02                     	MOV	BYTE [8+EAX],2
   532 00000236 C7 40 04 FFFFFFFF               	MOV	DWORD [4+EAX],-1
   533 0000023D C7 00 00000000                  	MOV	DWORD [EAX],0
   534 00000243 A3 [00000458]                   	MOV	DWORD [_timerctl+8],EAX
   535 00000248 C7 05 [00000454] FFFFFFFF       	MOV	DWORD [_timerctl+4],-1
   536 00000252 C9                              	LEAVE
   537 00000253 C3                              	RET
   538 00000254                                 	GLOBAL	_timerAlloc
   539 00000254                                 _timerAlloc:
   540 00000254 55                              	PUSH	EBP
   541 00000255 31 D2                           	XOR	EDX,EDX
   542 00000257 89 E5                           	MOV	EBP,ESP
   543 00000259 B8 [0000045C]                   	MOV	EAX,_timerctl+12
   544 0000025E                                 L44:
   545 0000025E 80 78 08 00                     	CMP	BYTE [8+EAX],0
   546 00000262 74 10                           	JE	L47
   547 00000264 42                              	INC	EDX
   548 00000265 83 C0 14                        	ADD	EAX,20
   549 00000268 81 FA 000001F3                  	CMP	EDX,499
   550 0000026E 7E EE                           	JLE	L44
   551 00000270 31 C0                           	XOR	EAX,EAX
   552 00000272                                 L38:
   553 00000272 5D                              	POP	EBP
   554 00000273 C3                              	RET
   555 00000274                                 L47:
   556 00000274 C6 40 08 01                     	MOV	BYTE [8+EAX],1
   557 00000278 C6 40 09 00                     	MOV	BYTE [9+EAX],0
   558 0000027C EB F4                           	JMP	L38
   559 0000027E                                 	GLOBAL	_timerFree
   560 0000027E                                 _timerFree:
   561 0000027E 55                              	PUSH	EBP
   562 0000027F 89 E5                           	MOV	EBP,ESP
   563 00000281 8B 45 08                        	MOV	EAX,DWORD [8+EBP]
   564 00000284 C6 40 08 00                     	MOV	BYTE [8+EAX],0
   565 00000288 5D                              	POP	EBP
   566 00000289 C3                              	RET
   567 0000028A                                 	GLOBAL	_timerInit
   568 0000028A                                 _timerInit:
   569 0000028A 55                              	PUSH	EBP
   570 0000028B 89 E5                           	MOV	EBP,ESP
   571 0000028D 8B 45 08                        	MOV	EAX,DWORD [8+EBP]
   572 00000290 8B 55 0C                        	MOV	EDX,DWORD [12+EBP]
   573 00000293 89 50 0C                        	MOV	DWORD [12+EAX],EDX
   574 00000296 8B 55 10                        	MOV	EDX,DWORD [16+EBP]
   575 00000299 89 50 10                        	MOV	DWORD [16+EAX],EDX
   576 0000029C 5D                              	POP	EBP
   577 0000029D C3                              	RET
   578 0000029E                                 	GLOBAL	_timerSetTime
   579 0000029E                                 _timerSetTime:
   580 0000029E 55                              	PUSH	EBP
   581 0000029F A1 [00000450]                   	MOV	EAX,DWORD [_timerctl]
   582 000002A4 89 E5                           	MOV	EBP,ESP
   583 000002A6 56                              	PUSH	ESI
   584 000002A7 53                              	PUSH	EBX
   585 000002A8 8B 5D 08                        	MOV	EBX,DWORD [8+EBP]
   586 000002AB 03 45 0C                        	ADD	EAX,DWORD [12+EBP]
   587 000002AE C6 43 08 02                     	MOV	BYTE [8+EBX],2
   588 000002B2 89 43 04                        	MOV	DWORD [4+EBX],EAX
   589 000002B5 E8 [00000000]                   	CALL	_io_load_eflags
   590 000002BA 89 C6                           	MOV	ESI,EAX
   591 000002BC E8 [00000000]                   	CALL	_io_cli
   592 000002C1 A1 [00000458]                   	MOV	EAX,DWORD [_timerctl+8]
   593 000002C6 8B 53 04                        	MOV	EDX,DWORD [4+EBX]
   594 000002C9 3B 50 04                        	CMP	EDX,DWORD [4+EAX]
   595 000002CC 76 18                           	JBE	L57
   596 000002CE                                 L52:
   597 000002CE 89 C1                           	MOV	ECX,EAX
   598 000002D0 8B 00                           	MOV	EAX,DWORD [EAX]
   599 000002D2 3B 50 04                        	CMP	EDX,DWORD [4+EAX]
   600 000002D5 77 F7                           	JA	L52
   601 000002D7 89 19                           	MOV	DWORD [ECX],EBX
   602 000002D9 89 03                           	MOV	DWORD [EBX],EAX
   603 000002DB                                 L56:
   604 000002DB 89 75 08                        	MOV	DWORD [8+EBP],ESI
   605 000002DE 5B                              	POP	EBX
   606 000002DF 5E                              	POP	ESI
   607 000002E0 5D                              	POP	EBP
   608 000002E1 E9 [00000000]                   	JMP	_io_store_eflags
   609 000002E6                                 L57:
   610 000002E6 89 1D [00000458]                	MOV	DWORD [_timerctl+8],EBX
   611 000002EC 89 15 [00000454]                	MOV	DWORD [_timerctl+4],EDX
   612 000002F2 89 03                           	MOV	DWORD [EBX],EAX
   613 000002F4 EB E5                           	JMP	L56
   614 000002F6                                 	GLOBAL	_timerCancle
   615 000002F6                                 _timerCancle:
   616 000002F6 55                              	PUSH	EBP
   617 000002F7 89 E5                           	MOV	EBP,ESP
   618 000002F9 56                              	PUSH	ESI
   619 000002FA 53                              	PUSH	EBX
   620 000002FB 8B 5D 08                        	MOV	EBX,DWORD [8+EBP]
   621 000002FE E8 [00000000]                   	CALL	_io_load_eflags
   622 00000303 89 C6                           	MOV	ESI,EAX
   623 00000305 E8 [00000000]                   	CALL	_io_cli
   624 0000030A 80 7B 08 02                     	CMP	BYTE [8+EBX],2
   625 0000030E 74 0F                           	JE	L66
   626 00000310 56                              	PUSH	ESI
   627 00000311 E8 [00000000]                   	CALL	_io_store_eflags
   628 00000316 31 C0                           	XOR	EAX,EAX
   629 00000318                                 L58:
   630 00000318 8D 65 F8                        	LEA	ESP,DWORD [-8+EBP]
   631 0000031B 5B                              	POP	EBX
   632 0000031C 5E                              	POP	ESI
   633 0000031D 5D                              	POP	EBP
   634 0000031E C3                              	RET
   635 0000031F                                 L66:
   636 0000031F A1 [00000458]                   	MOV	EAX,DWORD [_timerctl+8]
   637 00000324 39 C3                           	CMP	EBX,EAX
   638 00000326 74 1D                           	JE	L67
   639 00000328                                 L60:
   640 00000328 89 C2                           	MOV	EDX,EAX
   641 0000032A 8B 00                           	MOV	EAX,DWORD [EAX]
   642 0000032C 39 D8                           	CMP	EAX,EBX
   643 0000032E 75 F8                           	JNE	L60
   644 00000330 8B 03                           	MOV	EAX,DWORD [EBX]
   645 00000332 89 02                           	MOV	DWORD [EDX],EAX
   646 00000334                                 L61:
   647 00000334 C6 43 08 01                     	MOV	BYTE [8+EBX],1
   648 00000338 56                              	PUSH	ESI
   649 00000339 E8 [00000000]                   	CALL	_io_store_eflags
   650 0000033E B8 00000001                     	MOV	EAX,1
   651 00000343 EB D3                           	JMP	L58
   652 00000345                                 L67:
   653 00000345 8B 13                           	MOV	EDX,DWORD [EBX]
   654 00000347 89 15 [00000458]                	MOV	DWORD [_timerctl+8],EDX
   655 0000034D 8B 42 04                        	MOV	EAX,DWORD [4+EDX]
   656 00000350 A3 [00000454]                   	MOV	DWORD [_timerctl+4],EAX
   657 00000355 EB DD                           	JMP	L61
   658 00000357                                 	GLOBAL	_timerCancelAllFlags
   659 00000357                                 _timerCancelAllFlags:
   660 00000357 55                              	PUSH	EBP
   661 00000358 89 E5                           	MOV	EBP,ESP
   662 0000035A 57                              	PUSH	EDI
   663 0000035B 56                              	PUSH	ESI
   664 0000035C 53                              	PUSH	EBX
   665 0000035D BB [0000045C]                   	MOV	EBX,_timerctl+12
   666 00000362 8B 7D 08                        	MOV	EDI,DWORD [8+EBP]
   667 00000365 E8 [00000000]                   	CALL	_io_load_eflags
   668 0000036A 89 C6                           	MOV	ESI,EAX
   669 0000036C E8 [00000000]                   	CALL	_io_cli
   670 00000371                                 L74:
   671 00000371 80 7B 08 00                     	CMP	BYTE [8+EBX],0
   672 00000375 74 0B                           	JE	L71
   673 00000377 80 7B 09 00                     	CMP	BYTE [9+EBX],0
   674 0000037B 74 05                           	JE	L71
   675 0000037D 39 7B 0C                        	CMP	DWORD [12+EBX],EDI
   676 00000380 74 1A                           	JE	L77
   677 00000382                                 L71:
   678 00000382 83 C3 14                        	ADD	EBX,20
   679 00000385 81 FB [00002B58]                	CMP	EBX,_timerctl+9992
   680 0000038B 7E E4                           	JLE	L74
   681 0000038D 89 75 08                        	MOV	DWORD [8+EBP],ESI
   682 00000390 8D 65 F4                        	LEA	ESP,DWORD [-12+EBP]
   683 00000393 5B                              	POP	EBX
   684 00000394 5E                              	POP	ESI
   685 00000395 5F                              	POP	EDI
   686 00000396 5D                              	POP	EBP
   687 00000397 E9 [00000000]                   	JMP	_io_store_eflags
   688 0000039C                                 L77:
   689 0000039C 53                              	PUSH	EBX
   690 0000039D E8 FFFFFF54                     	CALL	_timerCancle
   691 000003A2 53                              	PUSH	EBX
   692 000003A3 E8 FFFFFED6                     	CALL	_timerFree
   693 000003A8 58                              	POP	EAX
   694 000003A9 5A                              	POP	EDX
   695 000003AA EB D6                           	JMP	L71
   696 000003AC                                 	GLOBAL	_processIdle
   697 000003AC                                 _processIdle:
   698 000003AC 55                              	PUSH	EBP
   699 000003AD 89 E5                           	MOV	EBP,ESP
   700 000003AF                                 L79:
   701 000003AF E8 [00000000]                   	CALL	_io_hlt
   702 000003B4 EB F9                           	JMP	L79
   703 000003B6                                 	GLOBAL	_processNow
   704 000003B6                                 _processNow:
   705 000003B6 A1 [00002B6C]                   	MOV	EAX,DWORD [_processctl]
   706 000003BB 55                              	PUSH	EBP
   707 000003BC 89 E5                           	MOV	EBP,ESP
   708 000003BE 5D                              	POP	EBP
   709 000003BF 8B 10                           	MOV	EDX,DWORD [EAX]
   710 000003C1 69 D2 00000198                  	IMUL	EDX,EDX,408
   711 000003C7 8D 44 02 08                     	LEA	EAX,DWORD [8+EDX+EAX*1]
   712 000003CB 8B 50 04                        	MOV	EDX,DWORD [4+EAX]
   713 000003CE 8B 44 90 08                     	MOV	EAX,DWORD [8+EAX+EDX*4]
   714 000003D2 C3                              	RET
   715 000003D3                                 	GLOBAL	_processAdd
   716 000003D3                                 _processAdd:
   717 000003D3 55                              	PUSH	EBP
   718 000003D4 89 E5                           	MOV	EBP,ESP
   719 000003D6 8B 4D 08                        	MOV	ECX,DWORD [8+EBP]
   720 000003D9 8B 51 08                        	MOV	EDX,DWORD [8+ECX]
   721 000003DC 69 D2 00000198                  	IMUL	EDX,EDX,408
   722 000003E2 03 15 [00002B6C]                	ADD	EDX,DWORD [_processctl]
   723 000003E8 8B 42 08                        	MOV	EAX,DWORD [8+EDX]
   724 000003EB 89 4C 82 10                     	MOV	DWORD [16+EDX+EAX*4],ECX
   725 000003EF 40                              	INC	EAX
   726 000003F0 89 42 08                        	MOV	DWORD [8+EDX],EAX
   727 000003F3 C7 41 04 00000002               	MOV	DWORD [4+ECX],2
   728 000003FA 5D                              	POP	EBP
   729 000003FB C3                              	RET
   730 000003FC                                 	GLOBAL	_processRemove
   731 000003FC                                 _processRemove:
   732 000003FC 55                              	PUSH	EBP
   733 000003FD 31 C9                           	XOR	ECX,ECX
   734 000003FF 89 E5                           	MOV	EBP,ESP
   735 00000401 53                              	PUSH	EBX
   736 00000402 8B 5D 08                        	MOV	EBX,DWORD [8+EBP]
   737 00000405 8B 43 08                        	MOV	EAX,DWORD [8+EBX]
   738 00000408 69 C0 00000198                  	IMUL	EAX,EAX,408
   739 0000040E 03 05 [00002B6C]                	ADD	EAX,DWORD [_processctl]
   740 00000414 8D 50 08                        	LEA	EDX,DWORD [8+EAX]
   741 00000417 3B 48 08                        	CMP	ECX,DWORD [8+EAX]
   742 0000041A 7D 0B                           	JGE	L86
   743 0000041C                                 L90:
   744 0000041C 39 5C 8A 08                     	CMP	DWORD [8+EDX+ECX*4],EBX
   745 00000420 74 05                           	JE	L86
   746 00000422 41                              	INC	ECX
   747 00000423 3B 0A                           	CMP	ECX,DWORD [EDX]
   748 00000425 7C F5                           	JL	L90
   749 00000427                                 L86:
   750 00000427 8B 42 04                        	MOV	EAX,DWORD [4+EDX]
   751 0000042A FF 0A                           	DEC	DWORD [EDX]
   752 0000042C 39 C1                           	CMP	ECX,EAX
   753 0000042E 7D 04                           	JGE	L91
   754 00000430 48                              	DEC	EAX
   755 00000431 89 42 04                        	MOV	DWORD [4+EDX],EAX
   756 00000434                                 L91:
   757 00000434 8B 02                           	MOV	EAX,DWORD [EDX]
   758 00000436 39 42 04                        	CMP	DWORD [4+EDX],EAX
   759 00000439 7C 07                           	JL	L92
   760 0000043B C7 42 04 00000000               	MOV	DWORD [4+EDX],0
   761 00000442                                 L92:
   762 00000442 C7 43 04 00000001               	MOV	DWORD [4+EBX],1
   763 00000449 8B 1A                           	MOV	EBX,DWORD [EDX]
   764 0000044B 39 D9                           	CMP	ECX,EBX
   765 0000044D 7D 0D                           	JGE	L100
   766 0000044F                                 L97:
   767 0000044F 8B 44 8A 0C                     	MOV	EAX,DWORD [12+EDX+ECX*4]
   768 00000453 89 44 8A 08                     	MOV	DWORD [8+EDX+ECX*4],EAX
   769 00000457 41                              	INC	ECX
   770 00000458 39 D9                           	CMP	ECX,EBX
   771 0000045A 7C F3                           	JL	L97
   772 0000045C                                 L100:
   773 0000045C 5B                              	POP	EBX
   774 0000045D 5D                              	POP	EBP
   775 0000045E C3                              	RET
   776 0000045F                                 	GLOBAL	_processSwitchSub
   777 0000045F                                 _processSwitchSub:
   778 0000045F 55                              	PUSH	EBP
   779 00000460 31 C9                           	XOR	ECX,ECX
   780 00000462 89 E5                           	MOV	EBP,ESP
   781 00000464 A1 [00002B6C]                   	MOV	EAX,DWORD [_processctl]
   782 00000469 31 D2                           	XOR	EDX,EDX
   783 0000046B                                 L107:
   784 0000046B 83 7C 10 08 00                  	CMP	DWORD [8+EAX+EDX*1],0
   785 00000470 7F 0C                           	JG	L103
   786 00000472 41                              	INC	ECX
   787 00000473 81 C2 00000198                  	ADD	EDX,408
   788 00000479 83 F9 09                        	CMP	ECX,9
   789 0000047C 7E ED                           	JLE	L107
   790 0000047E                                 L103:
   791 0000047E 89 08                           	MOV	DWORD [EAX],ECX
   792 00000480 C6 40 04 00                     	MOV	BYTE [4+EAX],0
   793 00000484 5D                              	POP	EBP
   794 00000485 C3                              	RET
   795 00000486                                 	GLOBAL	_processInit
   796 00000486                                 _processInit:
   797 00000486 55                              	PUSH	EBP
   798 00000487 89 E5                           	MOV	EBP,ESP
   799 00000489 57                              	PUSH	EDI
   800 0000048A 56                              	PUSH	ESI
   801 0000048B 31 FF                           	XOR	EDI,EDI
   802 0000048D 53                              	PUSH	EBX
   803 0000048E 31 F6                           	XOR	ESI,ESI
   804 00000490 68 00027158                     	PUSH	160088
   805 00000495 FF 75 08                        	PUSH	DWORD [8+EBP]
   806 00000498 E8 00001FD1                     	CALL	_memsegAlloc4K
   807 0000049D 59                              	POP	ECX
   808 0000049E 5B                              	POP	EBX
   809 0000049F A3 [00002B6C]                   	MOV	DWORD [_processctl],EAX
   810 000004A4 BB 000003E7                     	MOV	EBX,999
   811 000004A9                                 L114:
   812 000004A9 89 F8                           	MOV	EAX,EDI
   813 000004AB 8D 56 18                        	LEA	EDX,DWORD [24+ESI]
   814 000004AE 03 05 [00002B6C]                	ADD	EAX,DWORD [_processctl]
   815 000004B4 81 C7 0000009C                  	ADD	EDI,156
   816 000004BA C7 80 00000FFC 00000000         	MOV	DWORD [4092+EAX],0
   817 000004C4 89 90 00000FF8                  	MOV	DWORD [4088+EAX],EDX
   818 000004CA 05 00001024                     	ADD	EAX,4132
   819 000004CF 68 00000089                     	PUSH	137
   820 000004D4 50                              	PUSH	EAX
   821 000004D5 8D 86 00270018                  	LEA	EAX,DWORD [2555928+ESI]
   822 000004DB 6A 67                           	PUSH	103
   823 000004DD 83 C6 08                        	ADD	ESI,8
   824 000004E0 50                              	PUSH	EAX
   825 000004E1 E8 0000168D                     	CALL	_setSegmdesc
   826 000004E6 83 C4 10                        	ADD	ESP,16
   827 000004E9 4B                              	DEC	EBX
   828 000004EA 79 BD                           	JNS	L114
   829 000004EC 8B 0D [00002B6C]                	MOV	ECX,DWORD [_processctl]
   830 000004F2 31 D2                           	XOR	EDX,EDX
   831 000004F4 BB 00000009                     	MOV	EBX,9
   832 000004F9                                 L119:
   833 000004F9 8D 04 11                        	LEA	EAX,DWORD [ECX+EDX*1]
   834 000004FC 81 C2 00000198                  	ADD	EDX,408
   835 00000502 4B                              	DEC	EBX
   836 00000503 C7 40 08 00000000               	MOV	DWORD [8+EAX],0
   837 0000050A C7 40 0C 00000000               	MOV	DWORD [12+EAX],0
   838 00000511 79 E6                           	JNS	L119
   839 00000513 E8 000000A5                     	CALL	_processAlloc
   840 00000518 89 C6                           	MOV	ESI,EAX
   841 0000051A C7 40 04 00000002               	MOV	DWORD [4+EAX],2
   842 00000521 C7 40 0C 00000002               	MOV	DWORD [12+EAX],2
   843 00000528 C7 40 08 00000000               	MOV	DWORD [8+EAX],0
   844 0000052F 50                              	PUSH	EAX
   845 00000530 E8 FFFFFE9E                     	CALL	_processAdd
   846 00000535 E8 FFFFFF25                     	CALL	_processSwitchSub
   847 0000053A FF 36                           	PUSH	DWORD [ESI]
   848 0000053C E8 [00000000]                   	CALL	_loadTr
   849 00000541 E8 FFFFFD0E                     	CALL	_timerAlloc
   850 00000546 6A 02                           	PUSH	2
   851 00000548 A3 [00002B70]                   	MOV	DWORD [_mpTimer],EAX
   852 0000054D 50                              	PUSH	EAX
   853 0000054E E8 FFFFFD4B                     	CALL	_timerSetTime
   854 00000553 E8 00000065                     	CALL	_processAlloc
   855 00000558 68 00010000                     	PUSH	65536
   856 0000055D FF 75 08                        	PUSH	DWORD [8+EBP]
   857 00000560 89 C3                           	MOV	EBX,EAX
   858 00000562 E8 00001F07                     	CALL	_memsegAlloc4K
   859 00000567 05 00010000                     	ADD	EAX,65536
   860 0000056C 89 43 64                        	MOV	DWORD [100+EBX],EAX
   861 0000056F C7 43 4C [000003AC]             	MOV	DWORD [76+EBX],_processIdle
   862 00000576 C7 43 74 00000008               	MOV	DWORD [116+EBX],8
   863 0000057D C7 43 78 00000010               	MOV	DWORD [120+EBX],16
   864 00000584 C7 43 7C 00000008               	MOV	DWORD [124+EBX],8
   865 0000058B C7 83 00000080 00000008         	MOV	DWORD [128+EBX],8
   866 00000595 C7 83 00000084 00000008         	MOV	DWORD [132+EBX],8
   867 0000059F C7 83 00000088 00000008         	MOV	DWORD [136+EBX],8
   868 000005A9 6A 01                           	PUSH	1
   869 000005AB 6A 09                           	PUSH	9
   870 000005AD 53                              	PUSH	EBX
   871 000005AE E8 000000BE                     	CALL	_processRun
   872 000005B3 8D 65 F4                        	LEA	ESP,DWORD [-12+EBP]
   873 000005B6 5B                              	POP	EBX
   874 000005B7 89 F0                           	MOV	EAX,ESI
   875 000005B9 5E                              	POP	ESI
   876 000005BA 5F                              	POP	EDI
   877 000005BB 5D                              	POP	EBP
   878 000005BC C3                              	RET
   879 000005BD                                 	GLOBAL	_processAlloc
   880 000005BD                                 _processAlloc:
   881 000005BD 55                              	PUSH	EBP
   882 000005BE 31 C9                           	XOR	ECX,ECX
   883 000005C0 89 E5                           	MOV	EBP,ESP
   884 000005C2 31 D2                           	XOR	EDX,EDX
   885 000005C4                                 L130:
   886 000005C4 89 D0                           	MOV	EAX,EDX
   887 000005C6 03 05 [00002B6C]                	ADD	EAX,DWORD [_processctl]
   888 000005CC 83 B8 00000FFC 00               	CMP	DWORD [4092+EAX],0
   889 000005D3 74 13                           	JE	L133
   890 000005D5 41                              	INC	ECX
   891 000005D6 81 C2 0000009C                  	ADD	EDX,156
   892 000005DC 81 F9 000003E7                  	CMP	ECX,999
   893 000005E2 7E E0                           	JLE	L130
   894 000005E4 31 C0                           	XOR	EAX,EAX
   895 000005E6                                 L124:
   896 000005E6 5D                              	POP	EBP
   897 000005E7 C3                              	RET
   898 000005E8                                 L133:
   899 000005E8 05 00000FF8                     	ADD	EAX,4088
   900 000005ED C7 40 04 00000001               	MOV	DWORD [4+EAX],1
   901 000005F4 C7 40 50 00000202               	MOV	DWORD [80+EAX],514
   902 000005FB C7 40 54 00000000               	MOV	DWORD [84+EAX],0
   903 00000602 C7 40 58 00000000               	MOV	DWORD [88+EAX],0
   904 00000609 C7 40 5C 00000000               	MOV	DWORD [92+EAX],0
   905 00000610 C7 40 60 00000000               	MOV	DWORD [96+EAX],0
   906 00000617 C7 40 68 00000000               	MOV	DWORD [104+EAX],0
   907 0000061E C7 40 6C 00000000               	MOV	DWORD [108+EAX],0
   908 00000625 C7 40 70 00000000               	MOV	DWORD [112+EAX],0
   909 0000062C C7 40 74 00000000               	MOV	DWORD [116+EAX],0
   910 00000633 C7 80 00000080 00000000         	MOV	DWORD [128+EAX],0
   911 0000063D C7 80 00000084 00000000         	MOV	DWORD [132+EAX],0
   912 00000647 C7 80 00000088 00000000         	MOV	DWORD [136+EAX],0
   913 00000651 C7 80 0000008C 00000000         	MOV	DWORD [140+EAX],0
   914 0000065B C7 80 00000090 40000000         	MOV	DWORD [144+EAX],1073741824
   915 00000665 C7 40 34 00000000               	MOV	DWORD [52+EAX],0
   916 0000066C E9 FFFFFF75                     	JMP	L124
   917 00000671                                 	GLOBAL	_processRun
   918 00000671                                 _processRun:
   919 00000671 55                              	PUSH	EBP
   920 00000672 89 E5                           	MOV	EBP,ESP
   921 00000674 56                              	PUSH	ESI
   922 00000675 53                              	PUSH	EBX
   923 00000676 8B 75 0C                        	MOV	ESI,DWORD [12+EBP]
   924 00000679 8B 45 10                        	MOV	EAX,DWORD [16+EBP]
   925 0000067C 8B 5D 08                        	MOV	EBX,DWORD [8+EBP]
   926 0000067F 85 F6                           	TEST	ESI,ESI
   927 00000681 78 3B                           	JS	L139
   928 00000683                                 L135:
   929 00000683 85 C0                           	TEST	EAX,EAX
   930 00000685 7E 03                           	JLE	L136
   931 00000687 89 43 0C                        	MOV	DWORD [12+EBX],EAX
   932 0000068A                                 L136:
   933 0000068A 83 7B 04 02                     	CMP	DWORD [4+EBX],2
   934 0000068E 74 20                           	JE	L140
   935 00000690                                 L137:
   936 00000690 83 7B 04 02                     	CMP	DWORD [4+EBX],2
   937 00000694 74 0A                           	JE	L138
   938 00000696 89 73 08                        	MOV	DWORD [8+EBX],ESI
   939 00000699 53                              	PUSH	EBX
   940 0000069A E8 FFFFFD34                     	CALL	_processAdd
   941 0000069F 5E                              	POP	ESI
   942 000006A0                                 L138:
   943 000006A0 A1 [00002B6C]                   	MOV	EAX,DWORD [_processctl]
   944 000006A5 C6 40 04 01                     	MOV	BYTE [4+EAX],1
   945 000006A9 8D 65 F8                        	LEA	ESP,DWORD [-8+EBP]
   946 000006AC 5B                              	POP	EBX
   947 000006AD 5E                              	POP	ESI
   948 000006AE 5D                              	POP	EBP
   949 000006AF C3                              	RET
   950 000006B0                                 L140:
   951 000006B0 39 73 08                        	CMP	DWORD [8+EBX],ESI
   952 000006B3 74 DB                           	JE	L137
   953 000006B5 53                              	PUSH	EBX
   954 000006B6 E8 FFFFFD41                     	CALL	_processRemove
   955 000006BB 58                              	POP	EAX
   956 000006BC EB D2                           	JMP	L137
   957 000006BE                                 L139:
   958 000006BE 8B 73 08                        	MOV	ESI,DWORD [8+EBX]
   959 000006C1 EB C0                           	JMP	L135
   960 000006C3                                 	GLOBAL	_processSwitch
   961 000006C3                                 _processSwitch:
   962 000006C3 55                              	PUSH	EBP
   963 000006C4 89 E5                           	MOV	EBP,ESP
   964 000006C6 56                              	PUSH	ESI
   965 000006C7 53                              	PUSH	EBX
   966 000006C8 8B 1D [00002B6C]                	MOV	EBX,DWORD [_processctl]
   967 000006CE 8B 13                           	MOV	EDX,DWORD [EBX]
   968 000006D0 69 D2 00000198                  	IMUL	EDX,EDX,408
   969 000006D6 8D 14 1A                        	LEA	EDX,DWORD [EDX+EBX*1]
   970 000006D9 8D 4A 08                        	LEA	ECX,DWORD [8+EDX]
   971 000006DC 8B 41 04                        	MOV	EAX,DWORD [4+ECX]
   972 000006DF 8B 74 81 08                     	MOV	ESI,DWORD [8+ECX+EAX*4]
   973 000006E3 40                              	INC	EAX
   974 000006E4 89 41 04                        	MOV	DWORD [4+ECX],EAX
   975 000006E7 3B 42 08                        	CMP	EAX,DWORD [8+EDX]
   976 000006EA 74 4C                           	JE	L145
   977 000006EC                                 L142:
   978 000006EC 80 7B 04 00                     	CMP	BYTE [4+EBX],0
   979 000006F0 75 2D                           	JNE	L146
   980 000006F2                                 L143:
   981 000006F2 8B 41 04                        	MOV	EAX,DWORD [4+ECX]
   982 000006F5 8B 5C 81 08                     	MOV	EBX,DWORD [8+ECX+EAX*4]
   983 000006F9 FF 73 0C                        	PUSH	DWORD [12+EBX]
   984 000006FC FF 35 [00002B70]                	PUSH	DWORD [_mpTimer]
   985 00000702 E8 FFFFFB97                     	CALL	_timerSetTime
   986 00000707 39 F3                           	CMP	EBX,ESI
   987 00000709 59                              	POP	ECX
   988 0000070A 58                              	POP	EAX
   989 0000070B 74 0B                           	JE	L141
   990 0000070D FF 33                           	PUSH	DWORD [EBX]
   991 0000070F 6A 00                           	PUSH	0
   992 00000711 E8 [00000000]                   	CALL	_farJmp
   993 00000716 58                              	POP	EAX
   994 00000717 5A                              	POP	EDX
   995 00000718                                 L141:
   996 00000718 8D 65 F8                        	LEA	ESP,DWORD [-8+EBP]
   997 0000071B 5B                              	POP	EBX
   998 0000071C 5E                              	POP	ESI
   999 0000071D 5D                              	POP	EBP
  1000 0000071E C3                              	RET
  1001 0000071F                                 L146:
  1002 0000071F E8 FFFFFD3B                     	CALL	_processSwitchSub
  1003 00000724 8B 15 [00002B6C]                	MOV	EDX,DWORD [_processctl]
  1004 0000072A 8B 02                           	MOV	EAX,DWORD [EDX]
  1005 0000072C 69 C0 00000198                  	IMUL	EAX,EAX,408
  1006 00000732 8D 4C 10 08                     	LEA	ECX,DWORD [8+EAX+EDX*1]
  1007 00000736 EB BA                           	JMP	L143
  1008 00000738                                 L145:
  1009 00000738 C7 41 04 00000000               	MOV	DWORD [4+ECX],0
  1010 0000073F EB AB                           	JMP	L142
  1011 00000741                                 	GLOBAL	_processSleep
  1012 00000741                                 _processSleep:
  1013 00000741 55                              	PUSH	EBP
  1014 00000742 89 E5                           	MOV	EBP,ESP
  1015 00000744 56                              	PUSH	ESI
  1016 00000745 53                              	PUSH	EBX
  1017 00000746 8B 75 08                        	MOV	ESI,DWORD [8+EBP]
  1018 00000749 83 7E 04 02                     	CMP	DWORD [4+ESI],2
  1019 0000074D 74 07                           	JE	L150
  1020 0000074F                                 L147:
  1021 0000074F 8D 65 F8                        	LEA	ESP,DWORD [-8+EBP]
  1022 00000752 5B                              	POP	EBX
  1023 00000753 5E                              	POP	ESI
  1024 00000754 5D                              	POP	EBP
  1025 00000755 C3                              	RET
  1026 00000756                                 L150:
  1027 00000756 E8 FFFFFC5B                     	CALL	_processNow
  1028 0000075B 56                              	PUSH	ESI
  1029 0000075C 89 C3                           	MOV	EBX,EAX
  1030 0000075E E8 FFFFFC99                     	CALL	_processRemove
  1031 00000763 59                              	POP	ECX
  1032 00000764 39 DE                           	CMP	ESI,EBX
  1033 00000766 75 E7                           	JNE	L147
  1034 00000768 E8 FFFFFCF2                     	CALL	_processSwitchSub
  1035 0000076D E8 FFFFFC44                     	CALL	_processNow
  1036 00000772 FF 30                           	PUSH	DWORD [EAX]
  1037 00000774 6A 00                           	PUSH	0
  1038 00000776 E8 [00000000]                   	CALL	_farJmp
  1039 0000077B 58                              	POP	EAX
  1040 0000077C 5A                              	POP	EDX
  1041 0000077D EB D0                           	JMP	L147
  1042 0000077F                                 	GLOBAL	_makeTextBox
  1043 0000077F                                 _makeTextBox:
  1044 0000077F 55                              	PUSH	EBP
  1045 00000780 89 E5                           	MOV	EBP,ESP
  1046 00000782 57                              	PUSH	EDI
  1047 00000783 56                              	PUSH	ESI
  1048 00000784 53                              	PUSH	EBX
  1049 00000785 83 EC 14                        	SUB	ESP,20
  1050 00000788 8B 45 0C                        	MOV	EAX,DWORD [12+EBP]
  1051 0000078B 8B 75 10                        	MOV	ESI,DWORD [16+EBP]
  1052 0000078E 03 45 14                        	ADD	EAX,DWORD [20+EBP]
  1053 00000791 83 EE 03                        	SUB	ESI,3
  1054 00000794 56                              	PUSH	ESI
  1055 00000795 89 45 F0                        	MOV	DWORD [-16+EBP],EAX
  1056 00000798 8B 45 10                        	MOV	EAX,DWORD [16+EBP]
  1057 0000079B 03 45 18                        	ADD	EAX,DWORD [24+EBP]
  1058 0000079E 89 45 EC                        	MOV	DWORD [-20+EBP],EAX
  1059 000007A1 8B 45 F0                        	MOV	EAX,DWORD [-16+EBP]
  1060 000007A4 40                              	INC	EAX
  1061 000007A5 50                              	PUSH	EAX
  1062 000007A6 89 45 E8                        	MOV	DWORD [-24+EBP],EAX
  1063 000007A9 8B 45 0C                        	MOV	EAX,DWORD [12+EBP]
  1064 000007AC 56                              	PUSH	ESI
  1065 000007AD 83 E8 02                        	SUB	EAX,2
  1066 000007B0 50                              	PUSH	EAX
  1067 000007B1 89 45 E4                        	MOV	DWORD [-28+EBP],EAX
  1068 000007B4 8B 45 08                        	MOV	EAX,DWORD [8+EBP]
  1069 000007B7 6A 0F                           	PUSH	15
  1070 000007B9 FF 70 04                        	PUSH	DWORD [4+EAX]
  1071 000007BC FF 30                           	PUSH	DWORD [EAX]
  1072 000007BE E8 000016B8                     	CALL	_boxFill8
  1073 000007C3 8B 7D 0C                        	MOV	EDI,DWORD [12+EBP]
  1074 000007C6 8B 45 EC                        	MOV	EAX,DWORD [-20+EBP]
  1075 000007C9 83 EF 03                        	SUB	EDI,3
  1076 000007CC 40                              	INC	EAX
  1077 000007CD 50                              	PUSH	EAX
  1078 000007CE 89 45 E0                        	MOV	DWORD [-32+EBP],EAX
  1079 000007D1 57                              	PUSH	EDI
  1080 000007D2 8B 45 08                        	MOV	EAX,DWORD [8+EBP]
  1081 000007D5 56                              	PUSH	ESI
  1082 000007D6 57                              	PUSH	EDI
  1083 000007D7 6A 0F                           	PUSH	15
  1084 000007D9 FF 70 04                        	PUSH	DWORD [4+EAX]
  1085 000007DC FF 30                           	PUSH	DWORD [EAX]
  1086 000007DE E8 00001698                     	CALL	_boxFill8
  1087 000007E3 8B 45 08                        	MOV	EAX,DWORD [8+EBP]
  1088 000007E6 83 C4 38                        	ADD	ESP,56
  1089 000007E9 8B 5D EC                        	MOV	EBX,DWORD [-20+EBP]
  1090 000007EC 83 C3 02                        	ADD	EBX,2
  1091 000007EF 53                              	PUSH	EBX
  1092 000007F0 FF 75 E8                        	PUSH	DWORD [-24+EBP]
  1093 000007F3 53                              	PUSH	EBX
  1094 000007F4 57                              	PUSH	EDI
  1095 000007F5 6A 07                           	PUSH	7
  1096 000007F7 FF 70 04                        	PUSH	DWORD [4+EAX]
  1097 000007FA FF 30                           	PUSH	DWORD [EAX]
  1098 000007FC E8 0000167A                     	CALL	_boxFill8
  1099 00000801 8B 45 F0                        	MOV	EAX,DWORD [-16+EBP]
  1100 00000804 53                              	PUSH	EBX
  1101 00000805 83 C0 02                        	ADD	EAX,2
  1102 00000808 50                              	PUSH	EAX
  1103 00000809 56                              	PUSH	ESI
  1104 0000080A 50                              	PUSH	EAX
  1105 0000080B 8B 45 08                        	MOV	EAX,DWORD [8+EBP]
  1106 0000080E 6A 07                           	PUSH	7
  1107 00000810 FF 70 04                        	PUSH	DWORD [4+EAX]
  1108 00000813 FF 30                           	PUSH	DWORD [EAX]
  1109 00000815 E8 00001661                     	CALL	_boxFill8
  1110 0000081A 8B 45 08                        	MOV	EAX,DWORD [8+EBP]
  1111 0000081D 83 C4 38                        	ADD	ESP,56
  1112 00000820 8B 5D 10                        	MOV	EBX,DWORD [16+EBP]
  1113 00000823 83 EB 02                        	SUB	EBX,2
  1114 00000826 8B 7D 0C                        	MOV	EDI,DWORD [12+EBP]
  1115 00000829 53                              	PUSH	EBX
  1116 0000082A 4F                              	DEC	EDI
  1117 0000082B FF 75 F0                        	PUSH	DWORD [-16+EBP]
  1118 0000082E 53                              	PUSH	EBX
  1119 0000082F 57                              	PUSH	EDI
  1120 00000830 6A 00                           	PUSH	0
  1121 00000832 FF 70 04                        	PUSH	DWORD [4+EAX]
  1122 00000835 FF 30                           	PUSH	DWORD [EAX]
  1123 00000837 E8 0000163F                     	CALL	_boxFill8
  1124 0000083C 8B 45 08                        	MOV	EAX,DWORD [8+EBP]
  1125 0000083F FF 75 EC                        	PUSH	DWORD [-20+EBP]
  1126 00000842 FF 75 E4                        	PUSH	DWORD [-28+EBP]
  1127 00000845 53                              	PUSH	EBX
  1128 00000846 FF 75 E4                        	PUSH	DWORD [-28+EBP]
  1129 00000849 6A 00                           	PUSH	0
  1130 0000084B FF 70 04                        	PUSH	DWORD [4+EAX]
  1131 0000084E FF 30                           	PUSH	DWORD [EAX]
  1132 00000850 E8 00001626                     	CALL	_boxFill8
  1133 00000855 8B 45 08                        	MOV	EAX,DWORD [8+EBP]
  1134 00000858 83 C4 38                        	ADD	ESP,56
  1135 0000085B FF 75 E0                        	PUSH	DWORD [-32+EBP]
  1136 0000085E FF 75 F0                        	PUSH	DWORD [-16+EBP]
  1137 00000861 FF 75 E0                        	PUSH	DWORD [-32+EBP]
  1138 00000864 FF 75 E4                        	PUSH	DWORD [-28+EBP]
  1139 00000867 6A 08                           	PUSH	8
  1140 00000869 FF 70 04                        	PUSH	DWORD [4+EAX]
  1141 0000086C FF 30                           	PUSH	DWORD [EAX]
  1142 0000086E E8 00001608                     	CALL	_boxFill8
  1143 00000873 8B 45 08                        	MOV	EAX,DWORD [8+EBP]
  1144 00000876 FF 75 E0                        	PUSH	DWORD [-32+EBP]
  1145 00000879 FF 75 E8                        	PUSH	DWORD [-24+EBP]
  1146 0000087C 53                              	PUSH	EBX
  1147 0000087D FF 75 E8                        	PUSH	DWORD [-24+EBP]
  1148 00000880 6A 08                           	PUSH	8
  1149 00000882 FF 70 04                        	PUSH	DWORD [4+EAX]
  1150 00000885 FF 30                           	PUSH	DWORD [EAX]
  1151 00000887 E8 000015EF                     	CALL	_boxFill8
  1152 0000088C 8B 45 10                        	MOV	EAX,DWORD [16+EBP]
  1153 0000088F 83 C4 38                        	ADD	ESP,56
  1154 00000892 48                              	DEC	EAX
  1155 00000893 FF 75 EC                        	PUSH	DWORD [-20+EBP]
  1156 00000896 FF 75 F0                        	PUSH	DWORD [-16+EBP]
  1157 00000899 50                              	PUSH	EAX
  1158 0000089A 57                              	PUSH	EDI
  1159 0000089B 0F B6 45 1C                     	MOVZX	EAX,BYTE [28+EBP]
  1160 0000089F 50                              	PUSH	EAX
  1161 000008A0 8B 45 08                        	MOV	EAX,DWORD [8+EBP]
  1162 000008A3 FF 70 04                        	PUSH	DWORD [4+EAX]
  1163 000008A6 FF 30                           	PUSH	DWORD [EAX]
  1164 000008A8 E8 000015CE                     	CALL	_boxFill8
  1165 000008AD 8D 65 F4                        	LEA	ESP,DWORD [-12+EBP]
  1166 000008B0 5B                              	POP	EBX
  1167 000008B1 5E                              	POP	ESI
  1168 000008B2 5F                              	POP	EDI
  1169 000008B3 5D                              	POP	EBP
  1170 000008B4 C3                              	RET
  1171                                          [SECTION .data]
  1172 00000100                                 _closeBtn.0:
  1173 00000100 4F 4F 4F 4F 4F 4F 4F 4F 4F 4F   	DB	"OOOOOOOOOOOOOOO@"
       0000010A 4F 4F 4F 4F 4F 40 
  1174 00000110 4F 51 51 51 51 51 51 51 51 51   	DB	"OQQQQQQQQQQQQQ$@"
       0000011A 51 51 51 51 24 40 
  1175 00000120 4F 51 51 51 51 51 51 51 51 51   	DB	"OQQQQQQQQQQQQQ$@"
       0000012A 51 51 51 51 24 40 
  1176 00000130 4F 51 51 51 40 40 51 51 51 51   	DB	"OQQQ@@QQQQ@@QQ$@"
       0000013A 40 40 51 51 24 40 
  1177 00000140 4F 51 51 51 51 40 40 51 51 40   	DB	"OQQQQ@@QQ@@QQQ$@"
       0000014A 40 51 51 51 24 40 
  1178 00000150 4F 51 51 51 51 51 40 40 40 40   	DB	"OQQQQQ@@@@QQQQ$@"
       0000015A 51 51 51 51 24 40 
  1179 00000160 4F 51 51 51 51 51 51 40 40 51   	DB	"OQQQQQQ@@QQQQQ$@"
       0000016A 51 51 51 51 24 40 
  1180 00000170 4F 51 51 51 51 51 40 40 40 40   	DB	"OQQQQQ@@@@QQQQ$@"
       0000017A 51 51 51 51 24 40 
  1181 00000180 4F 51 51 51 51 40 40 51 51 40   	DB	"OQQQQ@@QQ@@QQQ$@"
       0000018A 40 51 51 51 24 40 
  1182 00000190 4F 51 51 51 40 40 51 51 51 51   	DB	"OQQQ@@QQQQ@@QQ$@"
       0000019A 40 40 51 51 24 40 
  1183 000001A0 4F 51 51 51 51 51 51 51 51 51   	DB	"OQQQQQQQQQQQQQ$@"
       000001AA 51 51 51 51 24 40 
  1184 000001B0 4F 51 51 51 51 51 51 51 51 51   	DB	"OQQQQQQQQQQQQQ$@"
       000001BA 51 51 51 51 24 40 
  1185 000001C0 4F 24 24 24 24 24 24 24 24 24   	DB	"O$$$$$$$$$$$$$$@"
       000001CA 24 24 24 24 24 40 
  1186 000001D0 40 40 40 40 40 40 40 40 40 40   	DB	"@@@@@@@@@@@@@@@@"
       000001DA 40 40 40 40 40 40 
  1187                                          [SECTION .text]
  1188 000008B5                                 	GLOBAL	_makeWindowTitle
  1189 000008B5                                 _makeWindowTitle:
  1190 000008B5 55                              	PUSH	EBP
  1191 000008B6 89 E5                           	MOV	EBP,ESP
  1192 000008B8 57                              	PUSH	EDI
  1193 000008B9 56                              	PUSH	ESI
  1194 000008BA 53                              	PUSH	EBX
  1195 000008BB 53                              	PUSH	EBX
  1196 000008BC 80 7D 14 00                     	CMP	BYTE [20+EBP],0
  1197 000008C0 0F 84 00000097                  	JE	L153
  1198 000008C6 B3 07                           	MOV	BL,7
  1199 000008C8 B2 0C                           	MOV	DL,12
  1200 000008CA                                 L154:
  1201 000008CA 8B 45 0C                        	MOV	EAX,DWORD [12+EBP]
  1202 000008CD 6A 14                           	PUSH	20
  1203 000008CF 83 E8 04                        	SUB	EAX,4
  1204 000008D2 31 FF                           	XOR	EDI,EDI
  1205 000008D4 50                              	PUSH	EAX
  1206 000008D5 6A 03                           	PUSH	3
  1207 000008D7 6A 03                           	PUSH	3
  1208 000008D9 0F B6 C2                        	MOVZX	EAX,DL
  1209 000008DC 50                              	PUSH	EAX
  1210 000008DD FF 75 0C                        	PUSH	DWORD [12+EBP]
  1211 000008E0 FF 75 08                        	PUSH	DWORD [8+EBP]
  1212 000008E3 E8 00001593                     	CALL	_boxFill8
  1213 000008E8 FF 75 10                        	PUSH	DWORD [16+EBP]
  1214 000008EB 0F BE C3                        	MOVSX	EAX,BL
  1215 000008EE 50                              	PUSH	EAX
  1216 000008EF 6A 04                           	PUSH	4
  1217 000008F1 6A 18                           	PUSH	24
  1218 000008F3 FF 75 0C                        	PUSH	DWORD [12+EBP]
  1219 000008F6 FF 75 08                        	PUSH	DWORD [8+EBP]
  1220 000008F9 E8 000017DF                     	CALL	_putFont8_asc
  1221 000008FE 83 C4 34                        	ADD	ESP,52
  1222 00000901 6B 5D 0C 05                     	IMUL	EBX,DWORD [12+EBP],5
  1223 00000905 C7 45 F0 00000000               	MOV	DWORD [-16+EBP],0
  1224 0000090C                                 L170:
  1225 0000090C 8B 45 0C                        	MOV	EAX,DWORD [12+EBP]
  1226 0000090F 8B 55 08                        	MOV	EDX,DWORD [8+EBP]
  1227 00000912 01 D8                           	ADD	EAX,EBX
  1228 00000914 31 F6                           	XOR	ESI,ESI
  1229 00000916 8D 4C 02 EB                     	LEA	ECX,DWORD [-21+EDX+EAX*1]
  1230 0000091A                                 L169:
  1231 0000091A 8A 94 3E [00000100]             	MOV	DL,BYTE [_closeBtn.0+ESI+EDI*1]
  1232 00000921 80 FA 40                        	CMP	DL,64
  1233 00000924 74 33                           	JE	L175
  1234 00000926 80 FA 24                        	CMP	DL,36
  1235 00000929 74 2A                           	JE	L176
  1236 0000092B 80 FA 51                        	CMP	DL,81
  1237 0000092E B2 08                           	MOV	DL,8
  1238 00000930 0F 95 C0                        	SETNE	AL
  1239 00000933 28 C2                           	SUB	DL,AL
  1240 00000935                                 L164:
  1241 00000935 46                              	INC	ESI
  1242 00000936 88 11                           	MOV	BYTE [ECX],DL
  1243 00000938 41                              	INC	ECX
  1244 00000939 83 FE 0F                        	CMP	ESI,15
  1245 0000093C 7E DC                           	JLE	L169
  1246 0000093E FF 45 F0                        	INC	DWORD [-16+EBP]
  1247 00000941 83 C7 10                        	ADD	EDI,16
  1248 00000944 03 5D 0C                        	ADD	EBX,DWORD [12+EBP]
  1249 00000947 83 7D F0 0D                     	CMP	DWORD [-16+EBP],13
  1250 0000094B 7E BF                           	JLE	L170
  1251 0000094D 8D 65 F4                        	LEA	ESP,DWORD [-12+EBP]
  1252 00000950 5B                              	POP	EBX
  1253 00000951 5E                              	POP	ESI
  1254 00000952 5F                              	POP	EDI
  1255 00000953 5D                              	POP	EBP
  1256 00000954 C3                              	RET
  1257 00000955                                 L176:
  1258 00000955 B2 0F                           	MOV	DL,15
  1259 00000957 EB DC                           	JMP	L164
  1260 00000959                                 L175:
  1261 00000959 31 D2                           	XOR	EDX,EDX
  1262 0000095B EB D8                           	JMP	L164
  1263 0000095D                                 L153:
  1264 0000095D B3 08                           	MOV	BL,8
  1265 0000095F B2 0F                           	MOV	DL,15
  1266 00000961 E9 FFFFFF64                     	JMP	L154
  1267 00000966                                 	GLOBAL	_makeWindow
  1268 00000966                                 _makeWindow:
  1269 00000966 55                              	PUSH	EBP
  1270 00000967 89 E5                           	MOV	EBP,ESP
  1271 00000969 57                              	PUSH	EDI
  1272 0000096A 56                              	PUSH	ESI
  1273 0000096B 53                              	PUSH	EBX
  1274 0000096C 83 EC 18                        	SUB	ESP,24
  1275 0000096F 8B 45 10                        	MOV	EAX,DWORD [16+EBP]
  1276 00000972 8B 5D 0C                        	MOV	EBX,DWORD [12+EBP]
  1277 00000975 89 45 F0                        	MOV	DWORD [-16+EBP],EAX
  1278 00000978 8B 75 08                        	MOV	ESI,DWORD [8+EBP]
  1279 0000097B 8B 45 14                        	MOV	EAX,DWORD [20+EBP]
  1280 0000097E 89 45 EC                        	MOV	DWORD [-20+EBP],EAX
  1281 00000981 0F BE 45 18                     	MOVSX	EAX,BYTE [24+EBP]
  1282 00000985 89 45 E8                        	MOV	DWORD [-24+EBP],EAX
  1283 00000988 8D 43 FF                        	LEA	EAX,DWORD [-1+EBX]
  1284 0000098B 6A 00                           	PUSH	0
  1285 0000098D 89 45 E4                        	MOV	DWORD [-28+EBP],EAX
  1286 00000990 50                              	PUSH	EAX
  1287 00000991 6A 00                           	PUSH	0
  1288 00000993 6A 00                           	PUSH	0
  1289 00000995 6A 08                           	PUSH	8
  1290 00000997 53                              	PUSH	EBX
  1291 00000998 56                              	PUSH	ESI
  1292 00000999 E8 000014DD                     	CALL	_boxFill8
  1293 0000099E 8D 43 FE                        	LEA	EAX,DWORD [-2+EBX]
  1294 000009A1 6A 01                           	PUSH	1
  1295 000009A3 89 45 E0                        	MOV	DWORD [-32+EBP],EAX
  1296 000009A6 50                              	PUSH	EAX
  1297 000009A7 6A 01                           	PUSH	1
  1298 000009A9 6A 01                           	PUSH	1
  1299 000009AB 6A 07                           	PUSH	7
  1300 000009AD 53                              	PUSH	EBX
  1301 000009AE 56                              	PUSH	ESI
  1302 000009AF E8 000014C7                     	CALL	_boxFill8
  1303 000009B4 8B 45 F0                        	MOV	EAX,DWORD [-16+EBP]
  1304 000009B7 83 C4 38                        	ADD	ESP,56
  1305 000009BA 48                              	DEC	EAX
  1306 000009BB 89 45 DC                        	MOV	DWORD [-36+EBP],EAX
  1307 000009BE 50                              	PUSH	EAX
  1308 000009BF 6A 00                           	PUSH	0
  1309 000009C1 6A 00                           	PUSH	0
  1310 000009C3 6A 00                           	PUSH	0
  1311 000009C5 6A 08                           	PUSH	8
  1312 000009C7 53                              	PUSH	EBX
  1313 000009C8 56                              	PUSH	ESI
  1314 000009C9 E8 000014AD                     	CALL	_boxFill8
  1315 000009CE 8B 7D F0                        	MOV	EDI,DWORD [-16+EBP]
  1316 000009D1 83 EF 02                        	SUB	EDI,2
  1317 000009D4 57                              	PUSH	EDI
  1318 000009D5 6A 01                           	PUSH	1
  1319 000009D7 6A 01                           	PUSH	1
  1320 000009D9 6A 01                           	PUSH	1
  1321 000009DB 6A 07                           	PUSH	7
  1322 000009DD 53                              	PUSH	EBX
  1323 000009DE 56                              	PUSH	ESI
  1324 000009DF E8 00001497                     	CALL	_boxFill8
  1325 000009E4 83 C4 38                        	ADD	ESP,56
  1326 000009E7 57                              	PUSH	EDI
  1327 000009E8 FF 75 E0                        	PUSH	DWORD [-32+EBP]
  1328 000009EB 6A 01                           	PUSH	1
  1329 000009ED FF 75 E0                        	PUSH	DWORD [-32+EBP]
  1330 000009F0 6A 0F                           	PUSH	15
  1331 000009F2 53                              	PUSH	EBX
  1332 000009F3 56                              	PUSH	ESI
  1333 000009F4 E8 00001482                     	CALL	_boxFill8
  1334 000009F9 FF 75 DC                        	PUSH	DWORD [-36+EBP]
  1335 000009FC FF 75 E4                        	PUSH	DWORD [-28+EBP]
  1336 000009FF 6A 00                           	PUSH	0
  1337 00000A01 FF 75 E4                        	PUSH	DWORD [-28+EBP]
  1338 00000A04 6A 00                           	PUSH	0
  1339 00000A06 53                              	PUSH	EBX
  1340 00000A07 56                              	PUSH	ESI
  1341 00000A08 E8 0000146E                     	CALL	_boxFill8
  1342 00000A0D 8B 45 F0                        	MOV	EAX,DWORD [-16+EBP]
  1343 00000A10 83 C4 38                        	ADD	ESP,56
  1344 00000A13 83 E8 03                        	SUB	EAX,3
  1345 00000A16 50                              	PUSH	EAX
  1346 00000A17 8D 43 FD                        	LEA	EAX,DWORD [-3+EBX]
  1347 00000A1A 50                              	PUSH	EAX
  1348 00000A1B 6A 02                           	PUSH	2
  1349 00000A1D 6A 02                           	PUSH	2
  1350 00000A1F 6A 08                           	PUSH	8
  1351 00000A21 53                              	PUSH	EBX
  1352 00000A22 56                              	PUSH	ESI
  1353 00000A23 E8 00001453                     	CALL	_boxFill8
  1354 00000A28 57                              	PUSH	EDI
  1355 00000A29 FF 75 E0                        	PUSH	DWORD [-32+EBP]
  1356 00000A2C 57                              	PUSH	EDI
  1357 00000A2D 6A 01                           	PUSH	1
  1358 00000A2F 6A 0F                           	PUSH	15
  1359 00000A31 53                              	PUSH	EBX
  1360 00000A32 56                              	PUSH	ESI
  1361 00000A33 E8 00001443                     	CALL	_boxFill8
  1362 00000A38 83 C4 38                        	ADD	ESP,56
  1363 00000A3B FF 75 DC                        	PUSH	DWORD [-36+EBP]
  1364 00000A3E FF 75 E4                        	PUSH	DWORD [-28+EBP]
  1365 00000A41 FF 75 DC                        	PUSH	DWORD [-36+EBP]
  1366 00000A44 6A 00                           	PUSH	0
  1367 00000A46 6A 00                           	PUSH	0
  1368 00000A48 53                              	PUSH	EBX
  1369 00000A49 56                              	PUSH	ESI
  1370 00000A4A E8 0000142C                     	CALL	_boxFill8
  1371 00000A4F 89 75 08                        	MOV	DWORD [8+EBP],ESI
  1372 00000A52 8B 45 E8                        	MOV	EAX,DWORD [-24+EBP]
  1373 00000A55 89 5D 0C                        	MOV	DWORD [12+EBP],EBX
  1374 00000A58 89 45 14                        	MOV	DWORD [20+EBP],EAX
  1375 00000A5B 83 C4 1C                        	ADD	ESP,28
  1376 00000A5E 8B 45 EC                        	MOV	EAX,DWORD [-20+EBP]
  1377 00000A61 89 45 10                        	MOV	DWORD [16+EBP],EAX
  1378 00000A64 8D 65 F4                        	LEA	ESP,DWORD [-12+EBP]
  1379 00000A67 5B                              	POP	EBX
  1380 00000A68 5E                              	POP	ESI
  1381 00000A69 5F                              	POP	EDI
  1382 00000A6A 5D                              	POP	EBP
  1383 00000A6B E9 FFFFFE45                     	JMP	_makeWindowTitle
  1384 00000A70                                 	GLOBAL	_changeWinTitle
  1385 00000A70                                 _changeWinTitle:
  1386 00000A70 55                              	PUSH	EBP
  1387 00000A71 89 E5                           	MOV	EBP,ESP
  1388 00000A73 57                              	PUSH	EDI
  1389 00000A74 56                              	PUSH	ESI
  1390 00000A75 53                              	PUSH	EBX
  1391 00000A76 83 EC 14                        	SUB	ESP,20
  1392 00000A79 8B 45 08                        	MOV	EAX,DWORD [8+EBP]
  1393 00000A7C 80 7D 0C 00                     	CMP	BYTE [12+EBP],0
  1394 00000A80 8B 48 04                        	MOV	ECX,DWORD [4+EAX]
  1395 00000A83 0F 84 00000086                  	JE	L179
  1396 00000A89 C6 45 ED 07                     	MOV	BYTE [-19+EBP],7
  1397 00000A8D C6 45 EC 0C                     	MOV	BYTE [-20+EBP],12
  1398 00000A91 C6 45 EF 08                     	MOV	BYTE [-17+EBP],8
  1399 00000A95 C6 45 EE 0F                     	MOV	BYTE [-18+EBP],15
  1400 00000A99                                 L180:
  1401 00000A99 6B F1 03                        	IMUL	ESI,ECX,3
  1402 00000A9C C7 45 F0 00000010               	MOV	DWORD [-16+EBP],16
  1403 00000AA3 89 75 E0                        	MOV	DWORD [-32+EBP],ESI
  1404 00000AA6                                 L193:
  1405 00000AA6 BB 00000003                     	MOV	EBX,3
  1406 00000AAB 8D 41 FC                        	LEA	EAX,DWORD [-4+ECX]
  1407 00000AAE 39 C3                           	CMP	EBX,EAX
  1408 00000AB0 7D 2B                           	JGE	L197
  1409 00000AB2                                 L192:
  1410 00000AB2 8B 7D 08                        	MOV	EDI,DWORD [8+EBP]
  1411 00000AB5 8B 55 E0                        	MOV	EDX,DWORD [-32+EBP]
  1412 00000AB8 01 DA                           	ADD	EDX,EBX
  1413 00000ABA 8B 3F                           	MOV	EDI,DWORD [EDI]
  1414 00000ABC 89 7D E8                        	MOV	DWORD [-24+EBP],EDI
  1415 00000ABF 8A 14 3A                        	MOV	DL,BYTE [EDX+EDI*1]
  1416 00000AC2 3A 55 EF                        	CMP	DL,BYTE [-17+EBP]
  1417 00000AC5 74 3C                           	JE	L198
  1418 00000AC7                                 L189:
  1419 00000AC7 3A 55 EE                        	CMP	DL,BYTE [-18+EBP]
  1420 00000ACA 74 32                           	JE	L199
  1421 00000ACC                                 L190:
  1422 00000ACC 8D 04 33                        	LEA	EAX,DWORD [EBX+ESI*1]
  1423 00000ACF 8B 7D E8                        	MOV	EDI,DWORD [-24+EBP]
  1424 00000AD2 43                              	INC	EBX
  1425 00000AD3 88 14 38                        	MOV	BYTE [EAX+EDI*1],DL
  1426 00000AD6 8D 41 FC                        	LEA	EAX,DWORD [-4+ECX]
  1427 00000AD9 39 C3                           	CMP	EBX,EAX
  1428 00000ADB 7C D5                           	JL	L192
  1429 00000ADD                                 L197:
  1430 00000ADD 01 CE                           	ADD	ESI,ECX
  1431 00000ADF 01 4D E0                        	ADD	DWORD [-32+EBP],ECX
  1432 00000AE2 FF 4D F0                        	DEC	DWORD [-16+EBP]
  1433 00000AE5 79 BF                           	JNS	L193
  1434 00000AE7 6A 15                           	PUSH	21
  1435 00000AE9 51                              	PUSH	ECX
  1436 00000AEA 6A 03                           	PUSH	3
  1437 00000AEC 6A 03                           	PUSH	3
  1438 00000AEE FF 75 08                        	PUSH	DWORD [8+EBP]
  1439 00000AF1 E8 00001D1F                     	CALL	_sheetRefresh
  1440 00000AF6 8D 65 F4                        	LEA	ESP,DWORD [-12+EBP]
  1441 00000AF9 5B                              	POP	EBX
  1442 00000AFA 5E                              	POP	ESI
  1443 00000AFB 5F                              	POP	EDI
  1444 00000AFC 5D                              	POP	EBP
  1445 00000AFD C3                              	RET
  1446 00000AFE                                 L199:
  1447 00000AFE 8A 55 EC                        	MOV	DL,BYTE [-20+EBP]
  1448 00000B01 EB C9                           	JMP	L190
  1449 00000B03                                 L198:
  1450 00000B03 8D 41 EA                        	LEA	EAX,DWORD [-22+ECX]
  1451 00000B06 39 C3                           	CMP	EBX,EAX
  1452 00000B08 7F BD                           	JG	L189
  1453 00000B0A 8A 55 ED                        	MOV	DL,BYTE [-19+EBP]
  1454 00000B0D EB BD                           	JMP	L190
  1455 00000B0F                                 L179:
  1456 00000B0F C6 45 ED 08                     	MOV	BYTE [-19+EBP],8
  1457 00000B13 C6 45 EC 0F                     	MOV	BYTE [-20+EBP],15
  1458 00000B17 C6 45 EF 07                     	MOV	BYTE [-17+EBP],7
  1459 00000B1B C6 45 EE 0C                     	MOV	BYTE [-18+EBP],12
  1460 00000B1F E9 FFFFFF75                     	JMP	L180
  1461 00000B24                                 	GLOBAL	_consoleNewLine
  1462 00000B24                                 _consoleNewLine:
  1463 00000B24 55                              	PUSH	EBP
  1464 00000B25 89 E5                           	MOV	EBP,ESP
  1465 00000B27 57                              	PUSH	EDI
  1466 00000B28 56                              	PUSH	ESI
  1467 00000B29 53                              	PUSH	EBX
  1468 00000B2A 56                              	PUSH	ESI
  1469 00000B2B 8B 45 08                        	MOV	EAX,DWORD [8+EBP]
  1470 00000B2E 8B 55 08                        	MOV	EDX,DWORD [8+EBP]
  1471 00000B31 8B 00                           	MOV	EAX,DWORD [EAX]
  1472 00000B33 89 45 F0                        	MOV	DWORD [-16+EBP],EAX
  1473 00000B36 8B 42 08                        	MOV	EAX,DWORD [8+EDX]
  1474 00000B39 3D 0000008B                     	CMP	EAX,139
  1475 00000B3E 7F 18                           	JG	L201
  1476 00000B40 83 C0 10                        	ADD	EAX,16
  1477 00000B43 89 42 08                        	MOV	DWORD [8+EDX],EAX
  1478 00000B46                                 L202:
  1479 00000B46 8B 45 08                        	MOV	EAX,DWORD [8+EBP]
  1480 00000B49 C7 40 04 00000008               	MOV	DWORD [4+EAX],8
  1481 00000B50 8D 65 F4                        	LEA	ESP,DWORD [-12+EBP]
  1482 00000B53 5B                              	POP	EBX
  1483 00000B54 5E                              	POP	ESI
  1484 00000B55 5F                              	POP	EDI
  1485 00000B56 5D                              	POP	EBP
  1486 00000B57 C3                              	RET
  1487 00000B58                                 L201:
  1488 00000B58 BF 0000001C                     	MOV	EDI,28
  1489 00000B5D                                 L212:
  1490 00000B5D BE 00000008                     	MOV	ESI,8
  1491 00000B62                                 L211:
  1492 00000B62 8B 45 F0                        	MOV	EAX,DWORD [-16+EBP]
  1493 00000B65 89 FA                           	MOV	EDX,EDI
  1494 00000B67 8B 48 04                        	MOV	ECX,DWORD [4+EAX]
  1495 00000B6A 8B 18                           	MOV	EBX,DWORD [EAX]
  1496 00000B6C 8D 47 10                        	LEA	EAX,DWORD [16+EDI]
  1497 00000B6F 0F AF C1                        	IMUL	EAX,ECX
  1498 00000B72 0F AF D1                        	IMUL	EDX,ECX
  1499 00000B75 8D 04 30                        	LEA	EAX,DWORD [EAX+ESI*1]
  1500 00000B78 8D 14 32                        	LEA	EDX,DWORD [EDX+ESI*1]
  1501 00000B7B 46                              	INC	ESI
  1502 00000B7C 8A 04 18                        	MOV	AL,BYTE [EAX+EBX*1]
  1503 00000B7F 81 FE 000000F7                  	CMP	ESI,247
  1504 00000B85 88 04 1A                        	MOV	BYTE [EDX+EBX*1],AL
  1505 00000B88 7E D8                           	JLE	L211
  1506 00000B8A 47                              	INC	EDI
  1507 00000B8B 81 FF 0000008B                  	CMP	EDI,139
  1508 00000B91 7E CA                           	JLE	L212
  1509 00000B93 BF 0000008C                     	MOV	EDI,140
  1510 00000B98                                 L222:
  1511 00000B98 BE 00000008                     	MOV	ESI,8
  1512 00000B9D                                 L221:
  1513 00000B9D 8B 55 F0                        	MOV	EDX,DWORD [-16+EBP]
  1514 00000BA0 89 F8                           	MOV	EAX,EDI
  1515 00000BA2 89 D1                           	MOV	ECX,EDX
  1516 00000BA4 0F AF 42 04                     	IMUL	EAX,DWORD [4+EDX]
  1517 00000BA8 8B 12                           	MOV	EDX,DWORD [EDX]
  1518 00000BAA 8D 04 30                        	LEA	EAX,DWORD [EAX+ESI*1]
  1519 00000BAD 46                              	INC	ESI
  1520 00000BAE 81 FE 000000F7                  	CMP	ESI,247
  1521 00000BB4 C6 04 10 00                     	MOV	BYTE [EAX+EDX*1],0
  1522 00000BB8 7E E3                           	JLE	L221
  1523 00000BBA 47                              	INC	EDI
  1524 00000BBB 81 FF 0000009B                  	CMP	EDI,155
  1525 00000BC1 7E D5                           	JLE	L222
  1526 00000BC3 68 0000009C                     	PUSH	156
  1527 00000BC8 68 000000F8                     	PUSH	248
  1528 00000BCD 6A 1C                           	PUSH	28
  1529 00000BCF 6A 08                           	PUSH	8
  1530 00000BD1 51                              	PUSH	ECX
  1531 00000BD2 E8 00001C3E                     	CALL	_sheetRefresh
  1532 00000BD7 83 C4 14                        	ADD	ESP,20
  1533 00000BDA E9 FFFFFF67                     	JMP	L202
  1534                                          [SECTION .data]
  1535 000001E0                                 LC0:
  1536 000001E0 20 00                           	DB	" ",0x00
  1537                                          [SECTION .text]
  1538 00000BDF                                 	GLOBAL	_consolePutchar
  1539 00000BDF                                 _consolePutchar:
  1540 00000BDF 55                              	PUSH	EBP
  1541 00000BE0 89 E5                           	MOV	EBP,ESP
  1542 00000BE2 53                              	PUSH	EBX
  1543 00000BE3 50                              	PUSH	EAX
  1544 00000BE4 8B 45 0C                        	MOV	EAX,DWORD [12+EBP]
  1545 00000BE7 8A 55 10                        	MOV	DL,BYTE [16+EBP]
  1546 00000BEA 8B 5D 08                        	MOV	EBX,DWORD [8+EBP]
  1547 00000BED 88 55 F9                        	MOV	BYTE [-7+EBP],DL
  1548 00000BF0 88 45 FA                        	MOV	BYTE [-6+EBP],AL
  1549 00000BF3 3C 09                           	CMP	AL,9
  1550 00000BF5 C6 45 FB 00                     	MOV	BYTE [-5+EBP],0
  1551 00000BF9 74 46                           	JE	L233
  1552 00000BFB 3C 0A                           	CMP	AL,10
  1553 00000BFD 74 39                           	JE	L245
  1554 00000BFF 3C 0D                           	CMP	AL,13
  1555 00000C01 74 30                           	JE	L231
  1556 00000C03 6A 01                           	PUSH	1
  1557 00000C05 8D 45 FA                        	LEA	EAX,DWORD [-6+EBP]
  1558 00000C08 50                              	PUSH	EAX
  1559 00000C09 6A 00                           	PUSH	0
  1560 00000C0B 6A 07                           	PUSH	7
  1561 00000C0D FF 73 08                        	PUSH	DWORD [8+EBX]
  1562 00000C10 FF 73 04                        	PUSH	DWORD [4+EBX]
  1563 00000C13 FF 33                           	PUSH	DWORD [EBX]
  1564 00000C15 E8 00001512                     	CALL	_putFont8AscSheet
  1565 00000C1A 83 C4 1C                        	ADD	ESP,28
  1566 00000C1D 80 7D F9 00                     	CMP	BYTE [-7+EBP],0
  1567 00000C21 74 10                           	JE	L231
  1568 00000C23 8B 43 04                        	MOV	EAX,DWORD [4+EBX]
  1569 00000C26 83 C0 08                        	ADD	EAX,8
  1570 00000C29 89 43 04                        	MOV	DWORD [4+EBX],EAX
  1571 00000C2C 3D 000000F8                     	CMP	EAX,248
  1572 00000C31 74 05                           	JE	L245
  1573 00000C33                                 L231:
  1574 00000C33 8B 5D FC                        	MOV	EBX,DWORD [-4+EBP]
  1575 00000C36 C9                              	LEAVE
  1576 00000C37 C3                              	RET
  1577 00000C38                                 L245:
  1578 00000C38 53                              	PUSH	EBX
  1579 00000C39 E8 FFFFFEE6                     	CALL	_consoleNewLine
  1580 00000C3E 58                              	POP	EAX
  1581 00000C3F EB F2                           	JMP	L231
  1582 00000C41                                 L233:
  1583 00000C41 6A 01                           	PUSH	1
  1584 00000C43 68 [000001E0]                   	PUSH	LC0
  1585 00000C48 6A 00                           	PUSH	0
  1586 00000C4A 6A 07                           	PUSH	7
  1587 00000C4C FF 73 08                        	PUSH	DWORD [8+EBX]
  1588 00000C4F FF 73 04                        	PUSH	DWORD [4+EBX]
  1589 00000C52 FF 33                           	PUSH	DWORD [EBX]
  1590 00000C54 E8 000014D3                     	CALL	_putFont8AscSheet
  1591 00000C59 83 C4 1C                        	ADD	ESP,28
  1592 00000C5C 8B 43 04                        	MOV	EAX,DWORD [4+EBX]
  1593 00000C5F 83 C0 08                        	ADD	EAX,8
  1594 00000C62 89 43 04                        	MOV	DWORD [4+EBX],EAX
  1595 00000C65 3D 000000F8                     	CMP	EAX,248
  1596 00000C6A 74 0D                           	JE	L246
  1597 00000C6C                                 L236:
  1598 00000C6C 8B 43 04                        	MOV	EAX,DWORD [4+EBX]
  1599 00000C6F 83 E8 08                        	SUB	EAX,8
  1600 00000C72 83 E0 1F                        	AND	EAX,31
  1601 00000C75 75 CA                           	JNE	L233
  1602 00000C77 EB BA                           	JMP	L231
  1603 00000C79                                 L246:
  1604 00000C79 53                              	PUSH	EBX
  1605 00000C7A E8 FFFFFEA5                     	CALL	_consoleNewLine
  1606 00000C7F 58                              	POP	EAX
  1607 00000C80 EB EA                           	JMP	L236
  1608 00000C82                                 	GLOBAL	_consolePutstr0
  1609 00000C82                                 _consolePutstr0:
  1610 00000C82 55                              	PUSH	EBP
  1611 00000C83 89 E5                           	MOV	EBP,ESP
  1612 00000C85 56                              	PUSH	ESI
  1613 00000C86 53                              	PUSH	EBX
  1614 00000C87 8B 5D 0C                        	MOV	EBX,DWORD [12+EBP]
  1615 00000C8A 8B 75 08                        	MOV	ESI,DWORD [8+EBP]
  1616 00000C8D 80 3B 00                        	CMP	BYTE [EBX],0
  1617 00000C90 75 07                           	JNE	L252
  1618 00000C92                                 L254:
  1619 00000C92 8D 65 F8                        	LEA	ESP,DWORD [-8+EBP]
  1620 00000C95 5B                              	POP	EBX
  1621 00000C96 5E                              	POP	ESI
  1622 00000C97 5D                              	POP	EBP
  1623 00000C98 C3                              	RET
  1624 00000C99                                 L252:
  1625 00000C99 6A 01                           	PUSH	1
  1626 00000C9B 0F BE 03                        	MOVSX	EAX,BYTE [EBX]
  1627 00000C9E 50                              	PUSH	EAX
  1628 00000C9F 43                              	INC	EBX
  1629 00000CA0 56                              	PUSH	ESI
  1630 00000CA1 E8 FFFFFF39                     	CALL	_consolePutchar
  1631 00000CA6 83 C4 0C                        	ADD	ESP,12
  1632 00000CA9 80 3B 00                        	CMP	BYTE [EBX],0
  1633 00000CAC 75 EB                           	JNE	L252
  1634 00000CAE EB E2                           	JMP	L254
  1635 00000CB0                                 	GLOBAL	_consolePutstr1
  1636 00000CB0                                 _consolePutstr1:
  1637 00000CB0 55                              	PUSH	EBP
  1638 00000CB1 89 E5                           	MOV	EBP,ESP
  1639 00000CB3 57                              	PUSH	EDI
  1640 00000CB4 56                              	PUSH	ESI
  1641 00000CB5 53                              	PUSH	EBX
  1642 00000CB6 8B 75 10                        	MOV	ESI,DWORD [16+EBP]
  1643 00000CB9 31 DB                           	XOR	EBX,EBX
  1644 00000CBB 8B 7D 0C                        	MOV	EDI,DWORD [12+EBP]
  1645 00000CBE 39 F3                           	CMP	EBX,ESI
  1646 00000CC0 7C 08                           	JL	L260
  1647 00000CC2                                 L262:
  1648 00000CC2 8D 65 F4                        	LEA	ESP,DWORD [-12+EBP]
  1649 00000CC5 5B                              	POP	EBX
  1650 00000CC6 5E                              	POP	ESI
  1651 00000CC7 5F                              	POP	EDI
  1652 00000CC8 5D                              	POP	EBP
  1653 00000CC9 C3                              	RET
  1654 00000CCA                                 L260:
  1655 00000CCA 6A 01                           	PUSH	1
  1656 00000CCC 0F BE 04 3B                     	MOVSX	EAX,BYTE [EBX+EDI*1]
  1657 00000CD0 50                              	PUSH	EAX
  1658 00000CD1 43                              	INC	EBX
  1659 00000CD2 FF 75 08                        	PUSH	DWORD [8+EBP]
  1660 00000CD5 E8 FFFFFF05                     	CALL	_consolePutchar
  1661 00000CDA 83 C4 0C                        	ADD	ESP,12
  1662 00000CDD 39 F3                           	CMP	EBX,ESI
  1663 00000CDF 7C E9                           	JL	L260
  1664 00000CE1 EB DF                           	JMP	L262
  1665                                          [SECTION .data]
  1666 000001E2                                 LC1:
  1667 000001E2 6D 65 6D 6F 72 79 20 25 64 4D   	DB	"memory %dMB free : %dKB",0x0A,0x0A,0x00
       000001EC 42 20 66 72 65 65 20 3A 20 25 
       000001F6 64 4B 42 0A 0A 00 
  1668                                          [SECTION .text]
  1669 00000CE3                                 	GLOBAL	_cmdMem
  1670 00000CE3                                 _cmdMem:
  1671 00000CE3 55                              	PUSH	EBP
  1672 00000CE4 89 E5                           	MOV	EBP,ESP
  1673 00000CE6 53                              	PUSH	EBX
  1674 00000CE7 83 EC 20                        	SUB	ESP,32
  1675 00000CEA 8B 5D 0C                        	MOV	EBX,DWORD [12+EBP]
  1676 00000CED C1 EB 14                        	SHR	EBX,20
  1677 00000CF0 68 003C0000                     	PUSH	3932160
  1678 00000CF5 E8 000015EB                     	CALL	_memsegTotal
  1679 00000CFA C1 E8 0A                        	SHR	EAX,10
  1680 00000CFD 89 04 24                        	MOV	DWORD [ESP],EAX
  1681 00000D00 53                              	PUSH	EBX
  1682 00000D01 68 [000001E2]                   	PUSH	LC1
  1683 00000D06 8D 5D DC                        	LEA	EBX,DWORD [-36+EBP]
  1684 00000D09 53                              	PUSH	EBX
  1685 00000D0A E8 [00000000]                   	CALL	_sprintf
  1686 00000D0F 53                              	PUSH	EBX
  1687 00000D10 FF 75 08                        	PUSH	DWORD [8+EBP]
  1688 00000D13 E8 FFFFFF6A                     	CALL	_consolePutstr0
  1689 00000D18 8B 5D FC                        	MOV	EBX,DWORD [-4+EBP]
  1690 00000D1B C9                              	LEAVE
  1691 00000D1C C3                              	RET
  1692 00000D1D                                 	GLOBAL	_cmdCls
  1693 00000D1D                                 _cmdCls:
  1694 00000D1D 55                              	PUSH	EBP
  1695 00000D1E 89 E5                           	MOV	EBP,ESP
  1696 00000D20 56                              	PUSH	ESI
  1697 00000D21 53                              	PUSH	EBX
  1698 00000D22 BB 0000001C                     	MOV	EBX,28
  1699 00000D27 8B 75 08                        	MOV	ESI,DWORD [8+EBP]
  1700 00000D2A                                 L274:
  1701 00000D2A B9 00000008                     	MOV	ECX,8
  1702 00000D2F                                 L273:
  1703 00000D2F 8B 06                           	MOV	EAX,DWORD [ESI]
  1704 00000D31 89 DA                           	MOV	EDX,EBX
  1705 00000D33 0F AF 50 04                     	IMUL	EDX,DWORD [4+EAX]
  1706 00000D37 8B 00                           	MOV	EAX,DWORD [EAX]
  1707 00000D39 8D 14 0A                        	LEA	EDX,DWORD [EDX+ECX*1]
  1708 00000D3C 41                              	INC	ECX
  1709 00000D3D 81 F9 000000F7                  	CMP	ECX,247
  1710 00000D43 C6 04 02 00                     	MOV	BYTE [EDX+EAX*1],0
  1711 00000D47 7E E6                           	JLE	L273
  1712 00000D49 43                              	INC	EBX
  1713 00000D4A 81 FB 0000009B                  	CMP	EBX,155
  1714 00000D50 7E D8                           	JLE	L274
  1715 00000D52 68 0000009C                     	PUSH	156
  1716 00000D57 68 000000F8                     	PUSH	248
  1717 00000D5C 6A 1C                           	PUSH	28
  1718 00000D5E 6A 08                           	PUSH	8
  1719 00000D60 FF 36                           	PUSH	DWORD [ESI]
  1720 00000D62 E8 00001AAE                     	CALL	_sheetRefresh
  1721 00000D67 C7 46 08 0000001C               	MOV	DWORD [8+ESI],28
  1722 00000D6E 8D 65 F8                        	LEA	ESP,DWORD [-8+EBP]
  1723 00000D71 5B                              	POP	EBX
  1724 00000D72 5E                              	POP	ESI
  1725 00000D73 5D                              	POP	EBP
  1726 00000D74 C3                              	RET
  1727                                          [SECTION .data]
  1728 000001FC                                 LC2:
  1729 000001FC 66 69 6C 65 4E 61 6D 65 2E 65   	DB	"fileName.ext    %7d",0x0A,0x00
       00000206 78 74 20 20 20 20 25 37 64 0A 
       00000210 00 
  1730                                          [SECTION .text]
  1731 00000D75                                 	GLOBAL	_cmdDir
  1732 00000D75                                 _cmdDir:
  1733 00000D75 55                              	PUSH	EBP
  1734 00000D76 89 E5                           	MOV	EBP,ESP
  1735 00000D78 57                              	PUSH	EDI
  1736 00000D79 56                              	PUSH	ESI
  1737 00000D7A 31 F6                           	XOR	ESI,ESI
  1738 00000D7C 53                              	PUSH	EBX
  1739 00000D7D 31 DB                           	XOR	EBX,EBX
  1740 00000D7F 83 EC 20                        	SUB	ESP,32
  1741 00000D82 8B 7D 08                        	MOV	EDI,DWORD [8+EBP]
  1742 00000D85                                 L297:
  1743 00000D85 8A 83 00102600                  	MOV	AL,BYTE [1058304+EBX]
  1744 00000D8B 84 C0                           	TEST	AL,AL
  1745 00000D8D 74 19                           	JE	L281
  1746 00000D8F 3C E5                           	CMP	AL,-27
  1747 00000D91 74 09                           	JE	L282
  1748 00000D93 F6 83 0010260B 18               	TEST	BYTE [1058315+EBX],24
  1749 00000D9A 74 1A                           	JE	L303
  1750 00000D9C                                 L282:
  1751 00000D9C 46                              	INC	ESI
  1752 00000D9D 83 C3 20                        	ADD	EBX,32
  1753 00000DA0 81 FE 000000F3                  	CMP	ESI,243
  1754 00000DA6 7E DD                           	JLE	L297
  1755 00000DA8                                 L281:
  1756 00000DA8 57                              	PUSH	EDI
  1757 00000DA9 E8 FFFFFD76                     	CALL	_consoleNewLine
  1758 00000DAE 8D 65 F4                        	LEA	ESP,DWORD [-12+EBP]
  1759 00000DB1 5B                              	POP	EBX
  1760 00000DB2 5E                              	POP	ESI
  1761 00000DB3 5F                              	POP	EDI
  1762 00000DB4 5D                              	POP	EBP
  1763 00000DB5 C3                              	RET
  1764 00000DB6                                 L303:
  1765 00000DB6 FF B3 0010261C                  	PUSH	DWORD [1058332+EBX]
  1766 00000DBC 68 [000001FC]                   	PUSH	LC2
  1767 00000DC1 8D 45 D4                        	LEA	EAX,DWORD [-44+EBP]
  1768 00000DC4 50                              	PUSH	EAX
  1769 00000DC5 E8 [00000000]                   	CALL	_sprintf
  1770 00000DCA 8D 93 00102600                  	LEA	EDX,DWORD [1058304+EBX]
  1771 00000DD0 31 C9                           	XOR	ECX,ECX
  1772 00000DD2 83 C4 0C                        	ADD	ESP,12
  1773 00000DD5                                 L291:
  1774 00000DD5 8A 02                           	MOV	AL,BYTE [EDX]
  1775 00000DD7 42                              	INC	EDX
  1776 00000DD8 88 44 0D D4                     	MOV	BYTE [-44+EBP+ECX*1],AL
  1777 00000DDC 41                              	INC	ECX
  1778 00000DDD 83 F9 07                        	CMP	ECX,7
  1779 00000DE0 7E F3                           	JLE	L291
  1780 00000DE2 31 C9                           	XOR	ECX,ECX
  1781 00000DE4                                 L296:
  1782 00000DE4 8A 84 0B 00102608               	MOV	AL,BYTE [1058312+EBX+ECX*1]
  1783 00000DEB 88 44 0D DD                     	MOV	BYTE [-35+EBP+ECX*1],AL
  1784 00000DEF 41                              	INC	ECX
  1785 00000DF0 83 F9 02                        	CMP	ECX,2
  1786 00000DF3 7E EF                           	JLE	L296
  1787 00000DF5 8D 45 D4                        	LEA	EAX,DWORD [-44+EBP]
  1788 00000DF8 50                              	PUSH	EAX
  1789 00000DF9 57                              	PUSH	EDI
  1790 00000DFA E8 FFFFFE83                     	CALL	_consolePutstr0
  1791 00000DFF 58                              	POP	EAX
  1792 00000E00 5A                              	POP	EDX
  1793 00000E01 EB 99                           	JMP	L282
  1794                                          [SECTION .data]
  1795 00000211                                 LC3:
  1796 00000211 66 69 6C 65 20 6E 6F 74 20 66   	DB	"file not found",0x0A,0x00
       0000021B 6F 75 6E 64 0A 00 
  1797                                          [SECTION .text]
  1798 00000E03                                 	GLOBAL	_cmdType
  1799 00000E03                                 _cmdType:
  1800 00000E03 55                              	PUSH	EBP
  1801 00000E04 89 E5                           	MOV	EBP,ESP
  1802 00000E06 57                              	PUSH	EDI
  1803 00000E07 56                              	PUSH	ESI
  1804 00000E08 53                              	PUSH	EBX
  1805 00000E09 56                              	PUSH	ESI
  1806 00000E0A 8B 45 0C                        	MOV	EAX,DWORD [12+EBP]
  1807 00000E0D 8B 7D 08                        	MOV	EDI,DWORD [8+EBP]
  1808 00000E10 89 45 F0                        	MOV	DWORD [-16+EBP],EAX
  1809 00000E13 68 000000E0                     	PUSH	224
  1810 00000E18 68 00102600                     	PUSH	1058304
  1811 00000E1D 8B 45 10                        	MOV	EAX,DWORD [16+EBP]
  1812 00000E20 83 C0 05                        	ADD	EAX,5
  1813 00000E23 50                              	PUSH	EAX
  1814 00000E24 E8 00001CE9                     	CALL	_searchFile
  1815 00000E29 83 C4 0C                        	ADD	ESP,12
  1816 00000E2C 89 C6                           	MOV	ESI,EAX
  1817 00000E2E 85 C0                           	TEST	EAX,EAX
  1818 00000E30 74 52                           	JE	L305
  1819 00000E32 FF 70 1C                        	PUSH	DWORD [28+EAX]
  1820 00000E35 68 003C0000                     	PUSH	3932160
  1821 00000E3A E8 0000162F                     	CALL	_memsegAlloc4K
  1822 00000E3F 68 00103E00                     	PUSH	1064448
  1823 00000E44 FF 75 F0                        	PUSH	DWORD [-16+EBP]
  1824 00000E47 50                              	PUSH	EAX
  1825 00000E48 89 C3                           	MOV	EBX,EAX
  1826 00000E4A FF 76 1C                        	PUSH	DWORD [28+ESI]
  1827 00000E4D 0F B7 46 1A                     	MOVZX	EAX,WORD [26+ESI]
  1828 00000E51 50                              	PUSH	EAX
  1829 00000E52 E8 00001C70                     	CALL	_loadFile
  1830 00000E57 FF 76 1C                        	PUSH	DWORD [28+ESI]
  1831 00000E5A 53                              	PUSH	EBX
  1832 00000E5B 57                              	PUSH	EDI
  1833 00000E5C E8 FFFFFE4F                     	CALL	_consolePutstr1
  1834 00000E61 83 C4 28                        	ADD	ESP,40
  1835 00000E64 FF 76 1C                        	PUSH	DWORD [28+ESI]
  1836 00000E67 53                              	PUSH	EBX
  1837 00000E68 68 003C0000                     	PUSH	3932160
  1838 00000E6D E8 00001615                     	CALL	_memsegFree4K
  1839 00000E72 83 C4 0C                        	ADD	ESP,12
  1840 00000E75                                 L306:
  1841 00000E75 89 7D 08                        	MOV	DWORD [8+EBP],EDI
  1842 00000E78 8D 65 F4                        	LEA	ESP,DWORD [-12+EBP]
  1843 00000E7B 5B                              	POP	EBX
  1844 00000E7C 5E                              	POP	ESI
  1845 00000E7D 5F                              	POP	EDI
  1846 00000E7E 5D                              	POP	EBP
  1847 00000E7F E9 FFFFFCA0                     	JMP	_consoleNewLine
  1848 00000E84                                 L305:
  1849 00000E84 68 [00000211]                   	PUSH	LC3
  1850 00000E89 57                              	PUSH	EDI
  1851 00000E8A E8 FFFFFDF3                     	CALL	_consolePutstr0
  1852 00000E8F 59                              	POP	ECX
  1853 00000E90 5B                              	POP	EBX
  1854 00000E91 EB E2                           	JMP	L306
  1855                                          [SECTION .data]
  1856 00000221                                 LC4:
  1857 00000221 48 61 72 69 00                  	DB	"Hari",0x00
  1858 00000226                                 LC5:
  1859 00000226 2E 68 72 62 20 66 69 6C 65 20   	DB	".hrb file format error",0x0A,0x00
       00000230 66 6F 72 6D 61 74 20 65 72 72 
       0000023A 6F 72 0A 00 
  1860                                          [SECTION .text]
  1861 00000E93                                 	GLOBAL	_cmdApp
  1862 00000E93                                 _cmdApp:
  1863 00000E93 55                              	PUSH	EBP
  1864 00000E94 89 E5                           	MOV	EBP,ESP
  1865 00000E96 57                              	PUSH	EDI
  1866 00000E97 56                              	PUSH	ESI
  1867 00000E98 53                              	PUSH	EBX
  1868 00000E99 31 DB                           	XOR	EBX,EBX
  1869 00000E9B 83 EC 3C                        	SUB	ESP,60
  1870 00000E9E 8B 75 10                        	MOV	ESI,DWORD [16+EBP]
  1871 00000EA1 E8 FFFFF510                     	CALL	_processNow
  1872 00000EA6 89 45 CC                        	MOV	DWORD [-52+EBP],EAX
  1873 00000EA9                                 L313:
  1874 00000EA9 8A 04 33                        	MOV	AL,BYTE [EBX+ESI*1]
  1875 00000EAC 3C 20                           	CMP	AL,32
  1876 00000EAE 7E 0A                           	JLE	L309
  1877 00000EB0 88 44 1D D4                     	MOV	BYTE [-44+EBP+EBX*1],AL
  1878 00000EB4 43                              	INC	EBX
  1879 00000EB5 83 FB 0C                        	CMP	EBX,12
  1880 00000EB8 7E EF                           	JLE	L313
  1881 00000EBA                                 L309:
  1882 00000EBA 68 000000E0                     	PUSH	224
  1883 00000EBF 8D 75 D4                        	LEA	ESI,DWORD [-44+EBP]
  1884 00000EC2 68 00102600                     	PUSH	1058304
  1885 00000EC7 56                              	PUSH	ESI
  1886 00000EC8 C6 44 1D D4 00                  	MOV	BYTE [-44+EBP+EBX*1],0
  1887 00000ECD E8 00001C40                     	CALL	_searchFile
  1888 00000ED2 83 C4 0C                        	ADD	ESP,12
  1889 00000ED5 85 C0                           	TEST	EAX,EAX
  1890 00000ED7 89 45 D0                        	MOV	DWORD [-48+EBP],EAX
  1891 00000EDA 0F 84 0000019E                  	JE	L335
  1892 00000EE0                                 L334:
  1893 00000EE0 8B 45 D0                        	MOV	EAX,DWORD [-48+EBP]
  1894 00000EE3 FF 70 1C                        	PUSH	DWORD [28+EAX]
  1895 00000EE6 68 003C0000                     	PUSH	3932160
  1896 00000EEB E8 0000157E                     	CALL	_memsegAlloc4K
  1897 00000EF0 8B 55 D0                        	MOV	EDX,DWORD [-48+EBP]
  1898 00000EF3 68 00103E00                     	PUSH	1064448
  1899 00000EF8 FF 75 0C                        	PUSH	DWORD [12+EBP]
  1900 00000EFB 50                              	PUSH	EAX
  1901 00000EFC 89 45 B8                        	MOV	DWORD [-72+EBP],EAX
  1902 00000EFF FF 72 1C                        	PUSH	DWORD [28+EDX]
  1903 00000F02 0F B7 42 1A                     	MOVZX	EAX,WORD [26+EDX]
  1904 00000F06 50                              	PUSH	EAX
  1905 00000F07 E8 00001BBB                     	CALL	_loadFile
  1906 00000F0C 8B 7D D0                        	MOV	EDI,DWORD [-48+EBP]
  1907 00000F0F 83 C4 1C                        	ADD	ESP,28
  1908 00000F12 83 7F 1C 23                     	CMP	DWORD [28+EDI],35
  1909 00000F16 76 1F                           	JBE	L316
  1910 00000F18 8B 75 B8                        	MOV	ESI,DWORD [-72+EBP]
  1911 00000F1B B8 [00000221]                   	MOV	EAX,LC4
  1912 00000F20 FC                              	CLD
  1913 00000F21 83 C6 04                        	ADD	ESI,4
  1914 00000F24 B9 00000004                     	MOV	ECX,4
  1915 00000F29 89 C7                           	MOV	EDI,EAX
  1916 00000F2B F3                              	REPE
  1917 00000F2C A6                              	CMPSB
  1918 00000F2D 75 08                           	JNE	L316
  1919 00000F2F 8B 45 B8                        	MOV	EAX,DWORD [-72+EBP]
  1920 00000F32 80 38 00                        	CMP	BYTE [EAX],0
  1921 00000F35 74 37                           	JE	L336
  1922 00000F37                                 L316:
  1923 00000F37 68 [00000226]                   	PUSH	LC5
  1924 00000F3C FF 75 08                        	PUSH	DWORD [8+EBP]
  1925 00000F3F E8 FFFFFD3E                     	CALL	_consolePutstr0
  1926 00000F44 5F                              	POP	EDI
  1927 00000F45 58                              	POP	EAX
  1928 00000F46                                 L328:
  1929 00000F46 8B 55 D0                        	MOV	EDX,DWORD [-48+EBP]
  1930 00000F49 FF 72 1C                        	PUSH	DWORD [28+EDX]
  1931 00000F4C FF 75 B8                        	PUSH	DWORD [-72+EBP]
  1932 00000F4F 68 003C0000                     	PUSH	3932160
  1933 00000F54 E8 0000152E                     	CALL	_memsegFree4K
  1934 00000F59 FF 75 08                        	PUSH	DWORD [8+EBP]
  1935 00000F5C E8 FFFFFBC3                     	CALL	_consoleNewLine
  1936 00000F61 B8 00000001                     	MOV	EAX,1
  1937 00000F66                                 L307:
  1938 00000F66 8D 65 F4                        	LEA	ESP,DWORD [-12+EBP]
  1939 00000F69 5B                              	POP	EBX
  1940 00000F6A 5E                              	POP	ESI
  1941 00000F6B 5F                              	POP	EDI
  1942 00000F6C 5D                              	POP	EBP
  1943 00000F6D C3                              	RET
  1944 00000F6E                                 L336:
  1945 00000F6E 8B 10                           	MOV	EDX,DWORD [EAX]
  1946 00000F70 8B 78 0C                        	MOV	EDI,DWORD [12+EAX]
  1947 00000F73 8B 70 10                        	MOV	ESI,DWORD [16+EAX]
  1948 00000F76 89 55 C4                        	MOV	DWORD [-60+EBP],EDX
  1949 00000F79 8B 40 14                        	MOV	EAX,DWORD [20+EAX]
  1950 00000F7C 89 7D C0                        	MOV	DWORD [-64+EBP],EDI
  1951 00000F7F 52                              	PUSH	EDX
  1952 00000F80 89 45 BC                        	MOV	DWORD [-68+EBP],EAX
  1953 00000F83 68 003C0000                     	PUSH	3932160
  1954 00000F88 BB 00000008                     	MOV	EBX,8
  1955 00000F8D E8 000014DC                     	CALL	_memsegAlloc4K
  1956 00000F92 8B 7D D0                        	MOV	EDI,DWORD [-48+EBP]
  1957 00000F95 8B 55 CC                        	MOV	EDX,DWORD [-52+EBP]
  1958 00000F98 89 45 C8                        	MOV	DWORD [-56+EBP],EAX
  1959 00000F9B 89 82 00000098                  	MOV	DWORD [152+EDX],EAX
  1960 00000FA1 68 000040FA                     	PUSH	16634
  1961 00000FA6 FF 75 B8                        	PUSH	DWORD [-72+EBP]
  1962 00000FA9 8B 47 1C                        	MOV	EAX,DWORD [28+EDI]
  1963 00000FAC 48                              	DEC	EAX
  1964 00000FAD 50                              	PUSH	EAX
  1965 00000FAE 8B 02                           	MOV	EAX,DWORD [EDX]
  1966 00000FB0 99                              	CDQ
  1967 00000FB1 F7 FB                           	IDIV	EBX
  1968 00000FB3 8D 04 C5 00271F40               	LEA	EAX,DWORD [2563904+EAX*8]
  1969 00000FBA 50                              	PUSH	EAX
  1970 00000FBB E8 00000BB3                     	CALL	_setSegmdesc
  1971 00000FC0 8B 55 CC                        	MOV	EDX,DWORD [-52+EBP]
  1972 00000FC3 68 000040F2                     	PUSH	16626
  1973 00000FC8 8B 45 C4                        	MOV	EAX,DWORD [-60+EBP]
  1974 00000FCB FF 75 C8                        	PUSH	DWORD [-56+EBP]
  1975 00000FCE 48                              	DEC	EAX
  1976 00000FCF 50                              	PUSH	EAX
  1977 00000FD0 8B 02                           	MOV	EAX,DWORD [EDX]
  1978 00000FD2 99                              	CDQ
  1979 00000FD3 F7 FB                           	IDIV	EBX
  1980 00000FD5 8D 04 C5 00273E80               	LEA	EAX,DWORD [2571904+EAX*8]
  1981 00000FDC 50                              	PUSH	EAX
  1982 00000FDD E8 00000B91                     	CALL	_setSegmdesc
  1983 00000FE2 83 C4 28                        	ADD	ESP,40
  1984 00000FE5 85 F6                           	TEST	ESI,ESI
  1985 00000FE7 7E 17                           	JLE	L331
  1986 00000FE9 8B 4D C0                        	MOV	ECX,DWORD [-64+EBP]
  1987 00000FEC 8B 55 BC                        	MOV	EDX,DWORD [-68+EBP]
  1988 00000FEF 03 4D C8                        	ADD	ECX,DWORD [-56+EBP]
  1989 00000FF2 03 55 B8                        	ADD	EDX,DWORD [-72+EBP]
  1990 00000FF5 89 F3                           	MOV	EBX,ESI
  1991 00000FF7                                 L321:
  1992 00000FF7 8A 02                           	MOV	AL,BYTE [EDX]
  1993 00000FF9 42                              	INC	EDX
  1994 00000FFA 88 01                           	MOV	BYTE [ECX],AL
  1995 00000FFC 41                              	INC	ECX
  1996 00000FFD 4B                              	DEC	EBX
  1997 00000FFE 75 F7                           	JNE	L321
  1998 00001000                                 L331:
  1999 00001000 8B 45 CC                        	MOV	EAX,DWORD [-52+EBP]
  2000 00001003 8B 7D CC                        	MOV	EDI,DWORD [-52+EBP]
  2001 00001006 83 C0 30                        	ADD	EAX,48
  2002 00001009 BB 000000FF                     	MOV	EBX,255
  2003 0000100E 50                              	PUSH	EAX
  2004 0000100F 8B 07                           	MOV	EAX,DWORD [EDI]
  2005 00001011 05 00003E80                     	ADD	EAX,16000
  2006 00001016 50                              	PUSH	EAX
  2007 00001017 FF 75 C0                        	PUSH	DWORD [-64+EBP]
  2008 0000101A 8B 07                           	MOV	EAX,DWORD [EDI]
  2009 0000101C 05 00001F40                     	ADD	EAX,8000
  2010 00001021 50                              	PUSH	EAX
  2011 00001022 6A 1B                           	PUSH	27
  2012 00001024 E8 [00000000]                   	CALL	_startApp
  2013 00001029 8B 35 00000FE4                  	MOV	ESI,DWORD [4068]
  2014 0000102F 83 C4 14                        	ADD	ESP,20
  2015 00001032 81 C6 00000414                  	ADD	ESI,1044
  2016 00001038                                 L327:
  2017 00001038 8B 46 1C                        	MOV	EAX,DWORD [28+ESI]
  2018 0000103B 83 E0 11                        	AND	EAX,17
  2019 0000103E 83 F8 11                        	CMP	EAX,17
  2020 00001041 74 2A                           	JE	L337
  2021 00001043                                 L324:
  2022 00001043 83 C6 28                        	ADD	ESI,40
  2023 00001046 4B                              	DEC	EBX
  2024 00001047 79 EF                           	JNS	L327
  2025 00001049 8B 45 CC                        	MOV	EAX,DWORD [-52+EBP]
  2026 0000104C 83 C0 10                        	ADD	EAX,16
  2027 0000104F 50                              	PUSH	EAX
  2028 00001050 E8 FFFFF302                     	CALL	_timerCancelAllFlags
  2029 00001055 FF 75 C4                        	PUSH	DWORD [-60+EBP]
  2030 00001058 FF 75 C8                        	PUSH	DWORD [-56+EBP]
  2031 0000105B 68 003C0000                     	PUSH	3932160
  2032 00001060 E8 00001422                     	CALL	_memsegFree4K
  2033 00001065 83 C4 10                        	ADD	ESP,16
  2034 00001068 E9 FFFFFED9                     	JMP	L328
  2035 0000106D                                 L337:
  2036 0000106D 8B 45 CC                        	MOV	EAX,DWORD [-52+EBP]
  2037 00001070 39 46 24                        	CMP	DWORD [36+ESI],EAX
  2038 00001073 75 CE                           	JNE	L324
  2039 00001075 56                              	PUSH	ESI
  2040 00001076 E8 000019D7                     	CALL	_sheetFree
  2041 0000107B 58                              	POP	EAX
  2042 0000107C EB C5                           	JMP	L324
  2043 0000107E                                 L335:
  2044 0000107E 80 7C 1D D3 2E                  	CMP	BYTE [-45+EBP+EBX*1],46
  2045 00001083 74 2F                           	JE	L314
  2046 00001085 68 000000E0                     	PUSH	224
  2047 0000108A 68 00102600                     	PUSH	1058304
  2048 0000108F 56                              	PUSH	ESI
  2049 00001090 C6 44 1D D4 2E                  	MOV	BYTE [-44+EBP+EBX*1],46
  2050 00001095 C6 44 1D D5 48                  	MOV	BYTE [-43+EBP+EBX*1],72
  2051 0000109A C6 44 1D D6 52                  	MOV	BYTE [-42+EBP+EBX*1],82
  2052 0000109F C6 44 1D D7 42                  	MOV	BYTE [-41+EBP+EBX*1],66
  2053 000010A4 C6 44 1D D8 00                  	MOV	BYTE [-40+EBP+EBX*1],0
  2054 000010A9 E8 00001A64                     	CALL	_searchFile
  2055 000010AE 83 C4 0C                        	ADD	ESP,12
  2056 000010B1 89 45 D0                        	MOV	DWORD [-48+EBP],EAX
  2057 000010B4                                 L314:
  2058 000010B4 83 7D D0 00                     	CMP	DWORD [-48+EBP],0
  2059 000010B8 0F 85 FFFFFE22                  	JNE	L334
  2060 000010BE 31 C0                           	XOR	EAX,EAX
  2061 000010C0 E9 FFFFFEA1                     	JMP	L307
  2062                                          [SECTION .data]
  2063 0000023E                                 LC6:
  2064 0000023E 6D 65 6D 00                     	DB	"mem",0x00
  2065 00000242                                 LC7:
  2066 00000242 63 6C 73 00                     	DB	"cls",0x00
  2067 00000246                                 LC8:
  2068 00000246 64 69 72 00                     	DB	"dir",0x00
  2069 0000024A                                 LC9:
  2070 0000024A 74 79 70 65 20 00               	DB	"type ",0x00
  2071 00000250                                 LC10:
  2072 00000250 63 6F 6D 6D 61 6E 64 20 6E 6F   	DB	"command not found",0x0A,0x0A,0x00
       0000025A 74 20 66 6F 75 6E 64 0A 0A 00 
  2073                                          [SECTION .text]
  2074 000010C5                                 	GLOBAL	_consoleRunCmd
  2075 000010C5                                 _consoleRunCmd:
  2076 000010C5 55                              	PUSH	EBP
  2077 000010C6 89 E5                           	MOV	EBP,ESP
  2078 000010C8 57                              	PUSH	EDI
  2079 000010C9 56                              	PUSH	ESI
  2080 000010CA BF [0000023E]                   	MOV	EDI,LC6
  2081 000010CF 53                              	PUSH	EBX
  2082 000010D0 83 EC 0C                        	SUB	ESP,12
  2083 000010D3 8B 45 08                        	MOV	EAX,DWORD [8+EBP]
  2084 000010D6 8B 4D 10                        	MOV	ECX,DWORD [16+EBP]
  2085 000010D9 89 45 E8                        	MOV	DWORD [-24+EBP],EAX
  2086 000010DC 89 4D F0                        	MOV	DWORD [-16+EBP],ECX
  2087 000010DF 8B 45 14                        	MOV	EAX,DWORD [20+EBP]
  2088 000010E2 8B 75 E8                        	MOV	ESI,DWORD [-24+EBP]
  2089 000010E5 89 45 EC                        	MOV	DWORD [-20+EBP],EAX
  2090 000010E8 8B 5D 0C                        	MOV	EBX,DWORD [12+EBP]
  2091 000010EB B8 00000004                     	MOV	EAX,4
  2092 000010F0 FC                              	CLD
  2093 000010F1 89 C1                           	MOV	ECX,EAX
  2094 000010F3 F3                              	REPE
  2095 000010F4 A6                              	CMPSB
  2096 000010F5 0F 84 000000B0                  	JE	L349
  2097 000010FB B8 00000004                     	MOV	EAX,4
  2098 00001100 8B 75 E8                        	MOV	ESI,DWORD [-24+EBP]
  2099 00001103 FC                              	CLD
  2100 00001104 BF [00000242]                   	MOV	EDI,LC7
  2101 00001109 89 C1                           	MOV	ECX,EAX
  2102 0000110B F3                              	REPE
  2103 0000110C A6                              	CMPSB
  2104 0000110D 0F 84 00000089                  	JE	L350
  2105 00001113 B8 00000004                     	MOV	EAX,4
  2106 00001118 8B 75 E8                        	MOV	ESI,DWORD [-24+EBP]
  2107 0000111B FC                              	CLD
  2108 0000111C BF [00000246]                   	MOV	EDI,LC8
  2109 00001121 89 C1                           	MOV	ECX,EAX
  2110 00001123 F3                              	REPE
  2111 00001124 A6                              	CMPSB
  2112 00001125 74 66                           	JE	L351
  2113 00001127 B8 00000005                     	MOV	EAX,5
  2114 0000112C 8B 75 E8                        	MOV	ESI,DWORD [-24+EBP]
  2115 0000112F FC                              	CLD
  2116 00001130 BF [0000024A]                   	MOV	EDI,LC9
  2117 00001135 89 C1                           	MOV	ECX,EAX
  2118 00001137 F3                              	REPE
  2119 00001138 A6                              	CMPSB
  2120 00001139 74 37                           	JE	L352
  2121 0000113B 8B 45 E8                        	MOV	EAX,DWORD [-24+EBP]
  2122 0000113E 80 38 00                        	CMP	BYTE [EAX],0
  2123 00001141 75 08                           	JNE	L353
  2124 00001143                                 L338:
  2125 00001143 8D 65 F4                        	LEA	ESP,DWORD [-12+EBP]
  2126 00001146 5B                              	POP	EBX
  2127 00001147 5E                              	POP	ESI
  2128 00001148 5F                              	POP	EDI
  2129 00001149 5D                              	POP	EBP
  2130 0000114A C3                              	RET
  2131 0000114B                                 L353:
  2132 0000114B 50                              	PUSH	EAX
  2133 0000114C FF 75 F0                        	PUSH	DWORD [-16+EBP]
  2134 0000114F 53                              	PUSH	EBX
  2135 00001150 E8 FFFFFD3E                     	CALL	_cmdApp
  2136 00001155 83 C4 0C                        	ADD	ESP,12
  2137 00001158 85 C0                           	TEST	EAX,EAX
  2138 0000115A 75 E7                           	JNE	L338
  2139 0000115C C7 45 0C [00000250]             	MOV	DWORD [12+EBP],LC10
  2140 00001163 89 5D 08                        	MOV	DWORD [8+EBP],EBX
  2141 00001166 8D 65 F4                        	LEA	ESP,DWORD [-12+EBP]
  2142 00001169 5B                              	POP	EBX
  2143 0000116A 5E                              	POP	ESI
  2144 0000116B 5F                              	POP	EDI
  2145 0000116C 5D                              	POP	EBP
  2146 0000116D E9 FFFFFB10                     	JMP	_consolePutstr0
  2147 00001172                                 L352:
  2148 00001172 8B 45 E8                        	MOV	EAX,DWORD [-24+EBP]
  2149 00001175 8B 4D F0                        	MOV	ECX,DWORD [-16+EBP]
  2150 00001178 89 45 10                        	MOV	DWORD [16+EBP],EAX
  2151 0000117B 89 4D 0C                        	MOV	DWORD [12+EBP],ECX
  2152 0000117E 89 5D 08                        	MOV	DWORD [8+EBP],EBX
  2153 00001181 8D 65 F4                        	LEA	ESP,DWORD [-12+EBP]
  2154 00001184 5B                              	POP	EBX
  2155 00001185 5E                              	POP	ESI
  2156 00001186 5F                              	POP	EDI
  2157 00001187 5D                              	POP	EBP
  2158 00001188 E9 FFFFFC76                     	JMP	_cmdType
  2159 0000118D                                 L351:
  2160 0000118D 89 5D 08                        	MOV	DWORD [8+EBP],EBX
  2161 00001190 8D 65 F4                        	LEA	ESP,DWORD [-12+EBP]
  2162 00001193 5B                              	POP	EBX
  2163 00001194 5E                              	POP	ESI
  2164 00001195 5F                              	POP	EDI
  2165 00001196 5D                              	POP	EBP
  2166 00001197 E9 FFFFFBD9                     	JMP	_cmdDir
  2167 0000119C                                 L350:
  2168 0000119C 89 5D 08                        	MOV	DWORD [8+EBP],EBX
  2169 0000119F 8D 65 F4                        	LEA	ESP,DWORD [-12+EBP]
  2170 000011A2 5B                              	POP	EBX
  2171 000011A3 5E                              	POP	ESI
  2172 000011A4 5F                              	POP	EDI
  2173 000011A5 5D                              	POP	EBP
  2174 000011A6 E9 FFFFFB72                     	JMP	_cmdCls
  2175 000011AB                                 L349:
  2176 000011AB 8B 45 EC                        	MOV	EAX,DWORD [-20+EBP]
  2177 000011AE 89 5D 08                        	MOV	DWORD [8+EBP],EBX
  2178 000011B1 89 45 0C                        	MOV	DWORD [12+EBP],EAX
  2179 000011B4 8D 65 F4                        	LEA	ESP,DWORD [-12+EBP]
  2180 000011B7 5B                              	POP	EBX
  2181 000011B8 5E                              	POP	ESI
  2182 000011B9 5F                              	POP	EDI
  2183 000011BA 5D                              	POP	EBP
  2184 000011BB E9 FFFFFB23                     	JMP	_cmdMem
  2185 000011C0                                 	GLOBAL	_consoleMain
  2186 000011C0                                 _consoleMain:
  2187 000011C0 55                              	PUSH	EBP
  2188 000011C1 89 E5                           	MOV	EBP,ESP
  2189 000011C3 57                              	PUSH	EDI
  2190 000011C4 56                              	PUSH	ESI
  2191 000011C5 53                              	PUSH	EBX
  2192 000011C6 8D 5D D4                        	LEA	EBX,DWORD [-44+EBP]
  2193 000011C9 83 EC 44                        	SUB	ESP,68
  2194 000011CC E8 FFFFF1E5                     	CALL	_processNow
  2195 000011D1 68 00002D00                     	PUSH	11520
  2196 000011D6 89 C7                           	MOV	EDI,EAX
  2197 000011D8 68 003C0000                     	PUSH	3932160
  2198 000011DD E8 0000128C                     	CALL	_memsegAlloc4K
  2199 000011E2 89 9F 00000094                  	MOV	DWORD [148+EDI],EBX
  2200 000011E8 C7 45 DC 0000001C               	MOV	DWORD [-36+EBP],28
  2201 000011EF 89 45 B0                        	MOV	DWORD [-80+EBP],EAX
  2202 000011F2 8B 45 08                        	MOV	EAX,DWORD [8+EBP]
  2203 000011F5 89 45 D4                        	MOV	DWORD [-44+EBP],EAX
  2204 000011F8 C7 45 D8 00000008               	MOV	DWORD [-40+EBP],8
  2205 000011FF C7 45 E0 FFFFFFFF               	MOV	DWORD [-32+EBP],-1
  2206 00001206 E8 FFFFF049                     	CALL	_timerAlloc
  2207 0000120B 8D 57 10                        	LEA	EDX,DWORD [16+EDI]
  2208 0000120E 6A 01                           	PUSH	1
  2209 00001210 52                              	PUSH	EDX
  2210 00001211 89 45 E4                        	MOV	DWORD [-28+EBP],EAX
  2211 00001214 50                              	PUSH	EAX
  2212 00001215 E8 FFFFF070                     	CALL	_timerInit
  2213 0000121A 6A 32                           	PUSH	50
  2214 0000121C FF 75 E4                        	PUSH	DWORD [-28+EBP]
  2215 0000121F E8 FFFFF07A                     	CALL	_timerSetTime
  2216 00001224 68 00100200                     	PUSH	1049088
  2217 00001229 FF 75 B0                        	PUSH	DWORD [-80+EBP]
  2218 0000122C E8 00001844                     	CALL	_readFat
  2219 00001231 83 C4 24                        	ADD	ESP,36
  2220 00001234 6A 01                           	PUSH	1
  2221 00001236 6A 3E                           	PUSH	62
  2222 00001238 53                              	PUSH	EBX
  2223 00001239 E8 FFFFF9A1                     	CALL	_consolePutchar
  2224 0000123E 83 C4 0C                        	ADD	ESP,12
  2225 00001241                                 L355:
  2226 00001241 8D 5F 10                        	LEA	EBX,DWORD [16+EDI]
  2227 00001244 E8 [00000000]                   	CALL	_io_cli
  2228 00001249 53                              	PUSH	EBX
  2229 0000124A E8 FFFFEE64                     	CALL	_QueueSize
  2230 0000124F 5E                              	POP	ESI
  2231 00001250 85 C0                           	TEST	EAX,EAX
  2232 00001252 0F 84 000001B2                  	JE	L377
  2233 00001258 53                              	PUSH	EBX
  2234 00001259 E8 FFFFEE23                     	CALL	_QueuePop
  2235 0000125E 89 C6                           	MOV	ESI,EAX
  2236 00001260 E8 [00000000]                   	CALL	_io_sti
  2237 00001265 59                              	POP	ECX
  2238 00001266 83 FE 01                        	CMP	ESI,1
  2239 00001269 0F 8E 0000014E                  	JLE	L378
  2240 0000126F                                 L360:
  2241 0000126F 83 FE 02                        	CMP	ESI,2
  2242 00001272 0F 84 00000139                  	JE	L379
  2243 00001278                                 L365:
  2244 00001278 83 FE 03                        	CMP	ESI,3
  2245 0000127B 0F 84 00000102                  	JE	L380
  2246 00001281                                 L366:
  2247 00001281 8D 86 FFFFFEFF                  	LEA	EAX,DWORD [-257+ESI]
  2248 00001287 3D 000000FE                     	CMP	EAX,254
  2249 0000128C 77 48                           	JA	L367
  2250 0000128E 81 FE 00000108                  	CMP	ESI,264
  2251 00001294 0F 84 000000C9                  	JE	L381
  2252 0000129A 81 FE 0000010A                  	CMP	ESI,266
  2253 000012A0 74 7F                           	JE	L382
  2254 000012A2 8B 4D D8                        	MOV	ECX,DWORD [-40+EBP]
  2255 000012A5 81 F9 000000EF                  	CMP	ECX,239
  2256 000012AB 7F 29                           	JG	L367
  2257 000012AD 89 C8                           	MOV	EAX,ECX
  2258 000012AF BA 00000008                     	MOV	EDX,8
  2259 000012B4 89 D3                           	MOV	EBX,EDX
  2260 000012B6 6A 01                           	PUSH	1
  2261 000012B8 99                              	CDQ
  2262 000012B9 F7 FB                           	IDIV	EBX
  2263 000012BB 89 C1                           	MOV	ECX,EAX
  2264 000012BD 89 F0                           	MOV	EAX,ESI
  2265 000012BF 88 44 0D B2                     	MOV	BYTE [-78+EBP+ECX*1],AL
  2266 000012C3 8D 86 FFFFFF00                  	LEA	EAX,DWORD [-256+ESI]
  2267 000012C9 50                              	PUSH	EAX
  2268 000012CA 8D 45 D4                        	LEA	EAX,DWORD [-44+EBP]
  2269 000012CD 50                              	PUSH	EAX
  2270 000012CE                                 L375:
  2271 000012CE E8 FFFFF90C                     	CALL	_consolePutchar
  2272 000012D3                                 L376:
  2273 000012D3 83 C4 0C                        	ADD	ESP,12
  2274 000012D6                                 L367:
  2275 000012D6 83 7D E0 00                     	CMP	DWORD [-32+EBP],0
  2276 000012DA 78 25                           	JS	L374
  2277 000012DC 8B 4D DC                        	MOV	ECX,DWORD [-36+EBP]
  2278 000012DF 8B 55 D8                        	MOV	EDX,DWORD [-40+EBP]
  2279 000012E2 8D 41 0F                        	LEA	EAX,DWORD [15+ECX]
  2280 000012E5 50                              	PUSH	EAX
  2281 000012E6 8D 42 07                        	LEA	EAX,DWORD [7+EDX]
  2282 000012E9 50                              	PUSH	EAX
  2283 000012EA 51                              	PUSH	ECX
  2284 000012EB 8B 4D 08                        	MOV	ECX,DWORD [8+EBP]
  2285 000012EE 52                              	PUSH	EDX
  2286 000012EF 0F B6 45 E0                     	MOVZX	EAX,BYTE [-32+EBP]
  2287 000012F3 50                              	PUSH	EAX
  2288 000012F4 FF 71 04                        	PUSH	DWORD [4+ECX]
  2289 000012F7 FF 31                           	PUSH	DWORD [ECX]
  2290 000012F9 E8 00000B7D                     	CALL	_boxFill8
  2291 000012FE 83 C4 1C                        	ADD	ESP,28
  2292 00001301                                 L374:
  2293 00001301 8B 4D DC                        	MOV	ECX,DWORD [-36+EBP]
  2294 00001304 8B 55 D8                        	MOV	EDX,DWORD [-40+EBP]
  2295 00001307 8D 41 10                        	LEA	EAX,DWORD [16+ECX]
  2296 0000130A 50                              	PUSH	EAX
  2297 0000130B 8D 42 08                        	LEA	EAX,DWORD [8+EDX]
  2298 0000130E 50                              	PUSH	EAX
  2299 0000130F 51                              	PUSH	ECX
  2300 00001310 52                              	PUSH	EDX
  2301 00001311 FF 75 08                        	PUSH	DWORD [8+EBP]
  2302 00001314 E8 000014FC                     	CALL	_sheetRefresh
  2303 00001319 83 C4 14                        	ADD	ESP,20
  2304 0000131C E9 FFFFFF20                     	JMP	L355
  2305 00001321                                 L382:
  2306 00001321 6A 00                           	PUSH	0
  2307 00001323 8D 5D D4                        	LEA	EBX,DWORD [-44+EBP]
  2308 00001326 6A 20                           	PUSH	32
  2309 00001328 53                              	PUSH	EBX
  2310 00001329 E8 FFFFF8B1                     	CALL	_consolePutchar
  2311 0000132E 53                              	PUSH	EBX
  2312 0000132F 8B 45 D8                        	MOV	EAX,DWORD [-40+EBP]
  2313 00001332 BA 00000008                     	MOV	EDX,8
  2314 00001337 89 D1                           	MOV	ECX,EDX
  2315 00001339 99                              	CDQ
  2316 0000133A F7 F9                           	IDIV	ECX
  2317 0000133C C6 44 05 B2 00                  	MOV	BYTE [-78+EBP+EAX*1],0
  2318 00001341 E8 FFFFF7DE                     	CALL	_consoleNewLine
  2319 00001346 8D 45 B4                        	LEA	EAX,DWORD [-76+EBP]
  2320 00001349 FF 75 0C                        	PUSH	DWORD [12+EBP]
  2321 0000134C FF 75 B0                        	PUSH	DWORD [-80+EBP]
  2322 0000134F 53                              	PUSH	EBX
  2323 00001350 50                              	PUSH	EAX
  2324 00001351 E8 FFFFFD6F                     	CALL	_consoleRunCmd
  2325 00001356 83 C4 20                        	ADD	ESP,32
  2326 00001359 6A 01                           	PUSH	1
  2327 0000135B 6A 3E                           	PUSH	62
  2328 0000135D 53                              	PUSH	EBX
  2329 0000135E E9 FFFFFF6B                     	JMP	L375
  2330 00001363                                 L381:
  2331 00001363 83 7D D8 10                     	CMP	DWORD [-40+EBP],16
  2332 00001367 0F 8E FFFFFF69                  	JLE	L367
  2333 0000136D 6A 00                           	PUSH	0
  2334 0000136F 8D 45 D4                        	LEA	EAX,DWORD [-44+EBP]
  2335 00001372 6A 20                           	PUSH	32
  2336 00001374 50                              	PUSH	EAX
  2337 00001375 E8 FFFFF865                     	CALL	_consolePutchar
  2338 0000137A 83 6D D8 08                     	SUB	DWORD [-40+EBP],8
  2339 0000137E E9 FFFFFF50                     	JMP	L376
  2340 00001383                                 L380:
  2341 00001383 8B 4D DC                        	MOV	ECX,DWORD [-36+EBP]
  2342 00001386 8B 55 D8                        	MOV	EDX,DWORD [-40+EBP]
  2343 00001389 8D 41 0F                        	LEA	EAX,DWORD [15+ECX]
  2344 0000138C 50                              	PUSH	EAX
  2345 0000138D 8D 42 07                        	LEA	EAX,DWORD [7+EDX]
  2346 00001390 50                              	PUSH	EAX
  2347 00001391 51                              	PUSH	ECX
  2348 00001392 8B 4D 08                        	MOV	ECX,DWORD [8+EBP]
  2349 00001395 52                              	PUSH	EDX
  2350 00001396 6A 00                           	PUSH	0
  2351 00001398 FF 71 04                        	PUSH	DWORD [4+ECX]
  2352 0000139B FF 31                           	PUSH	DWORD [ECX]
  2353 0000139D E8 00000AD9                     	CALL	_boxFill8
  2354 000013A2 83 C4 1C                        	ADD	ESP,28
  2355 000013A5 C7 45 E0 FFFFFFFF               	MOV	DWORD [-32+EBP],-1
  2356 000013AC E9 FFFFFED0                     	JMP	L366
  2357 000013B1                                 L379:
  2358 000013B1 C7 45 E0 00000007               	MOV	DWORD [-32+EBP],7
  2359 000013B8 E9 FFFFFEBB                     	JMP	L365
  2360 000013BD                                 L378:
  2361 000013BD 85 F6                           	TEST	ESI,ESI
  2362 000013BF 74 2C                           	JE	L361
  2363 000013C1 6A 00                           	PUSH	0
  2364 000013C3 53                              	PUSH	EBX
  2365 000013C4 FF 75 E4                        	PUSH	DWORD [-28+EBP]
  2366 000013C7 E8 FFFFEEBE                     	CALL	_timerInit
  2367 000013CC 83 C4 0C                        	ADD	ESP,12
  2368 000013CF 83 7D E0 00                     	CMP	DWORD [-32+EBP],0
  2369 000013D3 78 07                           	JS	L363
  2370 000013D5 C7 45 E0 00000007               	MOV	DWORD [-32+EBP],7
  2371 000013DC                                 L363:
  2372 000013DC 6A 32                           	PUSH	50
  2373 000013DE FF 75 E4                        	PUSH	DWORD [-28+EBP]
  2374 000013E1 E8 FFFFEEB8                     	CALL	_timerSetTime
  2375 000013E6 58                              	POP	EAX
  2376 000013E7 5A                              	POP	EDX
  2377 000013E8 E9 FFFFFE82                     	JMP	L360
  2378 000013ED                                 L361:
  2379 000013ED 6A 01                           	PUSH	1
  2380 000013EF 53                              	PUSH	EBX
  2381 000013F0 FF 75 E4                        	PUSH	DWORD [-28+EBP]
  2382 000013F3 E8 FFFFEE92                     	CALL	_timerInit
  2383 000013F8 83 C4 0C                        	ADD	ESP,12
  2384 000013FB 83 7D E0 00                     	CMP	DWORD [-32+EBP],0
  2385 000013FF 78 DB                           	JS	L363
  2386 00001401 C7 45 E0 00000000               	MOV	DWORD [-32+EBP],0
  2387 00001408 EB D2                           	JMP	L363
  2388 0000140A                                 L377:
  2389 0000140A 57                              	PUSH	EDI
  2390 0000140B E8 FFFFF331                     	CALL	_processSleep
  2391 00001410 E8 [00000000]                   	CALL	_io_sti
  2392 00001415 5B                              	POP	EBX
  2393 00001416 E9 FFFFFE26                     	JMP	L355
  2394 0000141B                                 	GLOBAL	_dickApi
  2395 0000141B                                 _dickApi:
  2396 0000141B 55                              	PUSH	EBP
  2397 0000141C 89 E5                           	MOV	EBP,ESP
  2398 0000141E 57                              	PUSH	EDI
  2399 0000141F 56                              	PUSH	ESI
  2400 00001420 53                              	PUSH	EBX
  2401 00001421 83 EC 10                        	SUB	ESP,16
  2402 00001424 8B 5D 1C                        	MOV	EBX,DWORD [28+EBP]
  2403 00001427 E8 FFFFEF8A                     	CALL	_processNow
  2404 0000142C 8B 15 00000FE4                  	MOV	EDX,DWORD [4068]
  2405 00001432 83 FB 01                        	CMP	EBX,1
  2406 00001435 89 45 F0                        	MOV	DWORD [-16+EBP],EAX
  2407 00001438 8B B8 00000098                  	MOV	EDI,DWORD [152+EAX]
  2408 0000143E 8B 80 00000094                  	MOV	EAX,DWORD [148+EAX]
  2409 00001444 89 55 E8                        	MOV	DWORD [-24+EBP],EDX
  2410 00001447 89 45 EC                        	MOV	DWORD [-20+EBP],EAX
  2411 0000144A 0F 84 00000427                  	JE	L447
  2412 00001450 83 FB 02                        	CMP	EBX,2
  2413 00001453 0F 84 0000040B                  	JE	L448
  2414 00001459 83 FB 03                        	CMP	EBX,3
  2415 0000145C 0F 84 000003EC                  	JE	L449
  2416 00001462 83 FB 04                        	CMP	EBX,4
  2417 00001465 0F 84 000003D8                  	JE	L450
  2418 0000146B 83 FB 05                        	CMP	EBX,5
  2419 0000146E 0F 84 00000356                  	JE	L451
  2420 00001474 83 FB 06                        	CMP	EBX,6
  2421 00001477 0F 84 00000302                  	JE	L452
  2422 0000147D 83 FB 07                        	CMP	EBX,7
  2423 00001480 0F 84 000002D0                  	JE	L453
  2424 00001486 83 FB 08                        	CMP	EBX,8
  2425 00001489 0F 84 000002A4                  	JE	L454
  2426 0000148F 83 FB 09                        	CMP	EBX,9
  2427 00001492 0F 84 0000027E                  	JE	L455
  2428 00001498 83 FB 0A                        	CMP	EBX,10
  2429 0000149B 0F 84 00000258                  	JE	L456
  2430 000014A1 83 FB 0B                        	CMP	EBX,11
  2431 000014A4 0F 84 00000218                  	JE	L457
  2432 000014AA 83 FB 0C                        	CMP	EBX,12
  2433 000014AD 0F 84 000001FE                  	JE	L458
  2434 000014B3 83 FB 0D                        	CMP	EBX,13
  2435 000014B6 0F 84 000001AC                  	JE	L459
  2436 000014BC 83 FB 0E                        	CMP	EBX,14
  2437 000014BF 0F 84 00000196                  	JE	L460
  2438 000014C5 83 FB 0F                        	CMP	EBX,15
  2439 000014C8 0F 84 000000E9                  	JE	L417
  2440 000014CE 83 FB 10                        	CMP	EBX,16
  2441 000014D1 0F 84 000000CF                  	JE	L461
  2442 000014D7 83 FB 11                        	CMP	EBX,17
  2443 000014DA 0F 84 000000A9                  	JE	L462
  2444 000014E0 83 FB 12                        	CMP	EBX,18
  2445 000014E3 0F 84 0000008E                  	JE	L463
  2446 000014E9 83 FB 13                        	CMP	EBX,19
  2447 000014EC 74 7B                           	JE	L464
  2448 000014EE 83 FB 14                        	CMP	EBX,20
  2449 000014F1 74 0A                           	JE	L465
  2450 000014F3                                 L385:
  2451 000014F3 31 C0                           	XOR	EAX,EAX
  2452 000014F5                                 L383:
  2453 000014F5 8D 65 F4                        	LEA	ESP,DWORD [-12+EBP]
  2454 000014F8 5B                              	POP	EBX
  2455 000014F9 5E                              	POP	ESI
  2456 000014FA 5F                              	POP	EDI
  2457 000014FB 5D                              	POP	EBP
  2458 000014FC C3                              	RET
  2459 000014FD                                 L465:
  2460 000014FD 8B 55 24                        	MOV	EDX,DWORD [36+EBP]
  2461 00001500 85 D2                           	TEST	EDX,EDX
  2462 00001502 75 19                           	JNE	L437
  2463 00001504 6A 61                           	PUSH	97
  2464 00001506 E8 [00000000]                   	CALL	_io_in8
  2465 0000150B 89 C3                           	MOV	EBX,EAX
  2466 0000150D 83 E3 0D                        	AND	EBX,13
  2467 00001510 53                              	PUSH	EBX
  2468 00001511 6A 61                           	PUSH	97
  2469 00001513 E8 [00000000]                   	CALL	_io_out8
  2470 00001518                                 L439:
  2471 00001518 83 C4 0C                        	ADD	ESP,12
  2472 0000151B EB D6                           	JMP	L385
  2473 0000151D                                 L437:
  2474 0000151D B9 00B628D0                     	MOV	ECX,11938000
  2475 00001522 89 D6                           	MOV	ESI,EDX
  2476 00001524 89 C8                           	MOV	EAX,ECX
  2477 00001526 68 000000B6                     	PUSH	182
  2478 0000152B 99                              	CDQ
  2479 0000152C F7 FE                           	IDIV	ESI
  2480 0000152E 6A 43                           	PUSH	67
  2481 00001530 89 C3                           	MOV	EBX,EAX
  2482 00001532 E8 [00000000]                   	CALL	_io_out8
  2483 00001537 0F B6 C3                        	MOVZX	EAX,BL
  2484 0000153A C1 FB 08                        	SAR	EBX,8
  2485 0000153D 50                              	PUSH	EAX
  2486 0000153E 6A 42                           	PUSH	66
  2487 00001540 E8 [00000000]                   	CALL	_io_out8
  2488 00001545 53                              	PUSH	EBX
  2489 00001546 6A 42                           	PUSH	66
  2490 00001548 E8 [00000000]                   	CALL	_io_out8
  2491 0000154D 6A 61                           	PUSH	97
  2492 0000154F E8 [00000000]                   	CALL	_io_in8
  2493 00001554 89 C3                           	MOV	EBX,EAX
  2494 00001556 83 CB 03                        	OR	EBX,3
  2495 00001559 83 E3 0F                        	AND	EBX,15
  2496 0000155C 53                              	PUSH	EBX
  2497 0000155D 6A 61                           	PUSH	97
  2498 0000155F E8 [00000000]                   	CALL	_io_out8
  2499 00001564 83 C4 24                        	ADD	ESP,36
  2500 00001567 EB 8A                           	JMP	L385
  2501 00001569                                 L464:
  2502 00001569 FF 75 18                        	PUSH	DWORD [24+EBP]
  2503 0000156C E8 FFFFED0D                     	CALL	_timerFree
  2504 00001571                                 L440:
  2505 00001571 5F                              	POP	EDI
  2506 00001572 E9 FFFFFF7C                     	JMP	L385
  2507 00001577                                 L463:
  2508 00001577 FF 75 24                        	PUSH	DWORD [36+EBP]
  2509 0000157A FF 75 18                        	PUSH	DWORD [24+EBP]
  2510 0000157D E8 FFFFED1C                     	CALL	_timerSetTime
  2511 00001582                                 L442:
  2512 00001582 58                              	POP	EAX
  2513 00001583 5A                              	POP	EDX
  2514 00001584 E9 FFFFFF6A                     	JMP	L385
  2515 00001589                                 L462:
  2516 00001589 8B 45 24                        	MOV	EAX,DWORD [36+EBP]
  2517 0000158C 05 00000100                     	ADD	EAX,256
  2518 00001591 50                              	PUSH	EAX
  2519 00001592 8B 45 F0                        	MOV	EAX,DWORD [-16+EBP]
  2520 00001595 83 C0 10                        	ADD	EAX,16
  2521 00001598 50                              	PUSH	EAX
  2522 00001599 FF 75 18                        	PUSH	DWORD [24+EBP]
  2523 0000159C E8 FFFFECE9                     	CALL	_timerInit
  2524 000015A1 E9 FFFFFF72                     	JMP	L439
  2525 000015A6                                 L461:
  2526 000015A6 E8 FFFFECA9                     	CALL	_timerAlloc
  2527 000015AB 89 45 44                        	MOV	DWORD [68+EBP],EAX
  2528 000015AE C6 40 09 01                     	MOV	BYTE [9+EAX],1
  2529 000015B2 E9 FFFFFF3C                     	JMP	L385
  2530 000015B7                                 L417:
  2531 000015B7 E8 [00000000]                   	CALL	_io_cli
  2532 000015BC 8B 45 F0                        	MOV	EAX,DWORD [-16+EBP]
  2533 000015BF 83 C0 10                        	ADD	EAX,16
  2534 000015C2 50                              	PUSH	EAX
  2535 000015C3 E8 FFFFEAEB                     	CALL	_QueueSize
  2536 000015C8 5E                              	POP	ESI
  2537 000015C9 85 C0                           	TEST	EAX,EAX
  2538 000015CB 75 0F                           	JNE	L420
  2539 000015CD 83 7D 24 00                     	CMP	DWORD [36+EBP],0
  2540 000015D1 74 77                           	JE	L421
  2541 000015D3 FF 75 F0                        	PUSH	DWORD [-16+EBP]
  2542 000015D6 E8 FFFFF166                     	CALL	_processSleep
  2543 000015DB 5B                              	POP	EBX
  2544 000015DC                                 L420:
  2545 000015DC 8B 75 F0                        	MOV	ESI,DWORD [-16+EBP]
  2546 000015DF 83 C6 10                        	ADD	ESI,16
  2547 000015E2 56                              	PUSH	ESI
  2548 000015E3 E8 FFFFEA99                     	CALL	_QueuePop
  2549 000015E8 89 C3                           	MOV	EBX,EAX
  2550 000015EA E8 [00000000]                   	CALL	_io_sti
  2551 000015EF 59                              	POP	ECX
  2552 000015F0 83 FB 01                        	CMP	EBX,1
  2553 000015F3 7E 38                           	JLE	L466
  2554 000015F5                                 L423:
  2555 000015F5 83 FB 02                        	CMP	EBX,2
  2556 000015F8 74 27                           	JE	L467
  2557 000015FA                                 L424:
  2558 000015FA 83 FB 03                        	CMP	EBX,3
  2559 000015FD 74 16                           	JE	L468
  2560 000015FF                                 L425:
  2561 000015FF 81 FB 000000FF                  	CMP	EBX,255
  2562 00001605 7E B0                           	JLE	L417
  2563 00001607 8D 83 FFFFFF00                  	LEA	EAX,DWORD [-256+EBX]
  2564 0000160D 89 45 44                        	MOV	DWORD [68+EBP],EAX
  2565 00001610 E9 FFFFFEDE                     	JMP	L385
  2566 00001615                                 L468:
  2567 00001615 8B 55 EC                        	MOV	EDX,DWORD [-20+EBP]
  2568 00001618 C7 42 0C FFFFFFFF               	MOV	DWORD [12+EDX],-1
  2569 0000161F EB DE                           	JMP	L425
  2570 00001621                                 L467:
  2571 00001621 8B 45 EC                        	MOV	EAX,DWORD [-20+EBP]
  2572 00001624 C7 40 0C 00000007               	MOV	DWORD [12+EAX],7
  2573 0000162B EB CD                           	JMP	L424
  2574 0000162D                                 L466:
  2575 0000162D 6A 01                           	PUSH	1
  2576 0000162F 56                              	PUSH	ESI
  2577 00001630 8B 75 EC                        	MOV	ESI,DWORD [-20+EBP]
  2578 00001633 FF 76 10                        	PUSH	DWORD [16+ESI]
  2579 00001636 E8 FFFFEC4F                     	CALL	_timerInit
  2580 0000163B 6A 32                           	PUSH	50
  2581 0000163D FF 76 10                        	PUSH	DWORD [16+ESI]
  2582 00001640 E8 FFFFEC59                     	CALL	_timerSetTime
  2583 00001645 83 C4 14                        	ADD	ESP,20
  2584 00001648 EB AB                           	JMP	L423
  2585 0000164A                                 L421:
  2586 0000164A E8 [00000000]                   	CALL	_io_sti
  2587 0000164F C7 45 44 FFFFFFFF               	MOV	DWORD [68+EBP],-1
  2588 00001656 E9 FFFFFE98                     	JMP	L385
  2589 0000165B                                 L460:
  2590 0000165B FF 75 18                        	PUSH	DWORD [24+EBP]
  2591 0000165E E8 000013EF                     	CALL	_sheetFree
  2592 00001663 E9 FFFFFF09                     	JMP	L440
  2593 00001668                                 L459:
  2594 00001668 FF 75 10                        	PUSH	DWORD [16+EBP]
  2595 0000166B FF 75 08                        	PUSH	DWORD [8+EBP]
  2596 0000166E FF 75 0C                        	PUSH	DWORD [12+EBP]
  2597 00001671 FF 75 20                        	PUSH	DWORD [32+EBP]
  2598 00001674 8B 75 18                        	MOV	ESI,DWORD [24+EBP]
  2599 00001677 FF 75 24                        	PUSH	DWORD [36+EBP]
  2600 0000167A 83 E6 FE                        	AND	ESI,-2
  2601 0000167D 56                              	PUSH	ESI
  2602 0000167E E8 00000208                     	CALL	_dickApiLineWin
  2603 00001683 83 C4 18                        	ADD	ESP,24
  2604 00001686                                 L446:
  2605 00001686 F7 45 18 00000001               	TEST	DWORD [24+EBP],1
  2606 0000168D 0F 85 FFFFFE60                  	JNE	L385
  2607 00001693 8B 45 08                        	MOV	EAX,DWORD [8+EBP]
  2608 00001696 40                              	INC	EAX
  2609 00001697 50                              	PUSH	EAX
  2610 00001698 8B 45 0C                        	MOV	EAX,DWORD [12+EBP]
  2611 0000169B 40                              	INC	EAX
  2612 0000169C 50                              	PUSH	EAX
  2613 0000169D FF 75 20                        	PUSH	DWORD [32+EBP]
  2614 000016A0 FF 75 24                        	PUSH	DWORD [36+EBP]
  2615 000016A3                                 L444:
  2616 000016A3 56                              	PUSH	ESI
  2617 000016A4                                 L441:
  2618 000016A4 E8 0000116C                     	CALL	_sheetRefresh
  2619 000016A9                                 L443:
  2620 000016A9 83 C4 14                        	ADD	ESP,20
  2621 000016AC E9 FFFFFE42                     	JMP	L385
  2622 000016B1                                 L458:
  2623 000016B1 FF 75 08                        	PUSH	DWORD [8+EBP]
  2624 000016B4 FF 75 0C                        	PUSH	DWORD [12+EBP]
  2625 000016B7 FF 75 20                        	PUSH	DWORD [32+EBP]
  2626 000016BA FF 75 24                        	PUSH	DWORD [36+EBP]
  2627 000016BD FF 75 18                        	PUSH	DWORD [24+EBP]
  2628 000016C0 EB E2                           	JMP	L441
  2629 000016C2                                 L457:
  2630 000016C2 8B 75 18                        	MOV	ESI,DWORD [24+EBP]
  2631 000016C5 8B 45 08                        	MOV	EAX,DWORD [8+EBP]
  2632 000016C8 83 E6 FE                        	AND	ESI,-2
  2633 000016CB 8A 55 24                        	MOV	DL,BYTE [36+EBP]
  2634 000016CE 0F AF 46 04                     	IMUL	EAX,DWORD [4+ESI]
  2635 000016D2 03 45 0C                        	ADD	EAX,DWORD [12+EBP]
  2636 000016D5 8B 0E                           	MOV	ECX,DWORD [ESI]
  2637 000016D7 88 14 08                        	MOV	BYTE [EAX+ECX*1],DL
  2638 000016DA F7 45 18 00000001               	TEST	DWORD [24+EBP],1
  2639 000016E1 0F 85 FFFFFE0C                  	JNE	L385
  2640 000016E7 8B 45 08                        	MOV	EAX,DWORD [8+EBP]
  2641 000016EA 40                              	INC	EAX
  2642 000016EB 50                              	PUSH	EAX
  2643 000016EC 8B 45 0C                        	MOV	EAX,DWORD [12+EBP]
  2644 000016EF 40                              	INC	EAX
  2645 000016F0 50                              	PUSH	EAX
  2646 000016F1 FF 75 08                        	PUSH	DWORD [8+EBP]
  2647 000016F4 FF 75 0C                        	PUSH	DWORD [12+EBP]
  2648 000016F7 EB AA                           	JMP	L444
  2649 000016F9                                 L456:
  2650 000016F9 8B 45 20                        	MOV	EAX,DWORD [32+EBP]
  2651 000016FC 83 C0 0F                        	ADD	EAX,15
  2652 000016FF 83 E0 F0                        	AND	EAX,-16
  2653 00001702 50                              	PUSH	EAX
  2654 00001703 8B 45 18                        	MOV	EAX,DWORD [24+EBP]
  2655 00001706 FF 75 24                        	PUSH	DWORD [36+EBP]
  2656 00001709 01 F8                           	ADD	EAX,EDI
  2657 0000170B 50                              	PUSH	EAX
  2658 0000170C E8 00000C77                     	CALL	_memsegFree
  2659 00001711 E9 FFFFFE02                     	JMP	L439
  2660 00001716                                 L455:
  2661 00001716 8B 45 20                        	MOV	EAX,DWORD [32+EBP]
  2662 00001719 83 C0 0F                        	ADD	EAX,15
  2663 0000171C 83 E0 F0                        	AND	EAX,-16
  2664 0000171F 50                              	PUSH	EAX
  2665 00001720 8B 45 18                        	MOV	EAX,DWORD [24+EBP]
  2666 00001723 01 F8                           	ADD	EAX,EDI
  2667 00001725 50                              	PUSH	EAX
  2668 00001726 E8 00000BFA                     	CALL	_memsegAlloc
  2669 0000172B 89 45 44                        	MOV	DWORD [68+EBP],EAX
  2670 0000172E E9 FFFFFE4F                     	JMP	L442
  2671 00001733                                 L454:
  2672 00001733 8B 5D 18                        	MOV	EBX,DWORD [24+EBP]
  2673 00001736 01 FB                           	ADD	EBX,EDI
  2674 00001738 53                              	PUSH	EBX
  2675 00001739 E8 00000BC4                     	CALL	_memsegInit
  2676 0000173E 83 65 20 F0                     	AND	DWORD [32+EBP],-16
  2677 00001742 FF 75 20                        	PUSH	DWORD [32+EBP]
  2678 00001745 FF 75 24                        	PUSH	DWORD [36+EBP]
  2679 00001748 53                              	PUSH	EBX
  2680 00001749 E8 00000C3A                     	CALL	_memsegFree
  2681 0000174E 83 C4 10                        	ADD	ESP,16
  2682 00001751 E9 FFFFFD9D                     	JMP	L385
  2683 00001756                                 L453:
  2684 00001756 FF 75 08                        	PUSH	DWORD [8+EBP]
  2685 00001759 FF 75 0C                        	PUSH	DWORD [12+EBP]
  2686 0000175C FF 75 20                        	PUSH	DWORD [32+EBP]
  2687 0000175F 8B 75 18                        	MOV	ESI,DWORD [24+EBP]
  2688 00001762 FF 75 24                        	PUSH	DWORD [36+EBP]
  2689 00001765 83 E6 FE                        	AND	ESI,-2
  2690 00001768 0F B6 45 10                     	MOVZX	EAX,BYTE [16+EBP]
  2691 0000176C 50                              	PUSH	EAX
  2692 0000176D FF 76 04                        	PUSH	DWORD [4+ESI]
  2693 00001770 FF 36                           	PUSH	DWORD [ESI]
  2694 00001772 E8 00000704                     	CALL	_boxFill8
  2695 00001777 83 C4 1C                        	ADD	ESP,28
  2696 0000177A E9 FFFFFF07                     	JMP	L446
  2697 0000177F                                 L452:
  2698 0000177F 8B 45 10                        	MOV	EAX,DWORD [16+EBP]
  2699 00001782 8B 75 18                        	MOV	ESI,DWORD [24+EBP]
  2700 00001785 01 F8                           	ADD	EAX,EDI
  2701 00001787 83 E6 FE                        	AND	ESI,-2
  2702 0000178A 50                              	PUSH	EAX
  2703 0000178B 0F BE 45 24                     	MOVSX	EAX,BYTE [36+EBP]
  2704 0000178F 50                              	PUSH	EAX
  2705 00001790 FF 75 08                        	PUSH	DWORD [8+EBP]
  2706 00001793 FF 75 0C                        	PUSH	DWORD [12+EBP]
  2707 00001796 FF 76 04                        	PUSH	DWORD [4+ESI]
  2708 00001799 FF 36                           	PUSH	DWORD [ESI]
  2709 0000179B E8 0000093D                     	CALL	_putFont8_asc
  2710 000017A0 83 C4 18                        	ADD	ESP,24
  2711 000017A3 F7 45 18 00000001               	TEST	DWORD [24+EBP],1
  2712 000017AA 0F 85 FFFFFD43                  	JNE	L385
  2713 000017B0 8B 4D 0C                        	MOV	ECX,DWORD [12+EBP]
  2714 000017B3 8B 45 08                        	MOV	EAX,DWORD [8+EBP]
  2715 000017B6 8B 55 20                        	MOV	EDX,DWORD [32+EBP]
  2716 000017B9 83 C0 10                        	ADD	EAX,16
  2717 000017BC 50                              	PUSH	EAX
  2718 000017BD 8D 04 D1                        	LEA	EAX,DWORD [ECX+EDX*8]
  2719 000017C0 50                              	PUSH	EAX
  2720 000017C1 FF 75 08                        	PUSH	DWORD [8+EBP]
  2721 000017C4 51                              	PUSH	ECX
  2722 000017C5 E9 FFFFFED9                     	JMP	L444
  2723 000017CA                                 L451:
  2724 000017CA FF 75 E8                        	PUSH	DWORD [-24+EBP]
  2725 000017CD E8 00000D51                     	CALL	_sheetAlloc
  2726 000017D2 8B 5D 18                        	MOV	EBX,DWORD [24+EBP]
  2727 000017D5 8B 4D F0                        	MOV	ECX,DWORD [-16+EBP]
  2728 000017D8 01 FB                           	ADD	EBX,EDI
  2729 000017DA 89 48 24                        	MOV	DWORD [36+EAX],ECX
  2730 000017DD 89 C6                           	MOV	ESI,EAX
  2731 000017DF 83 48 1C 10                     	OR	DWORD [28+EAX],16
  2732 000017E3 FF 75 24                        	PUSH	DWORD [36+EBP]
  2733 000017E6 FF 75 08                        	PUSH	DWORD [8+EBP]
  2734 000017E9 FF 75 0C                        	PUSH	DWORD [12+EBP]
  2735 000017EC 53                              	PUSH	EBX
  2736 000017ED 50                              	PUSH	EAX
  2737 000017EE E8 00000D6A                     	CALL	_sheetSetbuf
  2738 000017F3 8B 45 20                        	MOV	EAX,DWORD [32+EBP]
  2739 000017F6 6A 00                           	PUSH	0
  2740 000017F8 01 F8                           	ADD	EAX,EDI
  2741 000017FA 50                              	PUSH	EAX
  2742 000017FB FF 75 08                        	PUSH	DWORD [8+EBP]
  2743 000017FE FF 75 0C                        	PUSH	DWORD [12+EBP]
  2744 00001801 53                              	PUSH	EBX
  2745 00001802 BB 00000002                     	MOV	EBX,2
  2746 00001807 E8 FFFFF15A                     	CALL	_makeWindow
  2747 0000180C 8B 4D E8                        	MOV	ECX,DWORD [-24+EBP]
  2748 0000180F 8B 55 E8                        	MOV	EDX,DWORD [-24+EBP]
  2749 00001812 83 C4 2C                        	ADD	ESP,44
  2750 00001815 8B 42 0C                        	MOV	EAX,DWORD [12+EDX]
  2751 00001818 2B 45 08                        	SUB	EAX,DWORD [8+EBP]
  2752 0000181B 99                              	CDQ
  2753 0000181C F7 FB                           	IDIV	EBX
  2754 0000181E 50                              	PUSH	EAX
  2755 0000181F 8B 41 08                        	MOV	EAX,DWORD [8+ECX]
  2756 00001822 2B 45 0C                        	SUB	EAX,DWORD [12+EBP]
  2757 00001825 99                              	CDQ
  2758 00001826 F7 FB                           	IDIV	EBX
  2759 00001828 50                              	PUSH	EAX
  2760 00001829 56                              	PUSH	ESI
  2761 0000182A E8 00001186                     	CALL	_sheetSlide
  2762 0000182F 8B 45 E8                        	MOV	EAX,DWORD [-24+EBP]
  2763 00001832 FF 70 10                        	PUSH	DWORD [16+EAX]
  2764 00001835 56                              	PUSH	ESI
  2765 00001836 E8 00000E9E                     	CALL	_sheetUpdown
  2766 0000183B 89 75 44                        	MOV	DWORD [68+EBP],ESI
  2767 0000183E E9 FFFFFE66                     	JMP	L443
  2768 00001843                                 L450:
  2769 00001843 8B 45 F0                        	MOV	EAX,DWORD [-16+EBP]
  2770 00001846 83 C0 30                        	ADD	EAX,48
  2771 00001849 E9 FFFFFCA7                     	JMP	L383
  2772 0000184E                                 L449:
  2773 0000184E 8B 45 18                        	MOV	EAX,DWORD [24+EBP]
  2774 00001851 FF 75 20                        	PUSH	DWORD [32+EBP]
  2775 00001854 01 F8                           	ADD	EAX,EDI
  2776 00001856 50                              	PUSH	EAX
  2777 00001857 FF 75 EC                        	PUSH	DWORD [-20+EBP]
  2778 0000185A E8 FFFFF451                     	CALL	_consolePutstr1
  2779 0000185F E9 FFFFFCB4                     	JMP	L439
  2780 00001864                                 L448:
  2781 00001864 8B 45 18                        	MOV	EAX,DWORD [24+EBP]
  2782 00001867 01 F8                           	ADD	EAX,EDI
  2783 00001869 50                              	PUSH	EAX
  2784 0000186A FF 75 EC                        	PUSH	DWORD [-20+EBP]
  2785 0000186D E8 FFFFF410                     	CALL	_consolePutstr0
  2786 00001872 E9 FFFFFD0B                     	JMP	L442
  2787 00001877                                 L447:
  2788 00001877 6A 01                           	PUSH	1
  2789 00001879 0F B6 45 24                     	MOVZX	EAX,BYTE [36+EBP]
  2790 0000187D 50                              	PUSH	EAX
  2791 0000187E FF 75 EC                        	PUSH	DWORD [-20+EBP]
  2792 00001881 E8 FFFFF359                     	CALL	_consolePutchar
  2793 00001886 E9 FFFFFC8D                     	JMP	L439
  2794 0000188B                                 	GLOBAL	_dickApiLineWin
  2795 0000188B                                 _dickApiLineWin:
  2796 0000188B 55                              	PUSH	EBP
  2797 0000188C 89 E5                           	MOV	EBP,ESP
  2798 0000188E 57                              	PUSH	EDI
  2799 0000188F 56                              	PUSH	ESI
  2800 00001890 53                              	PUSH	EBX
  2801 00001891 83 EC 0C                        	SUB	ESP,12
  2802 00001894 8B 5D 0C                        	MOV	EBX,DWORD [12+EBP]
  2803 00001897 8B 45 14                        	MOV	EAX,DWORD [20+EBP]
  2804 0000189A 89 D9                           	MOV	ECX,EBX
  2805 0000189C 8B 55 18                        	MOV	EDX,DWORD [24+EBP]
  2806 0000189F C1 E1 0A                        	SAL	ECX,10
  2807 000018A2 89 D7                           	MOV	EDI,EDX
  2808 000018A4 89 4D F0                        	MOV	DWORD [-16+EBP],ECX
  2809 000018A7 89 C6                           	MOV	ESI,EAX
  2810 000018A9 8B 4D 10                        	MOV	ECX,DWORD [16+EBP]
  2811 000018AC 2B 7D 10                        	SUB	EDI,DWORD [16+EBP]
  2812 000018AF C1 E1 0A                        	SAL	ECX,10
  2813 000018B2 29 DE                           	SUB	ESI,EBX
  2814 000018B4 89 4D EC                        	MOV	DWORD [-20+EBP],ECX
  2815 000018B7 0F 88 000000A3                  	JS	L491
  2816 000018BD                                 L470:
  2817 000018BD 85 FF                           	TEST	EDI,EDI
  2818 000018BF 0F 88 00000094                  	JS	L492
  2819 000018C5                                 L471:
  2820 000018C5 39 FE                           	CMP	ESI,EDI
  2821 000018C7 7C 62                           	JL	L472
  2822 000018C9 8D 4E 01                        	LEA	ECX,DWORD [1+ESI]
  2823 000018CC 39 C3                           	CMP	EBX,EAX
  2824 000018CE BE FFFFFC00                     	MOV	ESI,-1024
  2825 000018D3 7F 05                           	JG	L474
  2826 000018D5 BE 00000400                     	MOV	ESI,1024
  2827 000018DA                                 L474:
  2828 000018DA 39 55 10                        	CMP	DWORD [16+EBP],EDX
  2829 000018DD 7F 46                           	JG	L475
  2830 000018DF 2B 55 10                        	SUB	EDX,DWORD [16+EBP]
  2831 000018E2 42                              	INC	EDX
  2832 000018E3                                 L490:
  2833 000018E3 C1 E2 0A                        	SAL	EDX,10
  2834 000018E6 89 D0                           	MOV	EAX,EDX
  2835 000018E8 99                              	CDQ
  2836 000018E9 F7 F9                           	IDIV	ECX
  2837 000018EB 89 C7                           	MOV	EDI,EAX
  2838 000018ED                                 L477:
  2839 000018ED 85 C9                           	TEST	ECX,ECX
  2840 000018EF 7E 2C                           	JLE	L488
  2841 000018F1 89 CB                           	MOV	EBX,ECX
  2842 000018F3                                 L486:
  2843 000018F3 8B 55 08                        	MOV	EDX,DWORD [8+EBP]
  2844 000018F6 8B 45 EC                        	MOV	EAX,DWORD [-20+EBP]
  2845 000018F9 C1 F8 0A                        	SAR	EAX,10
  2846 000018FC 8B 4D F0                        	MOV	ECX,DWORD [-16+EBP]
  2847 000018FF 0F AF 42 04                     	IMUL	EAX,DWORD [4+EDX]
  2848 00001903 C1 F9 0A                        	SAR	ECX,10
  2849 00001906 89 4D E8                        	MOV	DWORD [-24+EBP],ECX
  2850 00001909 8B 0A                           	MOV	ECX,DWORD [EDX]
  2851 0000190B 03 45 E8                        	ADD	EAX,DWORD [-24+EBP]
  2852 0000190E 8A 55 1C                        	MOV	DL,BYTE [28+EBP]
  2853 00001911 88 14 08                        	MOV	BYTE [EAX+ECX*1],DL
  2854 00001914 01 75 F0                        	ADD	DWORD [-16+EBP],ESI
  2855 00001917 01 7D EC                        	ADD	DWORD [-20+EBP],EDI
  2856 0000191A 4B                              	DEC	EBX
  2857 0000191B 75 D6                           	JNE	L486
  2858 0000191D                                 L488:
  2859 0000191D 83 C4 0C                        	ADD	ESP,12
  2860 00001920 5B                              	POP	EBX
  2861 00001921 5E                              	POP	ESI
  2862 00001922 5F                              	POP	EDI
  2863 00001923 5D                              	POP	EBP
  2864 00001924 C3                              	RET
  2865 00001925                                 L475:
  2866 00001925 2B 55 10                        	SUB	EDX,DWORD [16+EBP]
  2867 00001928 4A                              	DEC	EDX
  2868 00001929 EB B8                           	JMP	L490
  2869 0000192B                                 L472:
  2870 0000192B 8D 4F 01                        	LEA	ECX,DWORD [1+EDI]
  2871 0000192E 39 55 10                        	CMP	DWORD [16+EBP],EDX
  2872 00001931 BF FFFFFC00                     	MOV	EDI,-1024
  2873 00001936 7F 05                           	JG	L479
  2874 00001938 BF 00000400                     	MOV	EDI,1024
  2875 0000193D                                 L479:
  2876 0000193D 39 C3                           	CMP	EBX,EAX
  2877 0000193F 7F 11                           	JG	L480
  2878 00001941 29 D8                           	SUB	EAX,EBX
  2879 00001943 8D 50 01                        	LEA	EDX,DWORD [1+EAX]
  2880 00001946                                 L489:
  2881 00001946 C1 E2 0A                        	SAL	EDX,10
  2882 00001949 89 D0                           	MOV	EAX,EDX
  2883 0000194B 99                              	CDQ
  2884 0000194C F7 F9                           	IDIV	ECX
  2885 0000194E 89 C6                           	MOV	ESI,EAX
  2886 00001950 EB 9B                           	JMP	L477
  2887 00001952                                 L480:
  2888 00001952 29 D8                           	SUB	EAX,EBX
  2889 00001954 8D 50 FF                        	LEA	EDX,DWORD [-1+EAX]
  2890 00001957 EB ED                           	JMP	L489
  2891 00001959                                 L492:
  2892 00001959 F7 DF                           	NEG	EDI
  2893 0000195B E9 FFFFFF65                     	JMP	L471
  2894 00001960                                 L491:
  2895 00001960 F7 DE                           	NEG	ESI
  2896 00001962 E9 FFFFFF56                     	JMP	L470
  2897 00001967                                 	GLOBAL	_init_pic
  2898 00001967                                 _init_pic:
  2899 00001967 55                              	PUSH	EBP
  2900 00001968 89 E5                           	MOV	EBP,ESP
  2901 0000196A 68 000000FF                     	PUSH	255
  2902 0000196F 6A 21                           	PUSH	33
  2903 00001971 E8 [00000000]                   	CALL	_io_out8
  2904 00001976 68 000000FF                     	PUSH	255
  2905 0000197B 68 000000A1                     	PUSH	161
  2906 00001980 E8 [00000000]                   	CALL	_io_out8
  2907 00001985 6A 11                           	PUSH	17
  2908 00001987 6A 20                           	PUSH	32
  2909 00001989 E8 [00000000]                   	CALL	_io_out8
  2910 0000198E 6A 20                           	PUSH	32
  2911 00001990 6A 21                           	PUSH	33
  2912 00001992 E8 [00000000]                   	CALL	_io_out8
  2913 00001997 83 C4 20                        	ADD	ESP,32
  2914 0000199A 6A 04                           	PUSH	4
  2915 0000199C 6A 21                           	PUSH	33
  2916 0000199E E8 [00000000]                   	CALL	_io_out8
  2917 000019A3 6A 01                           	PUSH	1
  2918 000019A5 6A 21                           	PUSH	33
  2919 000019A7 E8 [00000000]                   	CALL	_io_out8
  2920 000019AC 6A 11                           	PUSH	17
  2921 000019AE 68 000000A0                     	PUSH	160
  2922 000019B3 E8 [00000000]                   	CALL	_io_out8
  2923 000019B8 6A 28                           	PUSH	40
  2924 000019BA 68 000000A1                     	PUSH	161
  2925 000019BF E8 [00000000]                   	CALL	_io_out8
  2926 000019C4 83 C4 20                        	ADD	ESP,32
  2927 000019C7 6A 02                           	PUSH	2
  2928 000019C9 68 000000A1                     	PUSH	161
  2929 000019CE E8 [00000000]                   	CALL	_io_out8
  2930 000019D3 6A 01                           	PUSH	1
  2931 000019D5 68 000000A1                     	PUSH	161
  2932 000019DA E8 [00000000]                   	CALL	_io_out8
  2933 000019DF 68 000000FB                     	PUSH	251
  2934 000019E4 6A 21                           	PUSH	33
  2935 000019E6 E8 [00000000]                   	CALL	_io_out8
  2936 000019EB 68 000000FF                     	PUSH	255
  2937 000019F0 68 000000A1                     	PUSH	161
  2938 000019F5 E8 [00000000]                   	CALL	_io_out8
  2939 000019FA C9                              	LEAVE
  2940 000019FB C3                              	RET
  2941 000019FC                                 	GLOBAL	_interruptHandler21
  2942 000019FC                                 _interruptHandler21:
  2943 000019FC 55                              	PUSH	EBP
  2944 000019FD 89 E5                           	MOV	EBP,ESP
  2945 000019FF 6A 61                           	PUSH	97
  2946 00001A01 6A 20                           	PUSH	32
  2947 00001A03 E8 [00000000]                   	CALL	_io_out8
  2948 00001A08 6A 60                           	PUSH	96
  2949 00001A0A E8 [00000000]                   	CALL	_io_in8
  2950 00001A0F 03 05 [00000444]                	ADD	EAX,DWORD [_keyData0]
  2951 00001A15 50                              	PUSH	EAX
  2952 00001A16 FF 35 [00000440]                	PUSH	DWORD [_keybuf]
  2953 00001A1C E8 FFFFE610                     	CALL	_QueuePush
  2954 00001A21 C9                              	LEAVE
  2955 00001A22 C3                              	RET
  2956 00001A23                                 	GLOBAL	_interruptHandler27
  2957 00001A23                                 _interruptHandler27:
  2958 00001A23 55                              	PUSH	EBP
  2959 00001A24 89 E5                           	MOV	EBP,ESP
  2960 00001A26 6A 67                           	PUSH	103
  2961 00001A28 6A 20                           	PUSH	32
  2962 00001A2A E8 [00000000]                   	CALL	_io_out8
  2963 00001A2F C9                              	LEAVE
  2964 00001A30 C3                              	RET
  2965 00001A31                                 	GLOBAL	_interruptHandler2c
  2966 00001A31                                 _interruptHandler2c:
  2967 00001A31 55                              	PUSH	EBP
  2968 00001A32 89 E5                           	MOV	EBP,ESP
  2969 00001A34 6A 64                           	PUSH	100
  2970 00001A36 68 000000A0                     	PUSH	160
  2971 00001A3B E8 [00000000]                   	CALL	_io_out8
  2972 00001A40 6A 62                           	PUSH	98
  2973 00001A42 6A 20                           	PUSH	32
  2974 00001A44 E8 [00000000]                   	CALL	_io_out8
  2975 00001A49 6A 60                           	PUSH	96
  2976 00001A4B E8 [00000000]                   	CALL	_io_in8
  2977 00001A50 03 05 [0000044C]                	ADD	EAX,DWORD [_mouseData0]
  2978 00001A56 50                              	PUSH	EAX
  2979 00001A57 FF 35 [00000448]                	PUSH	DWORD [_mousebuf]
  2980 00001A5D E8 FFFFE5CF                     	CALL	_QueuePush
  2981 00001A62 C9                              	LEAVE
  2982 00001A63 C3                              	RET
  2983 00001A64                                 	GLOBAL	_interruptHandler20
  2984 00001A64                                 _interruptHandler20:
  2985 00001A64 55                              	PUSH	EBP
  2986 00001A65 89 E5                           	MOV	EBP,ESP
  2987 00001A67 56                              	PUSH	ESI
  2988 00001A68 53                              	PUSH	EBX
  2989 00001A69 31 F6                           	XOR	ESI,ESI
  2990 00001A6B 6A 60                           	PUSH	96
  2991 00001A6D 6A 20                           	PUSH	32
  2992 00001A6F E8 [00000000]                   	CALL	_io_out8
  2993 00001A74 A1 [00000450]                   	MOV	EAX,DWORD [_timerctl]
  2994 00001A79 40                              	INC	EAX
  2995 00001A7A A3 [00000450]                   	MOV	DWORD [_timerctl],EAX
  2996 00001A7F 39 05 [00000454]                	CMP	DWORD [_timerctl+4],EAX
  2997 00001A85 59                              	POP	ECX
  2998 00001A86 5B                              	POP	EBX
  2999 00001A87 77 46                           	JA	L497
  3000 00001A89 8B 1D [00000458]                	MOV	EBX,DWORD [_timerctl+8]
  3001 00001A8F                                 L499:
  3002 00001A8F 8B 43 04                        	MOV	EAX,DWORD [4+EBX]
  3003 00001A92 3B 05 [00000450]                	CMP	EAX,DWORD [_timerctl]
  3004 00001A98 77 24                           	JA	L500
  3005 00001A9A C6 43 08 01                     	MOV	BYTE [8+EBX],1
  3006 00001A9E 3B 1D [00002B70]                	CMP	EBX,DWORD [_mpTimer]
  3007 00001AA4 74 11                           	JE	L503
  3008 00001AA6 FF 73 10                        	PUSH	DWORD [16+EBX]
  3009 00001AA9 FF 73 0C                        	PUSH	DWORD [12+EBX]
  3010 00001AAC E8 FFFFE580                     	CALL	_QueuePush
  3011 00001AB1 58                              	POP	EAX
  3012 00001AB2 5A                              	POP	EDX
  3013 00001AB3                                 L504:
  3014 00001AB3 8B 1B                           	MOV	EBX,DWORD [EBX]
  3015 00001AB5 EB D8                           	JMP	L499
  3016 00001AB7                                 L503:
  3017 00001AB7 BE 00000001                     	MOV	ESI,1
  3018 00001ABC EB F5                           	JMP	L504
  3019 00001ABE                                 L500:
  3020 00001ABE A3 [00000454]                   	MOV	DWORD [_timerctl+4],EAX
  3021 00001AC3 89 1D [00000458]                	MOV	DWORD [_timerctl+8],EBX
  3022 00001AC9 89 F0                           	MOV	EAX,ESI
  3023 00001ACB 84 C0                           	TEST	AL,AL
  3024 00001ACD 75 07                           	JNE	L506
  3025 00001ACF                                 L497:
  3026 00001ACF 8D 65 F8                        	LEA	ESP,DWORD [-8+EBP]
  3027 00001AD2 5B                              	POP	EBX
  3028 00001AD3 5E                              	POP	ESI
  3029 00001AD4 5D                              	POP	EBP
  3030 00001AD5 C3                              	RET
  3031 00001AD6                                 L506:
  3032 00001AD6 8D 65 F8                        	LEA	ESP,DWORD [-8+EBP]
  3033 00001AD9 5B                              	POP	EBX
  3034 00001ADA 5E                              	POP	ESI
  3035 00001ADB 5D                              	POP	EBP
  3036 00001ADC E9 FFFFEBE2                     	JMP	_processSwitch
  3037                                          [SECTION .data]
  3038 00000264                                 LC11:
  3039 00000264 0A 49 4E 54 20 30 44 20 3A 0A   	DB	0x0A,"INT 0D :",0x0A," General Protected Exception.",0x0A,0x00
       0000026E 20 47 65 6E 65 72 61 6C 20 50 
       00000278 72 6F 74 65 63 74 65 64 20 45 
       00000282 78 63 65 70 74 69 6F 6E 2E 0A 
       0000028C 00 
  3040 0000028D                                 LC12:
  3041 0000028D 45 49 50 20 3D 20 25 30 38 58   	DB	"EIP = %08X",0x0A,0x00
       00000297 0A 00 
  3042                                          [SECTION .text]
  3043 00001AE1                                 	GLOBAL	_interruptHandler0d
  3044 00001AE1                                 _interruptHandler0d:
  3045 00001AE1 55                              	PUSH	EBP
  3046 00001AE2 89 E5                           	MOV	EBP,ESP
  3047 00001AE4 57                              	PUSH	EDI
  3048 00001AE5 56                              	PUSH	ESI
  3049 00001AE6 53                              	PUSH	EBX
  3050 00001AE7 8D 5D D4                        	LEA	EBX,DWORD [-44+EBP]
  3051 00001AEA 83 EC 20                        	SUB	ESP,32
  3052 00001AED E8 FFFFE8C4                     	CALL	_processNow
  3053 00001AF2 89 C6                           	MOV	ESI,EAX
  3054 00001AF4 8B B8 00000094                  	MOV	EDI,DWORD [148+EAX]
  3055 00001AFA 83 C6 30                        	ADD	ESI,48
  3056 00001AFD 68 [00000264]                   	PUSH	LC11
  3057 00001B02 57                              	PUSH	EDI
  3058 00001B03 E8 FFFFF17A                     	CALL	_consolePutstr0
  3059 00001B08 8B 45 08                        	MOV	EAX,DWORD [8+EBP]
  3060 00001B0B FF 70 2C                        	PUSH	DWORD [44+EAX]
  3061 00001B0E 68 [0000028D]                   	PUSH	LC12
  3062 00001B13 53                              	PUSH	EBX
  3063 00001B14 E8 [00000000]                   	CALL	_sprintf
  3064 00001B19 53                              	PUSH	EBX
  3065 00001B1A 57                              	PUSH	EDI
  3066 00001B1B E8 FFFFF162                     	CALL	_consolePutstr0
  3067 00001B20 8D 65 F4                        	LEA	ESP,DWORD [-12+EBP]
  3068 00001B23 5B                              	POP	EBX
  3069 00001B24 89 F0                           	MOV	EAX,ESI
  3070 00001B26 5E                              	POP	ESI
  3071 00001B27 5F                              	POP	EDI
  3072 00001B28 5D                              	POP	EBP
  3073 00001B29 C3                              	RET
  3074                                          [SECTION .data]
  3075 00000299                                 LC13:
  3076 00000299 0A 49 4E 54 20 30 43 20 3A 0A   	DB	0x0A,"INT 0C :",0x0A," Struct Exception.",0x0A,0x00
       000002A3 20 53 74 72 75 63 74 20 45 78 
       000002AD 63 65 70 74 69 6F 6E 2E 0A 00 
  3077                                          [SECTION .text]
  3078 00001B2A                                 	GLOBAL	_interruptHandler0c
  3079 00001B2A                                 _interruptHandler0c:
  3080 00001B2A 55                              	PUSH	EBP
  3081 00001B2B 89 E5                           	MOV	EBP,ESP
  3082 00001B2D 57                              	PUSH	EDI
  3083 00001B2E 56                              	PUSH	ESI
  3084 00001B2F 53                              	PUSH	EBX
  3085 00001B30 8D 5D D4                        	LEA	EBX,DWORD [-44+EBP]
  3086 00001B33 83 EC 20                        	SUB	ESP,32
  3087 00001B36 E8 FFFFE87B                     	CALL	_processNow
  3088 00001B3B 89 C6                           	MOV	ESI,EAX
  3089 00001B3D 8B B8 00000094                  	MOV	EDI,DWORD [148+EAX]
  3090 00001B43 83 C6 30                        	ADD	ESI,48
  3091 00001B46 68 [00000299]                   	PUSH	LC13
  3092 00001B4B 57                              	PUSH	EDI
  3093 00001B4C E8 FFFFF131                     	CALL	_consolePutstr0
  3094 00001B51 8B 45 08                        	MOV	EAX,DWORD [8+EBP]
  3095 00001B54 FF 70 2C                        	PUSH	DWORD [44+EAX]
  3096 00001B57 68 [0000028D]                   	PUSH	LC12
  3097 00001B5C 53                              	PUSH	EBX
  3098 00001B5D E8 [00000000]                   	CALL	_sprintf
  3099 00001B62 53                              	PUSH	EBX
  3100 00001B63 57                              	PUSH	EDI
  3101 00001B64 E8 FFFFF119                     	CALL	_consolePutstr0
  3102 00001B69 8D 65 F4                        	LEA	ESP,DWORD [-12+EBP]
  3103 00001B6C 5B                              	POP	EBX
  3104 00001B6D 89 F0                           	MOV	EAX,ESI
  3105 00001B6F 5E                              	POP	ESI
  3106 00001B70 5F                              	POP	EDI
  3107 00001B71 5D                              	POP	EBP
  3108 00001B72 C3                              	RET
  3109 00001B73                                 	GLOBAL	_setSegmdesc
  3110 00001B73                                 _setSegmdesc:
  3111 00001B73 55                              	PUSH	EBP
  3112 00001B74 89 E5                           	MOV	EBP,ESP
  3113 00001B76 53                              	PUSH	EBX
  3114 00001B77 8B 55 0C                        	MOV	EDX,DWORD [12+EBP]
  3115 00001B7A 8B 4D 10                        	MOV	ECX,DWORD [16+EBP]
  3116 00001B7D 8B 5D 08                        	MOV	EBX,DWORD [8+EBP]
  3117 00001B80 8B 45 14                        	MOV	EAX,DWORD [20+EBP]
  3118 00001B83 81 FA 000FFFFF                  	CMP	EDX,1048575
  3119 00001B89 76 08                           	JBE	L510
  3120 00001B8B C1 EA 0C                        	SHR	EDX,12
  3121 00001B8E 0D 00008000                     	OR	EAX,32768
  3122 00001B93                                 L510:
  3123 00001B93 66 89 13                        	MOV	WORD [EBX],DX
  3124 00001B96 88 43 05                        	MOV	BYTE [5+EBX],AL
  3125 00001B99 C1 EA 10                        	SHR	EDX,16
  3126 00001B9C C1 F8 08                        	SAR	EAX,8
  3127 00001B9F 83 E2 0F                        	AND	EDX,15
  3128 00001BA2 66 89 4B 02                     	MOV	WORD [2+EBX],CX
  3129 00001BA6 83 E0 F0                        	AND	EAX,-16
  3130 00001BA9 C1 F9 10                        	SAR	ECX,16
  3131 00001BAC 09 C2                           	OR	EDX,EAX
  3132 00001BAE 88 4B 04                        	MOV	BYTE [4+EBX],CL
  3133 00001BB1 88 53 06                        	MOV	BYTE [6+EBX],DL
  3134 00001BB4 C1 F9 08                        	SAR	ECX,8
  3135 00001BB7 88 4B 07                        	MOV	BYTE [7+EBX],CL
  3136 00001BBA 5B                              	POP	EBX
  3137 00001BBB 5D                              	POP	EBP
  3138 00001BBC C3                              	RET
  3139 00001BBD                                 	GLOBAL	_setGatedesc
  3140 00001BBD                                 _setGatedesc:
  3141 00001BBD 55                              	PUSH	EBP
  3142 00001BBE 89 E5                           	MOV	EBP,ESP
  3143 00001BC0 53                              	PUSH	EBX
  3144 00001BC1 8B 55 08                        	MOV	EDX,DWORD [8+EBP]
  3145 00001BC4 8B 45 10                        	MOV	EAX,DWORD [16+EBP]
  3146 00001BC7 8B 5D 14                        	MOV	EBX,DWORD [20+EBP]
  3147 00001BCA 8B 4D 0C                        	MOV	ECX,DWORD [12+EBP]
  3148 00001BCD 66 89 42 02                     	MOV	WORD [2+EDX],AX
  3149 00001BD1 88 5A 05                        	MOV	BYTE [5+EDX],BL
  3150 00001BD4 66 89 0A                        	MOV	WORD [EDX],CX
  3151 00001BD7 89 D8                           	MOV	EAX,EBX
  3152 00001BD9 C1 F8 08                        	SAR	EAX,8
  3153 00001BDC C1 F9 10                        	SAR	ECX,16
  3154 00001BDF 88 42 04                        	MOV	BYTE [4+EDX],AL
  3155 00001BE2 66 89 4A 06                     	MOV	WORD [6+EDX],CX
  3156 00001BE6 5B                              	POP	EBX
  3157 00001BE7 5D                              	POP	EBP
  3158 00001BE8 C3                              	RET
  3159 00001BE9                                 	GLOBAL	_initGdtit
  3160 00001BE9                                 _initGdtit:
  3161 00001BE9 55                              	PUSH	EBP
  3162 00001BEA 89 E5                           	MOV	EBP,ESP
  3163 00001BEC 56                              	PUSH	ESI
  3164 00001BED 53                              	PUSH	EBX
  3165 00001BEE BE 00270000                     	MOV	ESI,2555904
  3166 00001BF3 BB 00001FFF                     	MOV	EBX,8191
  3167 00001BF8                                 L517:
  3168 00001BF8 6A 00                           	PUSH	0
  3169 00001BFA 6A 00                           	PUSH	0
  3170 00001BFC 6A 00                           	PUSH	0
  3171 00001BFE 56                              	PUSH	ESI
  3172 00001BFF 83 C6 08                        	ADD	ESI,8
  3173 00001C02 E8 FFFFFF6C                     	CALL	_setSegmdesc
  3174 00001C07 83 C4 10                        	ADD	ESP,16
  3175 00001C0A 4B                              	DEC	EBX
  3176 00001C0B 79 EB                           	JNS	L517
  3177 00001C0D 68 00004092                     	PUSH	16530
  3178 00001C12 BB 000000FF                     	MOV	EBX,255
  3179 00001C17 6A 00                           	PUSH	0
  3180 00001C19 6A FF                           	PUSH	-1
  3181 00001C1B 68 00270008                     	PUSH	2555912
  3182 00001C20 E8 FFFFFF4E                     	CALL	_setSegmdesc
  3183 00001C25 68 0000409A                     	PUSH	16538
  3184 00001C2A 68 00280000                     	PUSH	2621440
  3185 00001C2F 68 0007FFFF                     	PUSH	524287
  3186 00001C34 68 00270010                     	PUSH	2555920
  3187 00001C39 E8 FFFFFF35                     	CALL	_setSegmdesc
  3188 00001C3E 83 C4 20                        	ADD	ESP,32
  3189 00001C41 68 00270000                     	PUSH	2555904
  3190 00001C46 68 0000FFFF                     	PUSH	65535
  3191 00001C4B E8 [00000000]                   	CALL	_loadGdtr
  3192 00001C50 5E                              	POP	ESI
  3193 00001C51 58                              	POP	EAX
  3194 00001C52 BE 0026F800                     	MOV	ESI,2553856
  3195 00001C57                                 L522:
  3196 00001C57 6A 00                           	PUSH	0
  3197 00001C59 6A 00                           	PUSH	0
  3198 00001C5B 6A 00                           	PUSH	0
  3199 00001C5D 56                              	PUSH	ESI
  3200 00001C5E 83 C6 08                        	ADD	ESI,8
  3201 00001C61 E8 FFFFFF57                     	CALL	_setGatedesc
  3202 00001C66 83 C4 10                        	ADD	ESP,16
  3203 00001C69 4B                              	DEC	EBX
  3204 00001C6A 79 EB                           	JNS	L522
  3205 00001C6C 68 0026F800                     	PUSH	2553856
  3206 00001C71 68 000007FF                     	PUSH	2047
  3207 00001C76 E8 [00000000]                   	CALL	_loadIdtr
  3208 00001C7B 68 0000008E                     	PUSH	142
  3209 00001C80 6A 10                           	PUSH	16
  3210 00001C82 68 [00000000]                   	PUSH	_asm_interruptHandler0c
  3211 00001C87 68 0026F860                     	PUSH	2553952
  3212 00001C8C E8 FFFFFF2C                     	CALL	_setGatedesc
  3213 00001C91 68 0000008E                     	PUSH	142
  3214 00001C96 6A 10                           	PUSH	16
  3215 00001C98 68 [00000000]                   	PUSH	_asm_interruptHandler0d
  3216 00001C9D 68 0026F868                     	PUSH	2553960
  3217 00001CA2 E8 FFFFFF16                     	CALL	_setGatedesc
  3218 00001CA7 83 C4 28                        	ADD	ESP,40
  3219 00001CAA 68 0000008E                     	PUSH	142
  3220 00001CAF 6A 10                           	PUSH	16
  3221 00001CB1 68 [00000000]                   	PUSH	_asm_interruptHandler20
  3222 00001CB6 68 0026F900                     	PUSH	2554112
  3223 00001CBB E8 FFFFFEFD                     	CALL	_setGatedesc
  3224 00001CC0 68 0000008E                     	PUSH	142
  3225 00001CC5 6A 10                           	PUSH	16
  3226 00001CC7 68 [00000000]                   	PUSH	_asm_interruptHandler21
  3227 00001CCC 68 0026F908                     	PUSH	2554120
  3228 00001CD1 E8 FFFFFEE7                     	CALL	_setGatedesc
  3229 00001CD6 83 C4 20                        	ADD	ESP,32
  3230 00001CD9 68 0000008E                     	PUSH	142
  3231 00001CDE 6A 10                           	PUSH	16
  3232 00001CE0 68 [00000000]                   	PUSH	_asm_interruptHandler27
  3233 00001CE5 68 0026F938                     	PUSH	2554168
  3234 00001CEA E8 FFFFFECE                     	CALL	_setGatedesc
  3235 00001CEF 68 0000008E                     	PUSH	142
  3236 00001CF4 6A 10                           	PUSH	16
  3237 00001CF6 68 [00000000]                   	PUSH	_asm_interruptHandler2c
  3238 00001CFB 68 0026F960                     	PUSH	2554208
  3239 00001D00 E8 FFFFFEB8                     	CALL	_setGatedesc
  3240 00001D05 83 C4 20                        	ADD	ESP,32
  3241 00001D08 68 000000EE                     	PUSH	238
  3242 00001D0D 6A 10                           	PUSH	16
  3243 00001D0F 68 [00000000]                   	PUSH	_asm_dickApi
  3244 00001D14 68 0026FA00                     	PUSH	2554368
  3245 00001D19 E8 FFFFFE9F                     	CALL	_setGatedesc
  3246 00001D1E 8D 65 F8                        	LEA	ESP,DWORD [-8+EBP]
  3247 00001D21 5B                              	POP	EBX
  3248 00001D22 5E                              	POP	ESI
  3249 00001D23 5D                              	POP	EBP
  3250 00001D24 C3                              	RET
  3251 00001D25                                 	GLOBAL	_set_palette
  3252 00001D25                                 _set_palette:
  3253 00001D25 55                              	PUSH	EBP
  3254 00001D26 89 E5                           	MOV	EBP,ESP
  3255 00001D28 57                              	PUSH	EDI
  3256 00001D29 56                              	PUSH	ESI
  3257 00001D2A 53                              	PUSH	EBX
  3258 00001D2B 51                              	PUSH	ECX
  3259 00001D2C 8B 5D 08                        	MOV	EBX,DWORD [8+EBP]
  3260 00001D2F 8B 7D 0C                        	MOV	EDI,DWORD [12+EBP]
  3261 00001D32 8B 75 10                        	MOV	ESI,DWORD [16+EBP]
  3262 00001D35 E8 [00000000]                   	CALL	_io_load_eflags
  3263 00001D3A 89 45 F0                        	MOV	DWORD [-16+EBP],EAX
  3264 00001D3D E8 [00000000]                   	CALL	_io_cli
  3265 00001D42 53                              	PUSH	EBX
  3266 00001D43 68 000003C8                     	PUSH	968
  3267 00001D48 E8 [00000000]                   	CALL	_io_out8
  3268 00001D4D 39 FB                           	CMP	EBX,EDI
  3269 00001D4F 58                              	POP	EAX
  3270 00001D50 5A                              	POP	EDX
  3271 00001D51 7D 48                           	JGE	L534
  3272 00001D53 29 DF                           	SUB	EDI,EBX
  3273 00001D55 89 FB                           	MOV	EBX,EDI
  3274 00001D57                                 L532:
  3275 00001D57 8A 06                           	MOV	AL,BYTE [ESI]
  3276 00001D59 C0 E8 02                        	SHR	AL,2
  3277 00001D5C 0F B6 C0                        	MOVZX	EAX,AL
  3278 00001D5F 50                              	PUSH	EAX
  3279 00001D60 68 000003C9                     	PUSH	969
  3280 00001D65 E8 [00000000]                   	CALL	_io_out8
  3281 00001D6A 8A 46 01                        	MOV	AL,BYTE [1+ESI]
  3282 00001D6D C0 E8 02                        	SHR	AL,2
  3283 00001D70 0F B6 C0                        	MOVZX	EAX,AL
  3284 00001D73 50                              	PUSH	EAX
  3285 00001D74 68 000003C9                     	PUSH	969
  3286 00001D79 E8 [00000000]                   	CALL	_io_out8
  3287 00001D7E 8A 46 02                        	MOV	AL,BYTE [2+ESI]
  3288 00001D81 C0 E8 02                        	SHR	AL,2
  3289 00001D84 83 C6 03                        	ADD	ESI,3
  3290 00001D87 0F B6 C0                        	MOVZX	EAX,AL
  3291 00001D8A 50                              	PUSH	EAX
  3292 00001D8B 68 000003C9                     	PUSH	969
  3293 00001D90 E8 [00000000]                   	CALL	_io_out8
  3294 00001D95 83 C4 18                        	ADD	ESP,24
  3295 00001D98 4B                              	DEC	EBX
  3296 00001D99 75 BC                           	JNE	L532
  3297 00001D9B                                 L534:
  3298 00001D9B 8B 45 F0                        	MOV	EAX,DWORD [-16+EBP]
  3299 00001D9E 89 45 08                        	MOV	DWORD [8+EBP],EAX
  3300 00001DA1 8D 65 F4                        	LEA	ESP,DWORD [-12+EBP]
  3301 00001DA4 5B                              	POP	EBX
  3302 00001DA5 5E                              	POP	ESI
  3303 00001DA6 5F                              	POP	EDI
  3304 00001DA7 5D                              	POP	EBP
  3305 00001DA8 E9 [00000000]                   	JMP	_io_store_eflags
  3306                                          [SECTION .data]
  3307 000002B7                                 _table_rgb.1:
  3308 000002B7 00                              	DB	0
  3309 000002B8 00                              	DB	0
  3310 000002B9 00                              	DB	0
  3311 000002BA FF                              	DB	-1
  3312 000002BB 00                              	DB	0
  3313 000002BC 00                              	DB	0
  3314 000002BD 00                              	DB	0
  3315 000002BE FF                              	DB	-1
  3316 000002BF 00                              	DB	0
  3317 000002C0 FF                              	DB	-1
  3318 000002C1 FF                              	DB	-1
  3319 000002C2 00                              	DB	0
  3320 000002C3 00                              	DB	0
  3321 000002C4 00                              	DB	0
  3322 000002C5 FF                              	DB	-1
  3323 000002C6 FF                              	DB	-1
  3324 000002C7 00                              	DB	0
  3325 000002C8 FF                              	DB	-1
  3326 000002C9 00                              	DB	0
  3327 000002CA FF                              	DB	-1
  3328 000002CB FF                              	DB	-1
  3329 000002CC FF                              	DB	-1
  3330 000002CD FF                              	DB	-1
  3331 000002CE FF                              	DB	-1
  3332 000002CF C6                              	DB	-58
  3333 000002D0 C6                              	DB	-58
  3334 000002D1 C6                              	DB	-58
  3335 000002D2 84                              	DB	-124
  3336 000002D3 00                              	DB	0
  3337 000002D4 00                              	DB	0
  3338 000002D5 00                              	DB	0
  3339 000002D6 84                              	DB	-124
  3340 000002D7 00                              	DB	0
  3341 000002D8 84                              	DB	-124
  3342 000002D9 84                              	DB	-124
  3343 000002DA 00                              	DB	0
  3344 000002DB 00                              	DB	0
  3345 000002DC 00                              	DB	0
  3346 000002DD 84                              	DB	-124
  3347 000002DE 84                              	DB	-124
  3348 000002DF 00                              	DB	0
  3349 000002E0 84                              	DB	-124
  3350 000002E1 00                              	DB	0
  3351 000002E2 84                              	DB	-124
  3352 000002E3 84                              	DB	-124
  3353 000002E4 84                              	DB	-124
  3354 000002E5 84                              	DB	-124
  3355 000002E6 84                              	DB	-124
  3356                                          [SECTION .text]
  3357 00001DAD                                 	GLOBAL	_init_palette
  3358 00001DAD                                 _init_palette:
  3359 00001DAD 55                              	PUSH	EBP
  3360 00001DAE 89 E5                           	MOV	EBP,ESP
  3361 00001DB0 57                              	PUSH	EDI
  3362 00001DB1 56                              	PUSH	ESI
  3363 00001DB2 53                              	PUSH	EBX
  3364 00001DB3 81 EC 000002A4                  	SUB	ESP,676
  3365 00001DB9 68 [000002B7]                   	PUSH	_table_rgb.1
  3366 00001DBE 6A 0F                           	PUSH	15
  3367 00001DC0 6A 00                           	PUSH	0
  3368 00001DC2 E8 FFFFFF5E                     	CALL	_set_palette
  3369 00001DC7 83 C4 0C                        	ADD	ESP,12
  3370 00001DCA C7 85 FFFFFD60 00000000         	MOV	DWORD [-672+EBP],0
  3371 00001DD4 C7 85 FFFFFD5C 00000000         	MOV	DWORD [-676+EBP],0
  3372 00001DDE C7 85 FFFFFD58 00000000         	MOV	DWORD [-680+EBP],0
  3373 00001DE8                                 L550:
  3374 00001DE8 31 FF                           	XOR	EDI,EDI
  3375 00001DEA 31 F6                           	XOR	ESI,ESI
  3376 00001DEC 31 DB                           	XOR	EBX,EBX
  3377 00001DEE                                 L549:
  3378 00001DEE 31 D2                           	XOR	EDX,EDX
  3379 00001DF0 C7 85 FFFFFD50 00000000         	MOV	DWORD [-688+EBP],0
  3380 00001DFA                                 L548:
  3381 00001DFA 8B 85 FFFFFD58                  	MOV	EAX,DWORD [-680+EBP]
  3382 00001E00 8A 8D FFFFFD50                  	MOV	CL,BYTE [-688+EBP]
  3383 00001E06 01 D8                           	ADD	EAX,EBX
  3384 00001E08 01 D0                           	ADD	EAX,EDX
  3385 00001E0A 42                              	INC	EDX
  3386 00001E0B 6B C0 03                        	IMUL	EAX,EAX,3
  3387 00001E0E 88 8C 05 FFFFFD64               	MOV	BYTE [-668+EBP+EAX*1],CL
  3388 00001E15 89 F1                           	MOV	ECX,ESI
  3389 00001E17 88 8C 05 FFFFFD66               	MOV	BYTE [-666+EBP+EAX*1],CL
  3390 00001E1E 8A 8D FFFFFD5C                  	MOV	CL,BYTE [-676+EBP]
  3391 00001E24 88 8C 05 FFFFFD67               	MOV	BYTE [-665+EBP+EAX*1],CL
  3392 00001E2B 83 85 FFFFFD50 33               	ADD	DWORD [-688+EBP],51
  3393 00001E32 83 FA 05                        	CMP	EDX,5
  3394 00001E35 7E C3                           	JLE	L548
  3395 00001E37 47                              	INC	EDI
  3396 00001E38 83 C6 33                        	ADD	ESI,51
  3397 00001E3B 83 C3 06                        	ADD	EBX,6
  3398 00001E3E 83 FF 05                        	CMP	EDI,5
  3399 00001E41 7E AB                           	JLE	L549
  3400 00001E43 FF 85 FFFFFD60                  	INC	DWORD [-672+EBP]
  3401 00001E49 83 85 FFFFFD5C 33               	ADD	DWORD [-676+EBP],51
  3402 00001E50 83 85 FFFFFD58 24               	ADD	DWORD [-680+EBP],36
  3403 00001E57 83 BD FFFFFD60 05               	CMP	DWORD [-672+EBP],5
  3404 00001E5E 7E 88                           	JLE	L550
  3405 00001E60 8D 85 FFFFFD64                  	LEA	EAX,DWORD [-668+EBP]
  3406 00001E66 50                              	PUSH	EAX
  3407 00001E67 68 000000E7                     	PUSH	231
  3408 00001E6C 6A 10                           	PUSH	16
  3409 00001E6E E8 FFFFFEB2                     	CALL	_set_palette
  3410 00001E73 8D 65 F4                        	LEA	ESP,DWORD [-12+EBP]
  3411 00001E76 5B                              	POP	EBX
  3412 00001E77 5E                              	POP	ESI
  3413 00001E78 5F                              	POP	EDI
  3414 00001E79 5D                              	POP	EBP
  3415 00001E7A C3                              	RET
  3416 00001E7B                                 	GLOBAL	_boxFill8
  3417 00001E7B                                 _boxFill8:
  3418 00001E7B 55                              	PUSH	EBP
  3419 00001E7C 89 E5                           	MOV	EBP,ESP
  3420 00001E7E 57                              	PUSH	EDI
  3421 00001E7F 56                              	PUSH	ESI
  3422 00001E80 53                              	PUSH	EBX
  3423 00001E81 57                              	PUSH	EDI
  3424 00001E82 57                              	PUSH	EDI
  3425 00001E83 8A 45 10                        	MOV	AL,BYTE [16+EBP]
  3426 00001E86 8B 4D 18                        	MOV	ECX,DWORD [24+EBP]
  3427 00001E89 8B 7D 1C                        	MOV	EDI,DWORD [28+EBP]
  3428 00001E8C 88 45 F3                        	MOV	BYTE [-13+EBP],AL
  3429 00001E8F 3B 4D 20                        	CMP	ECX,DWORD [32+EBP]
  3430 00001E92 7F 31                           	JG	L569
  3431 00001E94 8B 5D 0C                        	MOV	EBX,DWORD [12+EBP]
  3432 00001E97 0F AF D9                        	IMUL	EBX,ECX
  3433 00001E9A                                 L567:
  3434 00001E9A 8B 55 14                        	MOV	EDX,DWORD [20+EBP]
  3435 00001E9D 39 FA                           	CMP	EDX,EDI
  3436 00001E9F 7F 1B                           	JG	L571
  3437 00001EA1 8B 75 08                        	MOV	ESI,DWORD [8+EBP]
  3438 00001EA4 01 DE                           	ADD	ESI,EBX
  3439 00001EA6 01 D6                           	ADD	ESI,EDX
  3440 00001EA8 89 75 EC                        	MOV	DWORD [-20+EBP],ESI
  3441 00001EAB                                 L566:
  3442 00001EAB 8B 75 EC                        	MOV	ESI,DWORD [-20+EBP]
  3443 00001EAE 8A 45 F3                        	MOV	AL,BYTE [-13+EBP]
  3444 00001EB1 42                              	INC	EDX
  3445 00001EB2 88 06                           	MOV	BYTE [ESI],AL
  3446 00001EB4 46                              	INC	ESI
  3447 00001EB5 89 75 EC                        	MOV	DWORD [-20+EBP],ESI
  3448 00001EB8 39 FA                           	CMP	EDX,EDI
  3449 00001EBA 7E EF                           	JLE	L566
  3450 00001EBC                                 L571:
  3451 00001EBC 41                              	INC	ECX
  3452 00001EBD 03 5D 0C                        	ADD	EBX,DWORD [12+EBP]
  3453 00001EC0 3B 4D 20                        	CMP	ECX,DWORD [32+EBP]
  3454 00001EC3 7E D5                           	JLE	L567
  3455 00001EC5                                 L569:
  3456 00001EC5 5B                              	POP	EBX
  3457 00001EC6 5E                              	POP	ESI
  3458 00001EC7 5B                              	POP	EBX
  3459 00001EC8 5E                              	POP	ESI
  3460 00001EC9 5F                              	POP	EDI
  3461 00001ECA 5D                              	POP	EBP
  3462 00001ECB C3                              	RET
  3463 00001ECC                                 	GLOBAL	_init_GUI
  3464 00001ECC                                 _init_GUI:
  3465 00001ECC 55                              	PUSH	EBP
  3466 00001ECD 89 E5                           	MOV	EBP,ESP
  3467 00001ECF 57                              	PUSH	EDI
  3468 00001ED0 56                              	PUSH	ESI
  3469 00001ED1 53                              	PUSH	EBX
  3470 00001ED2 83 EC 0C                        	SUB	ESP,12
  3471 00001ED5 8B 45 10                        	MOV	EAX,DWORD [16+EBP]
  3472 00001ED8 8B 7D 0C                        	MOV	EDI,DWORD [12+EBP]
  3473 00001EDB 83 E8 1D                        	SUB	EAX,29
  3474 00001EDE 4F                              	DEC	EDI
  3475 00001EDF 50                              	PUSH	EAX
  3476 00001EE0 57                              	PUSH	EDI
  3477 00001EE1 6A 00                           	PUSH	0
  3478 00001EE3 6A 00                           	PUSH	0
  3479 00001EE5 6A 0E                           	PUSH	14
  3480 00001EE7 FF 75 0C                        	PUSH	DWORD [12+EBP]
  3481 00001EEA FF 75 08                        	PUSH	DWORD [8+EBP]
  3482 00001EED E8 FFFFFF89                     	CALL	_boxFill8
  3483 00001EF2 8B 45 10                        	MOV	EAX,DWORD [16+EBP]
  3484 00001EF5 83 E8 1C                        	SUB	EAX,28
  3485 00001EF8 50                              	PUSH	EAX
  3486 00001EF9 57                              	PUSH	EDI
  3487 00001EFA 50                              	PUSH	EAX
  3488 00001EFB 6A 00                           	PUSH	0
  3489 00001EFD 6A 08                           	PUSH	8
  3490 00001EFF FF 75 0C                        	PUSH	DWORD [12+EBP]
  3491 00001F02 FF 75 08                        	PUSH	DWORD [8+EBP]
  3492 00001F05 E8 FFFFFF71                     	CALL	_boxFill8
  3493 00001F0A 8B 45 10                        	MOV	EAX,DWORD [16+EBP]
  3494 00001F0D 83 C4 38                        	ADD	ESP,56
  3495 00001F10 83 E8 1B                        	SUB	EAX,27
  3496 00001F13 50                              	PUSH	EAX
  3497 00001F14 57                              	PUSH	EDI
  3498 00001F15 50                              	PUSH	EAX
  3499 00001F16 6A 00                           	PUSH	0
  3500 00001F18 6A 07                           	PUSH	7
  3501 00001F1A FF 75 0C                        	PUSH	DWORD [12+EBP]
  3502 00001F1D FF 75 08                        	PUSH	DWORD [8+EBP]
  3503 00001F20 E8 FFFFFF56                     	CALL	_boxFill8
  3504 00001F25 8B 45 10                        	MOV	EAX,DWORD [16+EBP]
  3505 00001F28 48                              	DEC	EAX
  3506 00001F29 50                              	PUSH	EAX
  3507 00001F2A 8B 45 10                        	MOV	EAX,DWORD [16+EBP]
  3508 00001F2D 57                              	PUSH	EDI
  3509 00001F2E 83 E8 1A                        	SUB	EAX,26
  3510 00001F31 50                              	PUSH	EAX
  3511 00001F32 6A 00                           	PUSH	0
  3512 00001F34 6A 08                           	PUSH	8
  3513 00001F36 FF 75 0C                        	PUSH	DWORD [12+EBP]
  3514 00001F39 FF 75 08                        	PUSH	DWORD [8+EBP]
  3515 00001F3C E8 FFFFFF3A                     	CALL	_boxFill8
  3516 00001F41 8B 75 10                        	MOV	ESI,DWORD [16+EBP]
  3517 00001F44 83 C4 38                        	ADD	ESP,56
  3518 00001F47 83 EE 18                        	SUB	ESI,24
  3519 00001F4A 56                              	PUSH	ESI
  3520 00001F4B 6A 3B                           	PUSH	59
  3521 00001F4D 56                              	PUSH	ESI
  3522 00001F4E 6A 03                           	PUSH	3
  3523 00001F50 6A 07                           	PUSH	7
  3524 00001F52 FF 75 0C                        	PUSH	DWORD [12+EBP]
  3525 00001F55 FF 75 08                        	PUSH	DWORD [8+EBP]
  3526 00001F58 E8 FFFFFF1E                     	CALL	_boxFill8
  3527 00001F5D 8B 45 10                        	MOV	EAX,DWORD [16+EBP]
  3528 00001F60 83 E8 04                        	SUB	EAX,4
  3529 00001F63 50                              	PUSH	EAX
  3530 00001F64 89 45 F0                        	MOV	DWORD [-16+EBP],EAX
  3531 00001F67 6A 02                           	PUSH	2
  3532 00001F69 56                              	PUSH	ESI
  3533 00001F6A 6A 02                           	PUSH	2
  3534 00001F6C 6A 07                           	PUSH	7
  3535 00001F6E FF 75 0C                        	PUSH	DWORD [12+EBP]
  3536 00001F71 FF 75 08                        	PUSH	DWORD [8+EBP]
  3537 00001F74 E8 FFFFFF02                     	CALL	_boxFill8
  3538 00001F79 83 C4 38                        	ADD	ESP,56
  3539 00001F7C FF 75 F0                        	PUSH	DWORD [-16+EBP]
  3540 00001F7F 6A 3B                           	PUSH	59
  3541 00001F81 FF 75 F0                        	PUSH	DWORD [-16+EBP]
  3542 00001F84 6A 03                           	PUSH	3
  3543 00001F86 6A 0F                           	PUSH	15
  3544 00001F88 FF 75 0C                        	PUSH	DWORD [12+EBP]
  3545 00001F8B FF 75 08                        	PUSH	DWORD [8+EBP]
  3546 00001F8E E8 FFFFFEE8                     	CALL	_boxFill8
  3547 00001F93 8B 45 10                        	MOV	EAX,DWORD [16+EBP]
  3548 00001F96 83 E8 05                        	SUB	EAX,5
  3549 00001F99 50                              	PUSH	EAX
  3550 00001F9A 8B 45 10                        	MOV	EAX,DWORD [16+EBP]
  3551 00001F9D 6A 3B                           	PUSH	59
  3552 00001F9F 83 E8 17                        	SUB	EAX,23
  3553 00001FA2 50                              	PUSH	EAX
  3554 00001FA3 89 45 EC                        	MOV	DWORD [-20+EBP],EAX
  3555 00001FA6 6A 3B                           	PUSH	59
  3556 00001FA8 6A 0F                           	PUSH	15
  3557 00001FAA FF 75 0C                        	PUSH	DWORD [12+EBP]
  3558 00001FAD FF 75 08                        	PUSH	DWORD [8+EBP]
  3559 00001FB0 E8 FFFFFEC6                     	CALL	_boxFill8
  3560 00001FB5 8B 45 10                        	MOV	EAX,DWORD [16+EBP]
  3561 00001FB8 83 C4 38                        	ADD	ESP,56
  3562 00001FBB 83 E8 03                        	SUB	EAX,3
  3563 00001FBE 89 45 E8                        	MOV	DWORD [-24+EBP],EAX
  3564 00001FC1 50                              	PUSH	EAX
  3565 00001FC2 6A 3B                           	PUSH	59
  3566 00001FC4 50                              	PUSH	EAX
  3567 00001FC5 6A 02                           	PUSH	2
  3568 00001FC7 6A 00                           	PUSH	0
  3569 00001FC9 FF 75 0C                        	PUSH	DWORD [12+EBP]
  3570 00001FCC FF 75 08                        	PUSH	DWORD [8+EBP]
  3571 00001FCF E8 FFFFFEA7                     	CALL	_boxFill8
  3572 00001FD4 FF 75 E8                        	PUSH	DWORD [-24+EBP]
  3573 00001FD7 6A 3C                           	PUSH	60
  3574 00001FD9 56                              	PUSH	ESI
  3575 00001FDA 6A 3C                           	PUSH	60
  3576 00001FDC 6A 00                           	PUSH	0
  3577 00001FDE FF 75 0C                        	PUSH	DWORD [12+EBP]
  3578 00001FE1 FF 75 08                        	PUSH	DWORD [8+EBP]
  3579 00001FE4 E8 FFFFFE92                     	CALL	_boxFill8
  3580 00001FE9 8B 7D 0C                        	MOV	EDI,DWORD [12+EBP]
  3581 00001FEC 83 C4 38                        	ADD	ESP,56
  3582 00001FEF 8B 5D 0C                        	MOV	EBX,DWORD [12+EBP]
  3583 00001FF2 83 EB 04                        	SUB	EBX,4
  3584 00001FF5 83 EF 2F                        	SUB	EDI,47
  3585 00001FF8 56                              	PUSH	ESI
  3586 00001FF9 53                              	PUSH	EBX
  3587 00001FFA 56                              	PUSH	ESI
  3588 00001FFB 57                              	PUSH	EDI
  3589 00001FFC 6A 0F                           	PUSH	15
  3590 00001FFE FF 75 0C                        	PUSH	DWORD [12+EBP]
  3591 00002001 FF 75 08                        	PUSH	DWORD [8+EBP]
  3592 00002004 E8 FFFFFE72                     	CALL	_boxFill8
  3593 00002009 FF 75 F0                        	PUSH	DWORD [-16+EBP]
  3594 0000200C 57                              	PUSH	EDI
  3595 0000200D FF 75 EC                        	PUSH	DWORD [-20+EBP]
  3596 00002010 57                              	PUSH	EDI
  3597 00002011 6A 0F                           	PUSH	15
  3598 00002013 FF 75 0C                        	PUSH	DWORD [12+EBP]
  3599 00002016 FF 75 08                        	PUSH	DWORD [8+EBP]
  3600 00002019 E8 FFFFFE5D                     	CALL	_boxFill8
  3601 0000201E 83 C4 38                        	ADD	ESP,56
  3602 00002021 FF 75 E8                        	PUSH	DWORD [-24+EBP]
  3603 00002024 53                              	PUSH	EBX
  3604 00002025 FF 75 E8                        	PUSH	DWORD [-24+EBP]
  3605 00002028 57                              	PUSH	EDI
  3606 00002029 6A 07                           	PUSH	7
  3607 0000202B FF 75 0C                        	PUSH	DWORD [12+EBP]
  3608 0000202E FF 75 08                        	PUSH	DWORD [8+EBP]
  3609 00002031 E8 FFFFFE45                     	CALL	_boxFill8
  3610 00002036 8B 45 0C                        	MOV	EAX,DWORD [12+EBP]
  3611 00002039 FF 75 E8                        	PUSH	DWORD [-24+EBP]
  3612 0000203C 83 E8 03                        	SUB	EAX,3
  3613 0000203F 50                              	PUSH	EAX
  3614 00002040 56                              	PUSH	ESI
  3615 00002041 50                              	PUSH	EAX
  3616 00002042 6A 07                           	PUSH	7
  3617 00002044 FF 75 0C                        	PUSH	DWORD [12+EBP]
  3618 00002047 FF 75 08                        	PUSH	DWORD [8+EBP]
  3619 0000204A E8 FFFFFE2C                     	CALL	_boxFill8
  3620 0000204F 8D 65 F4                        	LEA	ESP,DWORD [-12+EBP]
  3621 00002052 5B                              	POP	EBX
  3622 00002053 5E                              	POP	ESI
  3623 00002054 5F                              	POP	EDI
  3624 00002055 5D                              	POP	EBP
  3625 00002056 C3                              	RET
  3626 00002057                                 	GLOBAL	_putFont8
  3627 00002057                                 _putFont8:
  3628 00002057 55                              	PUSH	EBP
  3629 00002058 89 E5                           	MOV	EBP,ESP
  3630 0000205A 57                              	PUSH	EDI
  3631 0000205B 56                              	PUSH	ESI
  3632 0000205C 31 F6                           	XOR	ESI,ESI
  3633 0000205E 53                              	PUSH	EBX
  3634 0000205F 8B 7D 1C                        	MOV	EDI,DWORD [28+EBP]
  3635 00002062 8A 5D 18                        	MOV	BL,BYTE [24+EBP]
  3636 00002065                                 L586:
  3637 00002065 8B 45 14                        	MOV	EAX,DWORD [20+EBP]
  3638 00002068 8B 55 10                        	MOV	EDX,DWORD [16+EBP]
  3639 0000206B 01 F0                           	ADD	EAX,ESI
  3640 0000206D 0F AF 45 0C                     	IMUL	EAX,DWORD [12+EBP]
  3641 00002071 03 45 08                        	ADD	EAX,DWORD [8+EBP]
  3642 00002074 8D 0C 02                        	LEA	ECX,DWORD [EDX+EAX*1]
  3643 00002077 8A 14 3E                        	MOV	DL,BYTE [ESI+EDI*1]
  3644 0000207A 84 D2                           	TEST	DL,DL
  3645 0000207C 79 02                           	JNS	L578
  3646 0000207E 88 19                           	MOV	BYTE [ECX],BL
  3647 00002080                                 L578:
  3648 00002080 88 D0                           	MOV	AL,DL
  3649 00002082 83 E0 40                        	AND	EAX,64
  3650 00002085 84 C0                           	TEST	AL,AL
  3651 00002087 74 03                           	JE	L579
  3652 00002089 88 59 01                        	MOV	BYTE [1+ECX],BL
  3653 0000208C                                 L579:
  3654 0000208C 88 D0                           	MOV	AL,DL
  3655 0000208E 83 E0 20                        	AND	EAX,32
  3656 00002091 84 C0                           	TEST	AL,AL
  3657 00002093 74 03                           	JE	L580
  3658 00002095 88 59 02                        	MOV	BYTE [2+ECX],BL
  3659 00002098                                 L580:
  3660 00002098 88 D0                           	MOV	AL,DL
  3661 0000209A 83 E0 10                        	AND	EAX,16
  3662 0000209D 84 C0                           	TEST	AL,AL
  3663 0000209F 74 03                           	JE	L581
  3664 000020A1 88 59 03                        	MOV	BYTE [3+ECX],BL
  3665 000020A4                                 L581:
  3666 000020A4 88 D0                           	MOV	AL,DL
  3667 000020A6 83 E0 08                        	AND	EAX,8
  3668 000020A9 84 C0                           	TEST	AL,AL
  3669 000020AB 74 03                           	JE	L582
  3670 000020AD 88 59 04                        	MOV	BYTE [4+ECX],BL
  3671 000020B0                                 L582:
  3672 000020B0 88 D0                           	MOV	AL,DL
  3673 000020B2 83 E0 04                        	AND	EAX,4
  3674 000020B5 84 C0                           	TEST	AL,AL
  3675 000020B7 74 03                           	JE	L583
  3676 000020B9 88 59 05                        	MOV	BYTE [5+ECX],BL
  3677 000020BC                                 L583:
  3678 000020BC 88 D0                           	MOV	AL,DL
  3679 000020BE 83 E0 02                        	AND	EAX,2
  3680 000020C1 84 C0                           	TEST	AL,AL
  3681 000020C3 74 03                           	JE	L584
  3682 000020C5 88 59 06                        	MOV	BYTE [6+ECX],BL
  3683 000020C8                                 L584:
  3684 000020C8 83 E2 01                        	AND	EDX,1
  3685 000020CB 84 D2                           	TEST	DL,DL
  3686 000020CD 74 03                           	JE	L576
  3687 000020CF 88 59 07                        	MOV	BYTE [7+ECX],BL
  3688 000020D2                                 L576:
  3689 000020D2 46                              	INC	ESI
  3690 000020D3 83 FE 0F                        	CMP	ESI,15
  3691 000020D6 7E 8D                           	JLE	L586
  3692 000020D8 5B                              	POP	EBX
  3693 000020D9 5E                              	POP	ESI
  3694 000020DA 5F                              	POP	EDI
  3695 000020DB 5D                              	POP	EBP
  3696 000020DC C3                              	RET
  3697 000020DD                                 	GLOBAL	_putFont8_asc
  3698 000020DD                                 _putFont8_asc:
  3699 000020DD 55                              	PUSH	EBP
  3700 000020DE 89 E5                           	MOV	EBP,ESP
  3701 000020E0 57                              	PUSH	EDI
  3702 000020E1 56                              	PUSH	ESI
  3703 000020E2 53                              	PUSH	EBX
  3704 000020E3 50                              	PUSH	EAX
  3705 000020E4 8B 5D 1C                        	MOV	EBX,DWORD [28+EBP]
  3706 000020E7 8A 45 18                        	MOV	AL,BYTE [24+EBP]
  3707 000020EA 88 45 F3                        	MOV	BYTE [-13+EBP],AL
  3708 000020ED 8B 75 10                        	MOV	ESI,DWORD [16+EBP]
  3709 000020F0 8B 7D 14                        	MOV	EDI,DWORD [20+EBP]
  3710 000020F3 80 3B 00                        	CMP	BYTE [EBX],0
  3711 000020F6 75 08                           	JNE	L594
  3712 000020F8                                 L596:
  3713 000020F8 8D 65 F4                        	LEA	ESP,DWORD [-12+EBP]
  3714 000020FB 5B                              	POP	EBX
  3715 000020FC 5E                              	POP	ESI
  3716 000020FD 5F                              	POP	EDI
  3717 000020FE 5D                              	POP	EBP
  3718 000020FF C3                              	RET
  3719 00002100                                 L594:
  3720 00002100 0F B6 03                        	MOVZX	EAX,BYTE [EBX]
  3721 00002103 C1 E0 04                        	SAL	EAX,4
  3722 00002106 43                              	INC	EBX
  3723 00002107 05 [00000000]                   	ADD	EAX,_font
  3724 0000210C 50                              	PUSH	EAX
  3725 0000210D 0F BE 45 F3                     	MOVSX	EAX,BYTE [-13+EBP]
  3726 00002111 50                              	PUSH	EAX
  3727 00002112 57                              	PUSH	EDI
  3728 00002113 56                              	PUSH	ESI
  3729 00002114 83 C6 08                        	ADD	ESI,8
  3730 00002117 FF 75 0C                        	PUSH	DWORD [12+EBP]
  3731 0000211A FF 75 08                        	PUSH	DWORD [8+EBP]
  3732 0000211D E8 FFFFFF35                     	CALL	_putFont8
  3733 00002122 83 C4 18                        	ADD	ESP,24
  3734 00002125 80 3B 00                        	CMP	BYTE [EBX],0
  3735 00002128 75 D6                           	JNE	L594
  3736 0000212A EB CC                           	JMP	L596
  3737 0000212C                                 	GLOBAL	_putFont8AscSheet
  3738 0000212C                                 _putFont8AscSheet:
  3739 0000212C 55                              	PUSH	EBP
  3740 0000212D 89 E5                           	MOV	EBP,ESP
  3741 0000212F 57                              	PUSH	EDI
  3742 00002130 56                              	PUSH	ESI
  3743 00002131 53                              	PUSH	EBX
  3744 00002132 83 EC 0C                        	SUB	ESP,12
  3745 00002135 8B 45 08                        	MOV	EAX,DWORD [8+EBP]
  3746 00002138 8B 7D 10                        	MOV	EDI,DWORD [16+EBP]
  3747 0000213B 89 45 F0                        	MOV	DWORD [-16+EBP],EAX
  3748 0000213E 8B 5D 14                        	MOV	EBX,DWORD [20+EBP]
  3749 00002141 8B 45 0C                        	MOV	EAX,DWORD [12+EBP]
  3750 00002144 89 45 EC                        	MOV	DWORD [-20+EBP],EAX
  3751 00002147 8B 45 1C                        	MOV	EAX,DWORD [28+EBP]
  3752 0000214A 89 45 E8                        	MOV	DWORD [-24+EBP],EAX
  3753 0000214D 8D 47 0F                        	LEA	EAX,DWORD [15+EDI]
  3754 00002150 50                              	PUSH	EAX
  3755 00002151 8B 45 EC                        	MOV	EAX,DWORD [-20+EBP]
  3756 00002154 8B 75 20                        	MOV	ESI,DWORD [32+EBP]
  3757 00002157 0F BE DB                        	MOVSX	EBX,BL
  3758 0000215A 8D 34 F0                        	LEA	ESI,DWORD [EAX+ESI*8]
  3759 0000215D 8D 46 FF                        	LEA	EAX,DWORD [-1+ESI]
  3760 00002160 50                              	PUSH	EAX
  3761 00002161 57                              	PUSH	EDI
  3762 00002162 FF 75 EC                        	PUSH	DWORD [-20+EBP]
  3763 00002165 0F B6 45 18                     	MOVZX	EAX,BYTE [24+EBP]
  3764 00002169 50                              	PUSH	EAX
  3765 0000216A 8B 45 F0                        	MOV	EAX,DWORD [-16+EBP]
  3766 0000216D FF 70 04                        	PUSH	DWORD [4+EAX]
  3767 00002170 FF 30                           	PUSH	DWORD [EAX]
  3768 00002172 E8 FFFFFD04                     	CALL	_boxFill8
  3769 00002177 FF 75 E8                        	PUSH	DWORD [-24+EBP]
  3770 0000217A 53                              	PUSH	EBX
  3771 0000217B 57                              	PUSH	EDI
  3772 0000217C FF 75 EC                        	PUSH	DWORD [-20+EBP]
  3773 0000217F 8B 45 F0                        	MOV	EAX,DWORD [-16+EBP]
  3774 00002182 FF 70 04                        	PUSH	DWORD [4+EAX]
  3775 00002185 FF 30                           	PUSH	DWORD [EAX]
  3776 00002187 E8 FFFFFF51                     	CALL	_putFont8_asc
  3777 0000218C 89 7D 10                        	MOV	DWORD [16+EBP],EDI
  3778 0000218F 8D 47 10                        	LEA	EAX,DWORD [16+EDI]
  3779 00002192 89 75 14                        	MOV	DWORD [20+EBP],ESI
  3780 00002195 89 45 18                        	MOV	DWORD [24+EBP],EAX
  3781 00002198 83 C4 34                        	ADD	ESP,52
  3782 0000219B 8B 45 EC                        	MOV	EAX,DWORD [-20+EBP]
  3783 0000219E 89 45 0C                        	MOV	DWORD [12+EBP],EAX
  3784 000021A1 8B 45 F0                        	MOV	EAX,DWORD [-16+EBP]
  3785 000021A4 89 45 08                        	MOV	DWORD [8+EBP],EAX
  3786 000021A7 8D 65 F4                        	LEA	ESP,DWORD [-12+EBP]
  3787 000021AA 5B                              	POP	EBX
  3788 000021AB 5E                              	POP	ESI
  3789 000021AC 5F                              	POP	EDI
  3790 000021AD 5D                              	POP	EBP
  3791 000021AE E9 00000662                     	JMP	_sheetRefresh
  3792                                          [SECTION .data]
  3793 000002E7                                 _cursor.2:
  3794 000002E7 2A 2E 2E 2E 2E 2E 2E 2E 2E 2E   	DB	"*..............."
       000002F1 2E 2E 2E 2E 2E 2E 
  3795 000002F7 2A 2A 2E 2E 2E 2E 2E 2E 2E 2E   	DB	"**.............."
       00000301 2E 2E 2E 2E 2E 2E 
  3796 00000307 2A 4F 2A 2E 2E 2E 2E 2E 2E 2E   	DB	"*O*............."
       00000311 2E 2E 2E 2E 2E 2E 
  3797 00000317 2A 4F 4F 2A 2E 2E 2E 2E 2E 2E   	DB	"*OO*............"
       00000321 2E 2E 2E 2E 2E 2E 
  3798 00000327 2A 4F 4F 4F 2A 2E 2E 2E 2E 2E   	DB	"*OOO*..........."
       00000331 2E 2E 2E 2E 2E 2E 
  3799 00000337 2A 4F 4F 4F 4F 2A 2E 2E 2E 2E   	DB	"*OOOO*.........."
       00000341 2E 2E 2E 2E 2E 2E 
  3800 00000347 2A 4F 4F 4F 4F 4F 2A 2E 2E 2E   	DB	"*OOOOO*........."
       00000351 2E 2E 2E 2E 2E 2E 
  3801 00000357 2A 4F 4F 4F 4F 4F 4F 2A 2E 2E   	DB	"*OOOOOO*........"
       00000361 2E 2E 2E 2E 2E 2E 
  3802 00000367 2A 4F 4F 4F 4F 4F 4F 4F 2A 2E   	DB	"*OOOOOOO*......."
       00000371 2E 2E 2E 2E 2E 2E 
  3803 00000377 2A 4F 4F 4F 4F 2A 2A 2A 2A 2A   	DB	"*OOOO*****......"
       00000381 2E 2E 2E 2E 2E 2E 
  3804 00000387 2A 4F 4F 2A 4F 2A 2E 2E 2E 2E   	DB	"*OO*O*.........."
       00000391 2E 2E 2E 2E 2E 2E 
  3805 00000397 2A 4F 2A 2E 2A 4F 2A 2E 2E 2E   	DB	"*O*.*O*........."
       000003A1 2E 2E 2E 2E 2E 2E 
  3806 000003A7 2A 2A 2E 2E 2A 4F 2A 2E 2E 2E   	DB	"**..*O*........."
       000003B1 2E 2E 2E 2E 2E 2E 
  3807 000003B7 2A 2E 2E 2E 2E 2A 4F 2A 2E 2E   	DB	"*....*O*........"
       000003C1 2E 2E 2E 2E 2E 2E 
  3808 000003C7 2E 2E 2E 2E 2E 2A 4F 2A 2E 2E   	DB	".....*O*........"
       000003D1 2E 2E 2E 2E 2E 2E 
  3809 000003D7 2E 2E 2E 2E 2E 2E 2A 2E 2E 2E   	DB	"......*........."
       000003E1 2E 2E 2E 2E 2E 2E 
  3810                                          [SECTION .text]
  3811 000021B3                                 	GLOBAL	_initMouseCursor8
  3812 000021B3                                 _initMouseCursor8:
  3813 000021B3 55                              	PUSH	EBP
  3814 000021B4 89 E5                           	MOV	EBP,ESP
  3815 000021B6 57                              	PUSH	EDI
  3816 000021B7 56                              	PUSH	ESI
  3817 000021B8 31 FF                           	XOR	EDI,EDI
  3818 000021BA 53                              	PUSH	EBX
  3819 000021BB 31 DB                           	XOR	EBX,EBX
  3820 000021BD 50                              	PUSH	EAX
  3821 000021BE 8A 45 0C                        	MOV	AL,BYTE [12+EBP]
  3822 000021C1 8B 75 08                        	MOV	ESI,DWORD [8+EBP]
  3823 000021C4 88 45 F3                        	MOV	BYTE [-13+EBP],AL
  3824 000021C7                                 L611:
  3825 000021C7 31 D2                           	XOR	EDX,EDX
  3826 000021C9                                 L610:
  3827 000021C9 8D 04 3A                        	LEA	EAX,DWORD [EDX+EDI*1]
  3828 000021CC 80 B8 [000002E7] 2A             	CMP	BYTE [_cursor.2+EAX],42
  3829 000021D3 74 35                           	JE	L616
  3830 000021D5                                 L607:
  3831 000021D5 80 B8 [000002E7] 4F             	CMP	BYTE [_cursor.2+EAX],79
  3832 000021DC 74 26                           	JE	L617
  3833 000021DE                                 L608:
  3834 000021DE 80 B8 [000002E7] 2E             	CMP	BYTE [_cursor.2+EAX],46
  3835 000021E5 74 15                           	JE	L618
  3836 000021E7                                 L605:
  3837 000021E7 42                              	INC	EDX
  3838 000021E8 83 FA 0F                        	CMP	EDX,15
  3839 000021EB 7E DC                           	JLE	L610
  3840 000021ED 43                              	INC	EBX
  3841 000021EE 83 C7 10                        	ADD	EDI,16
  3842 000021F1 83 FB 0F                        	CMP	EBX,15
  3843 000021F4 7E D1                           	JLE	L611
  3844 000021F6 58                              	POP	EAX
  3845 000021F7 5B                              	POP	EBX
  3846 000021F8 5E                              	POP	ESI
  3847 000021F9 5F                              	POP	EDI
  3848 000021FA 5D                              	POP	EBP
  3849 000021FB C3                              	RET
  3850 000021FC                                 L618:
  3851 000021FC 8A 4D F3                        	MOV	CL,BYTE [-13+EBP]
  3852 000021FF 88 0C 30                        	MOV	BYTE [EAX+ESI*1],CL
  3853 00002202 EB E3                           	JMP	L605
  3854 00002204                                 L617:
  3855 00002204 C6 04 30 07                     	MOV	BYTE [EAX+ESI*1],7
  3856 00002208 EB D4                           	JMP	L608
  3857 0000220A                                 L616:
  3858 0000220A C6 04 30 00                     	MOV	BYTE [EAX+ESI*1],0
  3859 0000220E EB C5                           	JMP	L607
  3860 00002210                                 	GLOBAL	_putblock8_8
  3861 00002210                                 _putblock8_8:
  3862 00002210 55                              	PUSH	EBP
  3863 00002211 89 E5                           	MOV	EBP,ESP
  3864 00002213 57                              	PUSH	EDI
  3865 00002214 56                              	PUSH	ESI
  3866 00002215 31 F6                           	XOR	ESI,ESI
  3867 00002217 53                              	PUSH	EBX
  3868 00002218 83 EC 0C                        	SUB	ESP,12
  3869 0000221B 3B 75 14                        	CMP	ESI,DWORD [20+EBP]
  3870 0000221E 7D 3E                           	JGE	L631
  3871 00002220 31 FF                           	XOR	EDI,EDI
  3872 00002222                                 L629:
  3873 00002222 31 DB                           	XOR	EBX,EBX
  3874 00002224 3B 5D 10                        	CMP	EBX,DWORD [16+EBP]
  3875 00002227 7D 2C                           	JGE	L633
  3876 00002229 8B 45 20                        	MOV	EAX,DWORD [32+EBP]
  3877 0000222C 01 F8                           	ADD	EAX,EDI
  3878 0000222E 89 45 EC                        	MOV	DWORD [-20+EBP],EAX
  3879 00002231                                 L628:
  3880 00002231 8B 45 1C                        	MOV	EAX,DWORD [28+EBP]
  3881 00002234 8B 55 18                        	MOV	EDX,DWORD [24+EBP]
  3882 00002237 01 F0                           	ADD	EAX,ESI
  3883 00002239 01 DA                           	ADD	EDX,EBX
  3884 0000223B 0F AF 45 0C                     	IMUL	EAX,DWORD [12+EBP]
  3885 0000223F 01 D0                           	ADD	EAX,EDX
  3886 00002241 8B 4D 08                        	MOV	ECX,DWORD [8+EBP]
  3887 00002244 8B 55 EC                        	MOV	EDX,DWORD [-20+EBP]
  3888 00002247 43                              	INC	EBX
  3889 00002248 8A 12                           	MOV	DL,BYTE [EDX]
  3890 0000224A 88 14 08                        	MOV	BYTE [EAX+ECX*1],DL
  3891 0000224D FF 45 EC                        	INC	DWORD [-20+EBP]
  3892 00002250 3B 5D 10                        	CMP	EBX,DWORD [16+EBP]
  3893 00002253 7C DC                           	JL	L628
  3894 00002255                                 L633:
  3895 00002255 46                              	INC	ESI
  3896 00002256 03 7D 24                        	ADD	EDI,DWORD [36+EBP]
  3897 00002259 3B 75 14                        	CMP	ESI,DWORD [20+EBP]
  3898 0000225C 7C C4                           	JL	L629
  3899 0000225E                                 L631:
  3900 0000225E 83 C4 0C                        	ADD	ESP,12
  3901 00002261 5B                              	POP	EBX
  3902 00002262 5E                              	POP	ESI
  3903 00002263 5F                              	POP	EDI
  3904 00002264 5D                              	POP	EBP
  3905 00002265 C3                              	RET
  3906 00002266                                 	GLOBAL	_memtest
  3907 00002266                                 _memtest:
  3908 00002266 55                              	PUSH	EBP
  3909 00002267 89 E5                           	MOV	EBP,ESP
  3910 00002269 56                              	PUSH	ESI
  3911 0000226A 53                              	PUSH	EBX
  3912 0000226B 31 F6                           	XOR	ESI,ESI
  3913 0000226D E8 [00000000]                   	CALL	_io_load_eflags
  3914 00002272 0D 00040000                     	OR	EAX,262144
  3915 00002277 50                              	PUSH	EAX
  3916 00002278 E8 [00000000]                   	CALL	_io_store_eflags
  3917 0000227D E8 [00000000]                   	CALL	_io_load_eflags
  3918 00002282 5A                              	POP	EDX
  3919 00002283 A9 00040000                     	TEST	EAX,262144
  3920 00002288 74 05                           	JE	L635
  3921 0000228A BE 00000001                     	MOV	ESI,1
  3922 0000228F                                 L635:
  3923 0000228F 25 FFFBFFFF                     	AND	EAX,-262145
  3924 00002294 50                              	PUSH	EAX
  3925 00002295 E8 [00000000]                   	CALL	_io_store_eflags
  3926 0000229A 89 F0                           	MOV	EAX,ESI
  3927 0000229C 5B                              	POP	EBX
  3928 0000229D 84 C0                           	TEST	AL,AL
  3929 0000229F 75 31                           	JNE	L638
  3930 000022A1                                 L636:
  3931 000022A1 FF 75 0C                        	PUSH	DWORD [12+EBP]
  3932 000022A4 FF 75 08                        	PUSH	DWORD [8+EBP]
  3933 000022A7 E8 [00000000]                   	CALL	_memtest_sub
  3934 000022AC 89 C3                           	MOV	EBX,EAX
  3935 000022AE 58                              	POP	EAX
  3936 000022AF 89 F0                           	MOV	EAX,ESI
  3937 000022B1 5A                              	POP	EDX
  3938 000022B2 84 C0                           	TEST	AL,AL
  3939 000022B4 75 09                           	JNE	L639
  3940 000022B6                                 L637:
  3941 000022B6 8D 65 F8                        	LEA	ESP,DWORD [-8+EBP]
  3942 000022B9 89 D8                           	MOV	EAX,EBX
  3943 000022BB 5B                              	POP	EBX
  3944 000022BC 5E                              	POP	ESI
  3945 000022BD 5D                              	POP	EBP
  3946 000022BE C3                              	RET
  3947 000022BF                                 L639:
  3948 000022BF E8 [00000000]                   	CALL	_loadCr0
  3949 000022C4 25 9FFFFFFF                     	AND	EAX,-1610612737
  3950 000022C9 50                              	PUSH	EAX
  3951 000022CA E8 [00000000]                   	CALL	_storeCr0
  3952 000022CF 58                              	POP	EAX
  3953 000022D0 EB E4                           	JMP	L637
  3954 000022D2                                 L638:
  3955 000022D2 E8 [00000000]                   	CALL	_loadCr0
  3956 000022D7 0D 60000000                     	OR	EAX,1610612736
  3957 000022DC 50                              	PUSH	EAX
  3958 000022DD E8 [00000000]                   	CALL	_storeCr0
  3959 000022E2 59                              	POP	ECX
  3960 000022E3 EB BC                           	JMP	L636
  3961 000022E5                                 	GLOBAL	_memsegTotal
  3962 000022E5                                 _memsegTotal:
  3963 000022E5 55                              	PUSH	EBP
  3964 000022E6 31 C0                           	XOR	EAX,EAX
  3965 000022E8 89 E5                           	MOV	EBP,ESP
  3966 000022EA 31 D2                           	XOR	EDX,EDX
  3967 000022EC 53                              	PUSH	EBX
  3968 000022ED 8B 5D 08                        	MOV	EBX,DWORD [8+EBP]
  3969 000022F0 8B 0B                           	MOV	ECX,DWORD [EBX]
  3970 000022F2 39 C8                           	CMP	EAX,ECX
  3971 000022F4 73 09                           	JAE	L647
  3972 000022F6                                 L645:
  3973 000022F6 03 44 D3 14                     	ADD	EAX,DWORD [20+EBX+EDX*8]
  3974 000022FA 42                              	INC	EDX
  3975 000022FB 39 CA                           	CMP	EDX,ECX
  3976 000022FD 72 F7                           	JB	L645
  3977 000022FF                                 L647:
  3978 000022FF 5B                              	POP	EBX
  3979 00002300 5D                              	POP	EBP
  3980 00002301 C3                              	RET
  3981 00002302                                 	GLOBAL	_memsegInit
  3982 00002302                                 _memsegInit:
  3983 00002302 55                              	PUSH	EBP
  3984 00002303 89 E5                           	MOV	EBP,ESP
  3985 00002305 8B 45 08                        	MOV	EAX,DWORD [8+EBP]
  3986 00002308 C7 00 00000000                  	MOV	DWORD [EAX],0
  3987 0000230E C7 40 04 00000000               	MOV	DWORD [4+EAX],0
  3988 00002315 C7 40 08 00000000               	MOV	DWORD [8+EAX],0
  3989 0000231C C7 40 0C 00000000               	MOV	DWORD [12+EAX],0
  3990 00002323 5D                              	POP	EBP
  3991 00002324 C3                              	RET
  3992 00002325                                 	GLOBAL	_memsegAlloc
  3993 00002325                                 _memsegAlloc:
  3994 00002325 55                              	PUSH	EBP
  3995 00002326 31 C9                           	XOR	ECX,ECX
  3996 00002328 89 E5                           	MOV	EBP,ESP
  3997 0000232A 57                              	PUSH	EDI
  3998 0000232B 56                              	PUSH	ESI
  3999 0000232C 53                              	PUSH	EBX
  4000 0000232D 8B 75 0C                        	MOV	ESI,DWORD [12+EBP]
  4001 00002330 8B 5D 08                        	MOV	EBX,DWORD [8+EBP]
  4002 00002333 8B 03                           	MOV	EAX,DWORD [EBX]
  4003 00002335 39 C1                           	CMP	ECX,EAX
  4004 00002337 73 0D                           	JAE	L663
  4005 00002339                                 L661:
  4006 00002339 8B 54 CB 14                     	MOV	EDX,DWORD [20+EBX+ECX*8]
  4007 0000233D 39 F2                           	CMP	EDX,ESI
  4008 0000233F 73 0C                           	JAE	L665
  4009 00002341 41                              	INC	ECX
  4010 00002342 39 C1                           	CMP	ECX,EAX
  4011 00002344 72 F3                           	JB	L661
  4012 00002346                                 L663:
  4013 00002346 31 C0                           	XOR	EAX,EAX
  4014 00002348                                 L649:
  4015 00002348 5B                              	POP	EBX
  4016 00002349 5E                              	POP	ESI
  4017 0000234A 5F                              	POP	EDI
  4018 0000234B 5D                              	POP	EBP
  4019 0000234C C3                              	RET
  4020 0000234D                                 L665:
  4021 0000234D 8B 7C CB 10                     	MOV	EDI,DWORD [16+EBX+ECX*8]
  4022 00002351 8D 04 3E                        	LEA	EAX,DWORD [ESI+EDI*1]
  4023 00002354 89 44 CB 10                     	MOV	DWORD [16+EBX+ECX*8],EAX
  4024 00002358 89 D0                           	MOV	EAX,EDX
  4025 0000235A 29 F0                           	SUB	EAX,ESI
  4026 0000235C 89 44 CB 14                     	MOV	DWORD [20+EBX+ECX*8],EAX
  4027 00002360 85 C0                           	TEST	EAX,EAX
  4028 00002362 75 20                           	JNE	L655
  4029 00002364 8B 03                           	MOV	EAX,DWORD [EBX]
  4030 00002366 48                              	DEC	EAX
  4031 00002367 89 03                           	MOV	DWORD [EBX],EAX
  4032 00002369 39 C1                           	CMP	ECX,EAX
  4033 0000236B 73 17                           	JAE	L655
  4034 0000236D 89 C6                           	MOV	ESI,EAX
  4035 0000236F                                 L660:
  4036 0000236F 8B 44 CB 18                     	MOV	EAX,DWORD [24+EBX+ECX*8]
  4037 00002373 8B 54 CB 1C                     	MOV	EDX,DWORD [28+EBX+ECX*8]
  4038 00002377 89 44 CB 10                     	MOV	DWORD [16+EBX+ECX*8],EAX
  4039 0000237B 89 54 CB 14                     	MOV	DWORD [20+EBX+ECX*8],EDX
  4040 0000237F 41                              	INC	ECX
  4041 00002380 39 F1                           	CMP	ECX,ESI
  4042 00002382 72 EB                           	JB	L660
  4043 00002384                                 L655:
  4044 00002384 89 F8                           	MOV	EAX,EDI
  4045 00002386 EB C0                           	JMP	L649
  4046 00002388                                 	GLOBAL	_memsegFree
  4047 00002388                                 _memsegFree:
  4048 00002388 55                              	PUSH	EBP
  4049 00002389 89 E5                           	MOV	EBP,ESP
  4050 0000238B 57                              	PUSH	EDI
  4051 0000238C 56                              	PUSH	ESI
  4052 0000238D 8B 75 08                        	MOV	ESI,DWORD [8+EBP]
  4053 00002390 53                              	PUSH	EBX
  4054 00002391 31 DB                           	XOR	EBX,EBX
  4055 00002393 8B 3E                           	MOV	EDI,DWORD [ESI]
  4056 00002395 39 FB                           	CMP	EBX,EDI
  4057 00002397 7D 0E                           	JGE	L668
  4058 00002399                                 L672:
  4059 00002399 8B 45 0C                        	MOV	EAX,DWORD [12+EBP]
  4060 0000239C 39 44 DE 10                     	CMP	DWORD [16+ESI+EBX*8],EAX
  4061 000023A0 77 05                           	JA	L668
  4062 000023A2 43                              	INC	EBX
  4063 000023A3 39 FB                           	CMP	EBX,EDI
  4064 000023A5 7C F2                           	JL	L672
  4065 000023A7                                 L668:
  4066 000023A7 85 DB                           	TEST	EBX,EBX
  4067 000023A9 7E 0F                           	JLE	L673
  4068 000023AB 8B 54 DE 0C                     	MOV	EDX,DWORD [12+ESI+EBX*8]
  4069 000023AF 8B 44 DE 08                     	MOV	EAX,DWORD [8+ESI+EBX*8]
  4070 000023B3 01 D0                           	ADD	EAX,EDX
  4071 000023B5 3B 45 0C                        	CMP	EAX,DWORD [12+EBP]
  4072 000023B8 74 73                           	JE	L693
  4073 000023BA                                 L673:
  4074 000023BA 39 FB                           	CMP	EBX,EDI
  4075 000023BC 7D 0C                           	JGE	L680
  4076 000023BE 8B 45 0C                        	MOV	EAX,DWORD [12+EBP]
  4077 000023C1 03 45 10                        	ADD	EAX,DWORD [16+EBP]
  4078 000023C4 3B 44 DE 10                     	CMP	EAX,DWORD [16+ESI+EBX*8]
  4079 000023C8 74 53                           	JE	L694
  4080 000023CA                                 L680:
  4081 000023CA 81 FF 00000FF9                  	CMP	EDI,4089
  4082 000023D0 7F 3D                           	JG	L681
  4083 000023D2 89 F9                           	MOV	ECX,EDI
  4084 000023D4 39 DF                           	CMP	EDI,EBX
  4085 000023D6 7E 15                           	JLE	L691
  4086 000023D8                                 L686:
  4087 000023D8 8B 44 CE 08                     	MOV	EAX,DWORD [8+ESI+ECX*8]
  4088 000023DC 8B 54 CE 0C                     	MOV	EDX,DWORD [12+ESI+ECX*8]
  4089 000023E0 89 44 CE 10                     	MOV	DWORD [16+ESI+ECX*8],EAX
  4090 000023E4 89 54 CE 14                     	MOV	DWORD [20+ESI+ECX*8],EDX
  4091 000023E8 49                              	DEC	ECX
  4092 000023E9 39 D9                           	CMP	ECX,EBX
  4093 000023EB 7F EB                           	JG	L686
  4094 000023ED                                 L691:
  4095 000023ED 8D 47 01                        	LEA	EAX,DWORD [1+EDI]
  4096 000023F0 89 06                           	MOV	DWORD [ESI],EAX
  4097 000023F2 39 46 04                        	CMP	DWORD [4+ESI],EAX
  4098 000023F5 7D 03                           	JGE	L687
  4099 000023F7 89 46 04                        	MOV	DWORD [4+ESI],EAX
  4100 000023FA                                 L687:
  4101 000023FA 8B 45 0C                        	MOV	EAX,DWORD [12+EBP]
  4102 000023FD 89 44 DE 10                     	MOV	DWORD [16+ESI+EBX*8],EAX
  4103 00002401 8B 45 10                        	MOV	EAX,DWORD [16+EBP]
  4104 00002404 89 44 DE 14                     	MOV	DWORD [20+ESI+EBX*8],EAX
  4105 00002408                                 L692:
  4106 00002408 31 C0                           	XOR	EAX,EAX
  4107 0000240A                                 L666:
  4108 0000240A 5B                              	POP	EBX
  4109 0000240B 5E                              	POP	ESI
  4110 0000240C 5F                              	POP	EDI
  4111 0000240D 5D                              	POP	EBP
  4112 0000240E C3                              	RET
  4113 0000240F                                 L681:
  4114 0000240F 8B 45 10                        	MOV	EAX,DWORD [16+EBP]
  4115 00002412 FF 46 0C                        	INC	DWORD [12+ESI]
  4116 00002415 01 46 08                        	ADD	DWORD [8+ESI],EAX
  4117 00002418 83 C8 FF                        	OR	EAX,-1
  4118 0000241B EB ED                           	JMP	L666
  4119 0000241D                                 L694:
  4120 0000241D 8B 45 0C                        	MOV	EAX,DWORD [12+EBP]
  4121 00002420 89 44 DE 10                     	MOV	DWORD [16+ESI+EBX*8],EAX
  4122 00002424 8B 45 10                        	MOV	EAX,DWORD [16+EBP]
  4123 00002427 01 44 DE 14                     	ADD	DWORD [20+ESI+EBX*8],EAX
  4124 0000242B EB DB                           	JMP	L692
  4125 0000242D                                 L693:
  4126 0000242D 03 55 10                        	ADD	EDX,DWORD [16+EBP]
  4127 00002430 89 54 DE 0C                     	MOV	DWORD [12+ESI+EBX*8],EDX
  4128 00002434 3B 1E                           	CMP	EBX,DWORD [ESI]
  4129 00002436 7D D0                           	JGE	L692
  4130 00002438 8B 45 0C                        	MOV	EAX,DWORD [12+EBP]
  4131 0000243B 03 45 10                        	ADD	EAX,DWORD [16+EBP]
  4132 0000243E 3B 44 DE 10                     	CMP	EAX,DWORD [16+ESI+EBX*8]
  4133 00002442 75 C4                           	JNE	L692
  4134 00002444 03 54 DE 14                     	ADD	EDX,DWORD [20+ESI+EBX*8]
  4135 00002448 89 54 DE 0C                     	MOV	DWORD [12+ESI+EBX*8],EDX
  4136 0000244C 8B 06                           	MOV	EAX,DWORD [ESI]
  4137 0000244E 48                              	DEC	EAX
  4138 0000244F 89 06                           	MOV	DWORD [ESI],EAX
  4139 00002451 39 C3                           	CMP	EBX,EAX
  4140 00002453 7D B3                           	JGE	L692
  4141 00002455 89 C1                           	MOV	ECX,EAX
  4142 00002457                                 L679:
  4143 00002457 8B 44 DE 18                     	MOV	EAX,DWORD [24+ESI+EBX*8]
  4144 0000245B 8B 54 DE 1C                     	MOV	EDX,DWORD [28+ESI+EBX*8]
  4145 0000245F 89 44 DE 10                     	MOV	DWORD [16+ESI+EBX*8],EAX
  4146 00002463 89 54 DE 14                     	MOV	DWORD [20+ESI+EBX*8],EDX
  4147 00002467 43                              	INC	EBX
  4148 00002468 39 CB                           	CMP	EBX,ECX
  4149 0000246A 7C EB                           	JL	L679
  4150 0000246C EB 9A                           	JMP	L692
  4151 0000246E                                 	GLOBAL	_memsegAlloc4K
  4152 0000246E                                 _memsegAlloc4K:
  4153 0000246E 55                              	PUSH	EBP
  4154 0000246F 89 E5                           	MOV	EBP,ESP
  4155 00002471 8B 45 0C                        	MOV	EAX,DWORD [12+EBP]
  4156 00002474 05 00000FFF                     	ADD	EAX,4095
  4157 00002479 25 FFFFF000                     	AND	EAX,-4096
  4158 0000247E 89 45 0C                        	MOV	DWORD [12+EBP],EAX
  4159 00002481 5D                              	POP	EBP
  4160 00002482 E9 FFFFFE9E                     	JMP	_memsegAlloc
  4161 00002487                                 	GLOBAL	_memsegFree4K
  4162 00002487                                 _memsegFree4K:
  4163 00002487 55                              	PUSH	EBP
  4164 00002488 89 E5                           	MOV	EBP,ESP
  4165 0000248A 8B 45 10                        	MOV	EAX,DWORD [16+EBP]
  4166 0000248D 05 00000FFF                     	ADD	EAX,4095
  4167 00002492 25 FFFFF000                     	AND	EAX,-4096
  4168 00002497 89 45 10                        	MOV	DWORD [16+EBP],EAX
  4169 0000249A 5D                              	POP	EBP
  4170 0000249B E9 FFFFFEE8                     	JMP	_memsegFree
  4171 000024A0                                 	GLOBAL	_shtctlInit
  4172 000024A0                                 _shtctlInit:
  4173 000024A0 55                              	PUSH	EBP
  4174 000024A1 89 E5                           	MOV	EBP,ESP
  4175 000024A3 57                              	PUSH	EDI
  4176 000024A4 56                              	PUSH	ESI
  4177 000024A5 53                              	PUSH	EBX
  4178 000024A6 8B 75 08                        	MOV	ESI,DWORD [8+EBP]
  4179 000024A9 68 00002C14                     	PUSH	11284
  4180 000024AE 8B 7D 10                        	MOV	EDI,DWORD [16+EBP]
  4181 000024B1 56                              	PUSH	ESI
  4182 000024B2 E8 FFFFFFB7                     	CALL	_memsegAlloc4K
  4183 000024B7 59                              	POP	ECX
  4184 000024B8 89 C3                           	MOV	EBX,EAX
  4185 000024BA 58                              	POP	EAX
  4186 000024BB 31 C0                           	XOR	EAX,EAX
  4187 000024BD 85 DB                           	TEST	EBX,EBX
  4188 000024BF 74 4C                           	JE	L697
  4189 000024C1 8B 45 14                        	MOV	EAX,DWORD [20+EBP]
  4190 000024C4 0F AF C7                        	IMUL	EAX,EDI
  4191 000024C7 50                              	PUSH	EAX
  4192 000024C8 56                              	PUSH	ESI
  4193 000024C9 E8 FFFFFFA0                     	CALL	_memsegAlloc4K
  4194 000024CE 85 C0                           	TEST	EAX,EAX
  4195 000024D0 89 43 04                        	MOV	DWORD [4+EBX],EAX
  4196 000024D3 59                              	POP	ECX
  4197 000024D4 5A                              	POP	EDX
  4198 000024D5 74 3E                           	JE	L708
  4199 000024D7 8B 45 0C                        	MOV	EAX,DWORD [12+EBP]
  4200 000024DA 89 7B 08                        	MOV	DWORD [8+EBX],EDI
  4201 000024DD 89 03                           	MOV	DWORD [EBX],EAX
  4202 000024DF 8D 93 000027D8                  	LEA	EDX,DWORD [10200+EBX]
  4203 000024E5 8B 45 14                        	MOV	EAX,DWORD [20+EBP]
  4204 000024E8 89 43 0C                        	MOV	DWORD [12+EBX],EAX
  4205 000024EB 89 D8                           	MOV	EAX,EBX
  4206 000024ED C7 43 10 FFFFFFFF               	MOV	DWORD [16+EBX],-1
  4207 000024F4                                 L704:
  4208 000024F4 C7 80 00000430 00000000         	MOV	DWORD [1072+EAX],0
  4209 000024FE 89 98 00000434                  	MOV	DWORD [1076+EAX],EBX
  4210 00002504 83 C0 28                        	ADD	EAX,40
  4211 00002507 39 D0                           	CMP	EAX,EDX
  4212 00002509 7E E9                           	JLE	L704
  4213 0000250B                                 L707:
  4214 0000250B 89 D8                           	MOV	EAX,EBX
  4215 0000250D                                 L697:
  4216 0000250D 8D 65 F4                        	LEA	ESP,DWORD [-12+EBP]
  4217 00002510 5B                              	POP	EBX
  4218 00002511 5E                              	POP	ESI
  4219 00002512 5F                              	POP	EDI
  4220 00002513 5D                              	POP	EBP
  4221 00002514 C3                              	RET
  4222 00002515                                 L708:
  4223 00002515 68 00002C14                     	PUSH	11284
  4224 0000251A 53                              	PUSH	EBX
  4225 0000251B 56                              	PUSH	ESI
  4226 0000251C E8 FFFFFF66                     	CALL	_memsegFree4K
  4227 00002521 EB E8                           	JMP	L707
  4228 00002523                                 	GLOBAL	_sheetAlloc
  4229 00002523                                 _sheetAlloc:
  4230 00002523 55                              	PUSH	EBP
  4231 00002524 31 D2                           	XOR	EDX,EDX
  4232 00002526 89 E5                           	MOV	EBP,ESP
  4233 00002528 8B 45 08                        	MOV	EAX,DWORD [8+EBP]
  4234 0000252B 05 00000414                     	ADD	EAX,1044
  4235 00002530                                 L715:
  4236 00002530 83 78 1C 00                     	CMP	DWORD [28+EAX],0
  4237 00002534 74 10                           	JE	L718
  4238 00002536 42                              	INC	EDX
  4239 00002537 83 C0 28                        	ADD	EAX,40
  4240 0000253A 81 FA 000000FF                  	CMP	EDX,255
  4241 00002540 7E EE                           	JLE	L715
  4242 00002542 31 C0                           	XOR	EAX,EAX
  4243 00002544                                 L709:
  4244 00002544 5D                              	POP	EBP
  4245 00002545 C3                              	RET
  4246 00002546                                 L718:
  4247 00002546 C7 40 1C 00000001               	MOV	DWORD [28+EAX],1
  4248 0000254D C7 40 18 FFFFFFFF               	MOV	DWORD [24+EAX],-1
  4249 00002554 C7 40 24 00000000               	MOV	DWORD [36+EAX],0
  4250 0000255B EB E7                           	JMP	L709
  4251 0000255D                                 	GLOBAL	_sheetSetbuf
  4252 0000255D                                 _sheetSetbuf:
  4253 0000255D 55                              	PUSH	EBP
  4254 0000255E 89 E5                           	MOV	EBP,ESP
  4255 00002560 8B 55 08                        	MOV	EDX,DWORD [8+EBP]
  4256 00002563 8B 45 0C                        	MOV	EAX,DWORD [12+EBP]
  4257 00002566 89 02                           	MOV	DWORD [EDX],EAX
  4258 00002568 8B 45 10                        	MOV	EAX,DWORD [16+EBP]
  4259 0000256B 89 42 04                        	MOV	DWORD [4+EDX],EAX
  4260 0000256E 8B 45 14                        	MOV	EAX,DWORD [20+EBP]
  4261 00002571 89 42 08                        	MOV	DWORD [8+EDX],EAX
  4262 00002574 8B 45 18                        	MOV	EAX,DWORD [24+EBP]
  4263 00002577 89 42 14                        	MOV	DWORD [20+EDX],EAX
  4264 0000257A 5D                              	POP	EBP
  4265 0000257B C3                              	RET
  4266 0000257C                                 	GLOBAL	_sheetRefreshMap
  4267 0000257C                                 _sheetRefreshMap:
  4268 0000257C 55                              	PUSH	EBP
  4269 0000257D 89 E5                           	MOV	EBP,ESP
  4270 0000257F 57                              	PUSH	EDI
  4271 00002580 56                              	PUSH	ESI
  4272 00002581 53                              	PUSH	EBX
  4273 00002582 83 EC 28                        	SUB	ESP,40
  4274 00002585 8B 45 08                        	MOV	EAX,DWORD [8+EBP]
  4275 00002588 83 7D 0C 00                     	CMP	DWORD [12+EBP],0
  4276 0000258C 8B 40 04                        	MOV	EAX,DWORD [4+EAX]
  4277 0000258F 89 45 D8                        	MOV	DWORD [-40+EBP],EAX
  4278 00002592 0F 88 00000135                  	JS	L751
  4279 00002598                                 L721:
  4280 00002598 83 7D 10 00                     	CMP	DWORD [16+EBP],0
  4281 0000259C 0F 88 0000011F                  	JS	L752
  4282 000025A2                                 L722:
  4283 000025A2 8B 55 08                        	MOV	EDX,DWORD [8+EBP]
  4284 000025A5 8B 42 08                        	MOV	EAX,DWORD [8+EDX]
  4285 000025A8 39 45 14                        	CMP	DWORD [20+EBP],EAX
  4286 000025AB 7E 03                           	JLE	L723
  4287 000025AD 89 45 14                        	MOV	DWORD [20+EBP],EAX
  4288 000025B0                                 L723:
  4289 000025B0 8B 75 08                        	MOV	ESI,DWORD [8+EBP]
  4290 000025B3 8B 46 0C                        	MOV	EAX,DWORD [12+ESI]
  4291 000025B6 39 45 18                        	CMP	DWORD [24+EBP],EAX
  4292 000025B9 7E 03                           	JLE	L724
  4293 000025BB 89 45 18                        	MOV	DWORD [24+EBP],EAX
  4294 000025BE                                 L724:
  4295 000025BE 8B 45 08                        	MOV	EAX,DWORD [8+EBP]
  4296 000025C1 8B 7D 1C                        	MOV	EDI,DWORD [28+EBP]
  4297 000025C4 89 7D F0                        	MOV	DWORD [-16+EBP],EDI
  4298 000025C7 3B 78 10                        	CMP	EDI,DWORD [16+EAX]
  4299 000025CA 0F 8F 000000D6                  	JG	L746
  4300 000025D0                                 L744:
  4301 000025D0 8B 75 08                        	MOV	ESI,DWORD [8+EBP]
  4302 000025D3 8B 55 F0                        	MOV	EDX,DWORD [-16+EBP]
  4303 000025D6 8B 5D 10                        	MOV	EBX,DWORD [16+EBP]
  4304 000025D9 8B 4C 96 14                     	MOV	ECX,DWORD [20+ESI+EDX*4]
  4305 000025DD 89 C8                           	MOV	EAX,ECX
  4306 000025DF 29 F0                           	SUB	EAX,ESI
  4307 000025E1 8B 39                           	MOV	EDI,DWORD [ECX]
  4308 000025E3 2D 00000414                     	SUB	EAX,1044
  4309 000025E8 8B 51 10                        	MOV	EDX,DWORD [16+ECX]
  4310 000025EB C1 F8 03                        	SAR	EAX,3
  4311 000025EE 89 7D E0                        	MOV	DWORD [-32+EBP],EDI
  4312 000025F1 69 C0 CCCCCCCD                  	IMUL	EAX,EAX,-858993459
  4313 000025F7 8B 7D 18                        	MOV	EDI,DWORD [24+EBP]
  4314 000025FA 29 D3                           	SUB	EBX,EDX
  4315 000025FC 29 D7                           	SUB	EDI,EDX
  4316 000025FE 88 45 DF                        	MOV	BYTE [-33+EBP],AL
  4317 00002601 8B 75 14                        	MOV	ESI,DWORD [20+EBP]
  4318 00002604 8B 55 0C                        	MOV	EDX,DWORD [12+EBP]
  4319 00002607 8B 41 0C                        	MOV	EAX,DWORD [12+ECX]
  4320 0000260A 89 7D D4                        	MOV	DWORD [-44+EBP],EDI
  4321 0000260D 29 C6                           	SUB	ESI,EAX
  4322 0000260F 29 C2                           	SUB	EDX,EAX
  4323 00002611 89 75 CC                        	MOV	DWORD [-52+EBP],ESI
  4324 00002614 89 55 E4                        	MOV	DWORD [-28+EBP],EDX
  4325 00002617 0F 88 00000098                  	JS	L753
  4326 0000261D                                 L729:
  4327 0000261D 85 DB                           	TEST	EBX,EBX
  4328 0000261F 0F 88 00000089                  	JS	L754
  4329 00002625                                 L730:
  4330 00002625 8B 41 04                        	MOV	EAX,DWORD [4+ECX]
  4331 00002628 39 45 CC                        	CMP	DWORD [-52+EBP],EAX
  4332 0000262B 7E 03                           	JLE	L731
  4333 0000262D 89 45 CC                        	MOV	DWORD [-52+EBP],EAX
  4334 00002630                                 L731:
  4335 00002630 8B 41 08                        	MOV	EAX,DWORD [8+ECX]
  4336 00002633 39 45 D4                        	CMP	DWORD [-44+EBP],EAX
  4337 00002636 7E 03                           	JLE	L732
  4338 00002638 89 45 D4                        	MOV	DWORD [-44+EBP],EAX
  4339 0000263B                                 L732:
  4340 0000263B 3B 5D D4                        	CMP	EBX,DWORD [-44+EBP]
  4341 0000263E 7D 54                           	JGE	L748
  4342 00002640                                 L743:
  4343 00002640 8B 71 10                        	MOV	ESI,DWORD [16+ECX]
  4344 00002643 8B 55 E4                        	MOV	EDX,DWORD [-28+EBP]
  4345 00002646 01 DE                           	ADD	ESI,EBX
  4346 00002648 3B 55 CC                        	CMP	EDX,DWORD [-52+EBP]
  4347 0000264B 89 75 E8                        	MOV	DWORD [-24+EBP],ESI
  4348 0000264E 7D 3E                           	JGE	L750
  4349 00002650                                 L742:
  4350 00002650 89 D8                           	MOV	EAX,EBX
  4351 00002652 8B 79 0C                        	MOV	EDI,DWORD [12+ECX]
  4352 00002655 0F AF 41 04                     	IMUL	EAX,DWORD [4+ECX]
  4353 00002659 01 D7                           	ADD	EDI,EDX
  4354 0000265B 8B 75 E0                        	MOV	ESI,DWORD [-32+EBP]
  4355 0000265E 01 D0                           	ADD	EAX,EDX
  4356 00002660 89 7D EC                        	MOV	DWORD [-20+EBP],EDI
  4357 00002663 0F B6 34 30                     	MOVZX	ESI,BYTE [EAX+ESI*1]
  4358 00002667 3B 71 14                        	CMP	ESI,DWORD [20+ECX]
  4359 0000266A 74 1C                           	JE	L739
  4360 0000266C 8B 7D 08                        	MOV	EDI,DWORD [8+EBP]
  4361 0000266F 8B 45 E8                        	MOV	EAX,DWORD [-24+EBP]
  4362 00002672 8B 75 D8                        	MOV	ESI,DWORD [-40+EBP]
  4363 00002675 0F AF 47 08                     	IMUL	EAX,DWORD [8+EDI]
  4364 00002679 03 45 EC                        	ADD	EAX,DWORD [-20+EBP]
  4365 0000267C 89 45 D0                        	MOV	DWORD [-48+EBP],EAX
  4366 0000267F 8A 45 DF                        	MOV	AL,BYTE [-33+EBP]
  4367 00002682 8B 7D D0                        	MOV	EDI,DWORD [-48+EBP]
  4368 00002685 88 04 37                        	MOV	BYTE [EDI+ESI*1],AL
  4369 00002688                                 L739:
  4370 00002688 42                              	INC	EDX
  4371 00002689 3B 55 CC                        	CMP	EDX,DWORD [-52+EBP]
  4372 0000268C 7C C2                           	JL	L742
  4373 0000268E                                 L750:
  4374 0000268E 43                              	INC	EBX
  4375 0000268F 3B 5D D4                        	CMP	EBX,DWORD [-44+EBP]
  4376 00002692 7C AC                           	JL	L743
  4377 00002694                                 L748:
  4378 00002694 8B 55 08                        	MOV	EDX,DWORD [8+EBP]
  4379 00002697 FF 45 F0                        	INC	DWORD [-16+EBP]
  4380 0000269A 8B 45 F0                        	MOV	EAX,DWORD [-16+EBP]
  4381 0000269D 3B 42 10                        	CMP	EAX,DWORD [16+EDX]
  4382 000026A0 0F 8E FFFFFF2A                  	JLE	L744
  4383 000026A6                                 L746:
  4384 000026A6 83 C4 28                        	ADD	ESP,40
  4385 000026A9 5B                              	POP	EBX
  4386 000026AA 5E                              	POP	ESI
  4387 000026AB 5F                              	POP	EDI
  4388 000026AC 5D                              	POP	EBP
  4389 000026AD C3                              	RET
  4390 000026AE                                 L754:
  4391 000026AE 31 DB                           	XOR	EBX,EBX
  4392 000026B0 E9 FFFFFF70                     	JMP	L730
  4393 000026B5                                 L753:
  4394 000026B5 C7 45 E4 00000000               	MOV	DWORD [-28+EBP],0
  4395 000026BC E9 FFFFFF5C                     	JMP	L729
  4396 000026C1                                 L752:
  4397 000026C1 C7 45 10 00000000               	MOV	DWORD [16+EBP],0
  4398 000026C8 E9 FFFFFED5                     	JMP	L722
  4399 000026CD                                 L751:
  4400 000026CD C7 45 0C 00000000               	MOV	DWORD [12+EBP],0
  4401 000026D4 E9 FFFFFEBF                     	JMP	L721
  4402 000026D9                                 	GLOBAL	_sheetUpdown
  4403 000026D9                                 _sheetUpdown:
  4404 000026D9 55                              	PUSH	EBP
  4405 000026DA 89 E5                           	MOV	EBP,ESP
  4406 000026DC 57                              	PUSH	EDI
  4407 000026DD 56                              	PUSH	ESI
  4408 000026DE 8B 7D 08                        	MOV	EDI,DWORD [8+EBP]
  4409 000026E1 53                              	PUSH	EBX
  4410 000026E2 8B 75 0C                        	MOV	ESI,DWORD [12+EBP]
  4411 000026E5 8B 5F 20                        	MOV	EBX,DWORD [32+EDI]
  4412 000026E8 8B 47 18                        	MOV	EAX,DWORD [24+EDI]
  4413 000026EB 8B 53 10                        	MOV	EDX,DWORD [16+EBX]
  4414 000026EE 42                              	INC	EDX
  4415 000026EF 39 D6                           	CMP	ESI,EDX
  4416 000026F1 7E 02                           	JLE	L756
  4417 000026F3 89 D6                           	MOV	ESI,EDX
  4418 000026F5                                 L756:
  4419 000026F5 83 FE FF                        	CMP	ESI,-1
  4420 000026F8 7D 03                           	JGE	L757
  4421 000026FA 83 CE FF                        	OR	ESI,-1
  4422 000026FD                                 L757:
  4423 000026FD 89 77 18                        	MOV	DWORD [24+EDI],ESI
  4424 00002700 39 F0                           	CMP	EAX,ESI
  4425 00002702 0F 8E 000000A5                  	JLE	L758
  4426 00002708 85 F6                           	TEST	ESI,ESI
  4427 0000270A 78 5E                           	JS	L759
  4428 0000270C 89 C1                           	MOV	ECX,EAX
  4429 0000270E                                 L764:
  4430 0000270E 8B 44 8B 10                     	MOV	EAX,DWORD [16+EBX+ECX*4]
  4431 00002712 89 44 8B 14                     	MOV	DWORD [20+EBX+ECX*4],EAX
  4432 00002716 89 48 18                        	MOV	DWORD [24+EAX],ECX
  4433 00002719 49                              	DEC	ECX
  4434 0000271A 39 F1                           	CMP	ECX,ESI
  4435 0000271C 7F F0                           	JG	L764
  4436 0000271E 89 7C B3 14                     	MOV	DWORD [20+EBX+ESI*4],EDI
  4437 00002722 8D 5E 01                        	LEA	EBX,DWORD [1+ESI]
  4438 00002725 53                              	PUSH	EBX
  4439 00002726 8B 4F 10                        	MOV	ECX,DWORD [16+EDI]
  4440 00002729 89 C8                           	MOV	EAX,ECX
  4441 0000272B 03 47 08                        	ADD	EAX,DWORD [8+EDI]
  4442 0000272E 50                              	PUSH	EAX
  4443 0000272F 8B 57 0C                        	MOV	EDX,DWORD [12+EDI]
  4444 00002732 89 D0                           	MOV	EAX,EDX
  4445 00002734 03 47 04                        	ADD	EAX,DWORD [4+EDI]
  4446 00002737 50                              	PUSH	EAX
  4447 00002738 51                              	PUSH	ECX
  4448 00002739 52                              	PUSH	EDX
  4449 0000273A FF 77 20                        	PUSH	DWORD [32+EDI]
  4450 0000273D E8 FFFFFE3A                     	CALL	_sheetRefreshMap
  4451 00002742 53                              	PUSH	EBX
  4452 00002743                                 L793:
  4453 00002743 8B 4F 10                        	MOV	ECX,DWORD [16+EDI]
  4454 00002746 89 C8                           	MOV	EAX,ECX
  4455 00002748 03 47 08                        	ADD	EAX,DWORD [8+EDI]
  4456 0000274B 50                              	PUSH	EAX
  4457 0000274C 8B 57 0C                        	MOV	EDX,DWORD [12+EDI]
  4458 0000274F 89 D0                           	MOV	EAX,EDX
  4459 00002751 03 47 04                        	ADD	EAX,DWORD [4+EDI]
  4460 00002754 50                              	PUSH	EAX
  4461 00002755 51                              	PUSH	ECX
  4462 00002756 52                              	PUSH	EDX
  4463 00002757 FF 77 20                        	PUSH	DWORD [32+EDI]
  4464 0000275A E8 000000EF                     	CALL	_sheetRefreshSub
  4465 0000275F 83 C4 30                        	ADD	ESP,48
  4466 00002762                                 L755:
  4467 00002762 8D 65 F4                        	LEA	ESP,DWORD [-12+EBP]
  4468 00002765 5B                              	POP	EBX
  4469 00002766 5E                              	POP	ESI
  4470 00002767 5F                              	POP	EDI
  4471 00002768 5D                              	POP	EBP
  4472 00002769 C3                              	RET
  4473 0000276A                                 L759:
  4474 0000276A 8B 53 10                        	MOV	EDX,DWORD [16+EBX]
  4475 0000276D 39 C2                           	CMP	EDX,EAX
  4476 0000276F 7E 17                           	JLE	L766
  4477 00002771 89 C1                           	MOV	ECX,EAX
  4478 00002773 39 D0                           	CMP	EAX,EDX
  4479 00002775 7D 11                           	JGE	L766
  4480 00002777                                 L771:
  4481 00002777 8B 44 8B 18                     	MOV	EAX,DWORD [24+EBX+ECX*4]
  4482 0000277B 89 44 8B 14                     	MOV	DWORD [20+EBX+ECX*4],EAX
  4483 0000277F 89 48 18                        	MOV	DWORD [24+EAX],ECX
  4484 00002782 41                              	INC	ECX
  4485 00002783 3B 4B 10                        	CMP	ECX,DWORD [16+EBX]
  4486 00002786 7C EF                           	JL	L771
  4487 00002788                                 L766:
  4488 00002788 FF 4B 10                        	DEC	DWORD [16+EBX]
  4489 0000278B 6A 00                           	PUSH	0
  4490 0000278D 8B 4F 10                        	MOV	ECX,DWORD [16+EDI]
  4491 00002790 89 C8                           	MOV	EAX,ECX
  4492 00002792 03 47 08                        	ADD	EAX,DWORD [8+EDI]
  4493 00002795 50                              	PUSH	EAX
  4494 00002796 8B 57 0C                        	MOV	EDX,DWORD [12+EDI]
  4495 00002799 89 D0                           	MOV	EAX,EDX
  4496 0000279B 03 47 04                        	ADD	EAX,DWORD [4+EDI]
  4497 0000279E 50                              	PUSH	EAX
  4498 0000279F 51                              	PUSH	ECX
  4499 000027A0 52                              	PUSH	EDX
  4500 000027A1 FF 77 20                        	PUSH	DWORD [32+EDI]
  4501 000027A4 E8 FFFFFDD3                     	CALL	_sheetRefreshMap
  4502 000027A9 6A 00                           	PUSH	0
  4503 000027AB EB 96                           	JMP	L793
  4504 000027AD                                 L758:
  4505 000027AD 39 F0                           	CMP	EAX,ESI
  4506 000027AF 7D B1                           	JGE	L755
  4507 000027B1 85 C0                           	TEST	EAX,EAX
  4508 000027B3 78 3D                           	JS	L774
  4509 000027B5 89 C1                           	MOV	ECX,EAX
  4510 000027B7 39 F0                           	CMP	EAX,ESI
  4511 000027B9 7D 10                           	JGE	L790
  4512 000027BB                                 L779:
  4513 000027BB 8B 44 8B 18                     	MOV	EAX,DWORD [24+EBX+ECX*4]
  4514 000027BF 89 44 8B 14                     	MOV	DWORD [20+EBX+ECX*4],EAX
  4515 000027C3 89 48 18                        	MOV	DWORD [24+EAX],ECX
  4516 000027C6 41                              	INC	ECX
  4517 000027C7 39 F1                           	CMP	ECX,ESI
  4518 000027C9 7C F0                           	JL	L779
  4519 000027CB                                 L790:
  4520 000027CB 89 7C B3 14                     	MOV	DWORD [20+EBX+ESI*4],EDI
  4521 000027CF                                 L780:
  4522 000027CF 56                              	PUSH	ESI
  4523 000027D0 8B 4F 10                        	MOV	ECX,DWORD [16+EDI]
  4524 000027D3 89 C8                           	MOV	EAX,ECX
  4525 000027D5 03 47 08                        	ADD	EAX,DWORD [8+EDI]
  4526 000027D8 50                              	PUSH	EAX
  4527 000027D9 8B 57 0C                        	MOV	EDX,DWORD [12+EDI]
  4528 000027DC 89 D0                           	MOV	EAX,EDX
  4529 000027DE 03 47 04                        	ADD	EAX,DWORD [4+EDI]
  4530 000027E1 50                              	PUSH	EAX
  4531 000027E2 51                              	PUSH	ECX
  4532 000027E3 52                              	PUSH	EDX
  4533 000027E4 FF 77 20                        	PUSH	DWORD [32+EDI]
  4534 000027E7 E8 FFFFFD90                     	CALL	_sheetRefreshMap
  4535 000027EC 56                              	PUSH	ESI
  4536 000027ED E9 FFFFFF51                     	JMP	L793
  4537 000027F2                                 L774:
  4538 000027F2 8B 4B 10                        	MOV	ECX,DWORD [16+EBX]
  4539 000027F5 39 F1                           	CMP	ECX,ESI
  4540 000027F7 7C 13                           	JL	L792
  4541 000027F9                                 L785:
  4542 000027F9 8B 54 8B 14                     	MOV	EDX,DWORD [20+EBX+ECX*4]
  4543 000027FD 8D 41 01                        	LEA	EAX,DWORD [1+ECX]
  4544 00002800 89 54 8B 18                     	MOV	DWORD [24+EBX+ECX*4],EDX
  4545 00002804 49                              	DEC	ECX
  4546 00002805 89 42 18                        	MOV	DWORD [24+EDX],EAX
  4547 00002808 39 F1                           	CMP	ECX,ESI
  4548 0000280A 7D ED                           	JGE	L785
  4549 0000280C                                 L792:
  4550 0000280C 89 7C B3 14                     	MOV	DWORD [20+EBX+ESI*4],EDI
  4551 00002810 FF 43 10                        	INC	DWORD [16+EBX]
  4552 00002813 EB BA                           	JMP	L780
  4553 00002815                                 	GLOBAL	_sheetRefresh
  4554 00002815                                 _sheetRefresh:
  4555 00002815 55                              	PUSH	EBP
  4556 00002816 89 E5                           	MOV	EBP,ESP
  4557 00002818 53                              	PUSH	EBX
  4558 00002819 8B 5D 08                        	MOV	EBX,DWORD [8+EBP]
  4559 0000281C 8B 43 18                        	MOV	EAX,DWORD [24+EBX]
  4560 0000281F 85 C0                           	TEST	EAX,EAX
  4561 00002821 78 26                           	JS	L794
  4562 00002823 50                              	PUSH	EAX
  4563 00002824 8B 4B 10                        	MOV	ECX,DWORD [16+EBX]
  4564 00002827 89 C8                           	MOV	EAX,ECX
  4565 00002829 03 4D 10                        	ADD	ECX,DWORD [16+EBP]
  4566 0000282C 03 45 18                        	ADD	EAX,DWORD [24+EBP]
  4567 0000282F 50                              	PUSH	EAX
  4568 00002830 8B 53 0C                        	MOV	EDX,DWORD [12+EBX]
  4569 00002833 89 D0                           	MOV	EAX,EDX
  4570 00002835 03 55 0C                        	ADD	EDX,DWORD [12+EBP]
  4571 00002838 03 45 14                        	ADD	EAX,DWORD [20+EBP]
  4572 0000283B 50                              	PUSH	EAX
  4573 0000283C 51                              	PUSH	ECX
  4574 0000283D 52                              	PUSH	EDX
  4575 0000283E FF 73 20                        	PUSH	DWORD [32+EBX]
  4576 00002841 E8 00000008                     	CALL	_sheetRefreshSub
  4577 00002846 83 C4 18                        	ADD	ESP,24
  4578 00002849                                 L794:
  4579 00002849 8B 5D FC                        	MOV	EBX,DWORD [-4+EBP]
  4580 0000284C C9                              	LEAVE
  4581 0000284D C3                              	RET
  4582 0000284E                                 	GLOBAL	_sheetRefreshSub
  4583 0000284E                                 _sheetRefreshSub:
  4584 0000284E 55                              	PUSH	EBP
  4585 0000284F 89 E5                           	MOV	EBP,ESP
  4586 00002851 57                              	PUSH	EDI
  4587 00002852 56                              	PUSH	ESI
  4588 00002853 53                              	PUSH	EBX
  4589 00002854 83 EC 2C                        	SUB	ESP,44
  4590 00002857 8B 45 08                        	MOV	EAX,DWORD [8+EBP]
  4591 0000285A 8B 55 08                        	MOV	EDX,DWORD [8+EBP]
  4592 0000285D 83 7D 0C 00                     	CMP	DWORD [12+EBP],0
  4593 00002861 8B 00                           	MOV	EAX,DWORD [EAX]
  4594 00002863 8B 52 04                        	MOV	EDX,DWORD [4+EDX]
  4595 00002866 89 45 DC                        	MOV	DWORD [-36+EBP],EAX
  4596 00002869 89 55 D8                        	MOV	DWORD [-40+EBP],EDX
  4597 0000286C 0F 88 00000137                  	JS	L827
  4598 00002872                                 L797:
  4599 00002872 83 7D 10 00                     	CMP	DWORD [16+EBP],0
  4600 00002876 0F 88 00000121                  	JS	L828
  4601 0000287C                                 L798:
  4602 0000287C 8B 75 08                        	MOV	ESI,DWORD [8+EBP]
  4603 0000287F 8B 46 08                        	MOV	EAX,DWORD [8+ESI]
  4604 00002882 39 45 14                        	CMP	DWORD [20+EBP],EAX
  4605 00002885 7E 03                           	JLE	L799
  4606 00002887 89 45 14                        	MOV	DWORD [20+EBP],EAX
  4607 0000288A                                 L799:
  4608 0000288A 8B 7D 08                        	MOV	EDI,DWORD [8+EBP]
  4609 0000288D 8B 47 0C                        	MOV	EAX,DWORD [12+EDI]
  4610 00002890 39 45 18                        	CMP	DWORD [24+EBP],EAX
  4611 00002893 7E 03                           	JLE	L800
  4612 00002895 89 45 18                        	MOV	DWORD [24+EBP],EAX
  4613 00002898                                 L800:
  4614 00002898 8B 55 08                        	MOV	EDX,DWORD [8+EBP]
  4615 0000289B 8B 45 1C                        	MOV	EAX,DWORD [28+EBP]
  4616 0000289E 89 45 F0                        	MOV	DWORD [-16+EBP],EAX
  4617 000028A1 3B 42 10                        	CMP	EAX,DWORD [16+EDX]
  4618 000028A4 0F 8F 000000BF                  	JG	L822
  4619 000028AA                                 L820:
  4620 000028AA 8B 7D 08                        	MOV	EDI,DWORD [8+EBP]
  4621 000028AD 8B 75 F0                        	MOV	ESI,DWORD [-16+EBP]
  4622 000028B0 8B 4D 10                        	MOV	ECX,DWORD [16+EBP]
  4623 000028B3 8B 5C B7 14                     	MOV	EBX,DWORD [20+EDI+ESI*4]
  4624 000028B7 8B 75 14                        	MOV	ESI,DWORD [20+EBP]
  4625 000028BA 89 D8                           	MOV	EAX,EBX
  4626 000028BC 29 F8                           	SUB	EAX,EDI
  4627 000028BE 8B 53 10                        	MOV	EDX,DWORD [16+EBX]
  4628 000028C1 2D 00000414                     	SUB	EAX,1044
  4629 000028C6 8B 7D 18                        	MOV	EDI,DWORD [24+EBP]
  4630 000028C9 C1 F8 03                        	SAR	EAX,3
  4631 000028CC 29 D7                           	SUB	EDI,EDX
  4632 000028CE 69 C0 CCCCCCCD                  	IMUL	EAX,EAX,-858993459
  4633 000028D4 88 45 D7                        	MOV	BYTE [-41+EBP],AL
  4634 000028D7 29 D1                           	SUB	ECX,EDX
  4635 000028D9 8B 03                           	MOV	EAX,DWORD [EBX]
  4636 000028DB 8B 55 0C                        	MOV	EDX,DWORD [12+EBP]
  4637 000028DE 89 45 E0                        	MOV	DWORD [-32+EBP],EAX
  4638 000028E1 89 7D C8                        	MOV	DWORD [-56+EBP],EDI
  4639 000028E4 8B 43 0C                        	MOV	EAX,DWORD [12+EBX]
  4640 000028E7 29 C6                           	SUB	ESI,EAX
  4641 000028E9 29 C2                           	SUB	EDX,EAX
  4642 000028EB 89 75 E4                        	MOV	DWORD [-28+EBP],ESI
  4643 000028EE 89 55 E8                        	MOV	DWORD [-24+EBP],EDX
  4644 000028F1 0F 88 0000009A                  	JS	L829
  4645 000028F7                                 L805:
  4646 000028F7 85 C9                           	TEST	ECX,ECX
  4647 000028F9 0F 88 0000008B                  	JS	L830
  4648 000028FF                                 L806:
  4649 000028FF 8B 43 04                        	MOV	EAX,DWORD [4+EBX]
  4650 00002902 39 45 E4                        	CMP	DWORD [-28+EBP],EAX
  4651 00002905 7E 03                           	JLE	L807
  4652 00002907 89 45 E4                        	MOV	DWORD [-28+EBP],EAX
  4653 0000290A                                 L807:
  4654 0000290A 8B 43 08                        	MOV	EAX,DWORD [8+EBX]
  4655 0000290D 39 45 C8                        	CMP	DWORD [-56+EBP],EAX
  4656 00002910 7E 03                           	JLE	L808
  4657 00002912 89 45 C8                        	MOV	DWORD [-56+EBP],EAX
  4658 00002915                                 L808:
  4659 00002915 89 CE                           	MOV	ESI,ECX
  4660 00002917 3B 4D C8                        	CMP	ECX,DWORD [-56+EBP]
  4661 0000291A 7D 3B                           	JGE	L824
  4662 0000291C                                 L819:
  4663 0000291C 8B 7B 10                        	MOV	EDI,DWORD [16+EBX]
  4664 0000291F 8B 4D E8                        	MOV	ECX,DWORD [-24+EBP]
  4665 00002922 01 F7                           	ADD	EDI,ESI
  4666 00002924 3B 4D E4                        	CMP	ECX,DWORD [-28+EBP]
  4667 00002927 89 7D EC                        	MOV	DWORD [-20+EBP],EDI
  4668 0000292A 7D 25                           	JGE	L826
  4669 0000292C                                 L818:
  4670 0000292C 8B 55 08                        	MOV	EDX,DWORD [8+EBP]
  4671 0000292F 8B 7D EC                        	MOV	EDI,DWORD [-20+EBP]
  4672 00002932 8B 43 0C                        	MOV	EAX,DWORD [12+EBX]
  4673 00002935 0F AF 7A 08                     	IMUL	EDI,DWORD [8+EDX]
  4674 00002939 01 C8                           	ADD	EAX,ECX
  4675 0000293B 8A 55 D7                        	MOV	DL,BYTE [-41+EBP]
  4676 0000293E 01 F8                           	ADD	EAX,EDI
  4677 00002940 8B 7D D8                        	MOV	EDI,DWORD [-40+EBP]
  4678 00002943 89 45 CC                        	MOV	DWORD [-52+EBP],EAX
  4679 00002946 38 14 38                        	CMP	BYTE [EAX+EDI*1],DL
  4680 00002949 74 26                           	JE	L831
  4681 0000294B                                 L815:
  4682 0000294B 41                              	INC	ECX
  4683 0000294C 3B 4D E4                        	CMP	ECX,DWORD [-28+EBP]
  4684 0000294F 7C DB                           	JL	L818
  4685 00002951                                 L826:
  4686 00002951 46                              	INC	ESI
  4687 00002952 3B 75 C8                        	CMP	ESI,DWORD [-56+EBP]
  4688 00002955 7C C5                           	JL	L819
  4689 00002957                                 L824:
  4690 00002957 8B 7D 08                        	MOV	EDI,DWORD [8+EBP]
  4691 0000295A FF 45 F0                        	INC	DWORD [-16+EBP]
  4692 0000295D 8B 75 F0                        	MOV	ESI,DWORD [-16+EBP]
  4693 00002960 3B 77 10                        	CMP	ESI,DWORD [16+EDI]
  4694 00002963 0F 8E FFFFFF41                  	JLE	L820
  4695 00002969                                 L822:
  4696 00002969 83 C4 2C                        	ADD	ESP,44
  4697 0000296C 5B                              	POP	EBX
  4698 0000296D 5E                              	POP	ESI
  4699 0000296E 5F                              	POP	EDI
  4700 0000296F 5D                              	POP	EBP
  4701 00002970 C3                              	RET
  4702 00002971                                 L831:
  4703 00002971 89 F0                           	MOV	EAX,ESI
  4704 00002973 8B 55 E0                        	MOV	EDX,DWORD [-32+EBP]
  4705 00002976 0F AF 43 04                     	IMUL	EAX,DWORD [4+EBX]
  4706 0000297A 01 C8                           	ADD	EAX,ECX
  4707 0000297C 8B 7D DC                        	MOV	EDI,DWORD [-36+EBP]
  4708 0000297F 8A 04 10                        	MOV	AL,BYTE [EAX+EDX*1]
  4709 00002982 8B 55 CC                        	MOV	EDX,DWORD [-52+EBP]
  4710 00002985 88 04 3A                        	MOV	BYTE [EDX+EDI*1],AL
  4711 00002988 EB C1                           	JMP	L815
  4712 0000298A                                 L830:
  4713 0000298A 31 C9                           	XOR	ECX,ECX
  4714 0000298C E9 FFFFFF6E                     	JMP	L806
  4715 00002991                                 L829:
  4716 00002991 C7 45 E8 00000000               	MOV	DWORD [-24+EBP],0
  4717 00002998 E9 FFFFFF5A                     	JMP	L805
  4718 0000299D                                 L828:
  4719 0000299D C7 45 10 00000000               	MOV	DWORD [16+EBP],0
  4720 000029A4 E9 FFFFFED3                     	JMP	L798
  4721 000029A9                                 L827:
  4722 000029A9 C7 45 0C 00000000               	MOV	DWORD [12+EBP],0
  4723 000029B0 E9 FFFFFEBD                     	JMP	L797
  4724 000029B5                                 	GLOBAL	_sheetSlide
  4725 000029B5                                 _sheetSlide:
  4726 000029B5 55                              	PUSH	EBP
  4727 000029B6 89 E5                           	MOV	EBP,ESP
  4728 000029B8 57                              	PUSH	EDI
  4729 000029B9 56                              	PUSH	ESI
  4730 000029BA 53                              	PUSH	EBX
  4731 000029BB 8B 45 0C                        	MOV	EAX,DWORD [12+EBP]
  4732 000029BE 8B 5D 08                        	MOV	EBX,DWORD [8+EBP]
  4733 000029C1 8B 7B 0C                        	MOV	EDI,DWORD [12+EBX]
  4734 000029C4 8B 73 10                        	MOV	ESI,DWORD [16+EBX]
  4735 000029C7 89 43 0C                        	MOV	DWORD [12+EBX],EAX
  4736 000029CA 8B 45 10                        	MOV	EAX,DWORD [16+EBP]
  4737 000029CD 89 43 10                        	MOV	DWORD [16+EBX],EAX
  4738 000029D0 83 7B 18 00                     	CMP	DWORD [24+EBX],0
  4739 000029D4 78 74                           	JS	L832
  4740 000029D6 6A 00                           	PUSH	0
  4741 000029D8 89 F0                           	MOV	EAX,ESI
  4742 000029DA 03 43 08                        	ADD	EAX,DWORD [8+EBX]
  4743 000029DD 50                              	PUSH	EAX
  4744 000029DE 89 F8                           	MOV	EAX,EDI
  4745 000029E0 03 43 04                        	ADD	EAX,DWORD [4+EBX]
  4746 000029E3 50                              	PUSH	EAX
  4747 000029E4 56                              	PUSH	ESI
  4748 000029E5 57                              	PUSH	EDI
  4749 000029E6 FF 73 20                        	PUSH	DWORD [32+EBX]
  4750 000029E9 E8 FFFFFB8E                     	CALL	_sheetRefreshMap
  4751 000029EE 8B 45 10                        	MOV	EAX,DWORD [16+EBP]
  4752 000029F1 FF 73 18                        	PUSH	DWORD [24+EBX]
  4753 000029F4 03 43 08                        	ADD	EAX,DWORD [8+EBX]
  4754 000029F7 50                              	PUSH	EAX
  4755 000029F8 8B 45 0C                        	MOV	EAX,DWORD [12+EBP]
  4756 000029FB 03 43 04                        	ADD	EAX,DWORD [4+EBX]
  4757 000029FE 50                              	PUSH	EAX
  4758 000029FF FF 75 10                        	PUSH	DWORD [16+EBP]
  4759 00002A02 FF 75 0C                        	PUSH	DWORD [12+EBP]
  4760 00002A05 FF 73 20                        	PUSH	DWORD [32+EBX]
  4761 00002A08 E8 FFFFFB6F                     	CALL	_sheetRefreshMap
  4762 00002A0D 89 F0                           	MOV	EAX,ESI
  4763 00002A0F 83 C4 30                        	ADD	ESP,48
  4764 00002A12 6A 00                           	PUSH	0
  4765 00002A14 03 43 08                        	ADD	EAX,DWORD [8+EBX]
  4766 00002A17 50                              	PUSH	EAX
  4767 00002A18 89 F8                           	MOV	EAX,EDI
  4768 00002A1A 03 43 04                        	ADD	EAX,DWORD [4+EBX]
  4769 00002A1D 50                              	PUSH	EAX
  4770 00002A1E 56                              	PUSH	ESI
  4771 00002A1F 57                              	PUSH	EDI
  4772 00002A20 FF 73 20                        	PUSH	DWORD [32+EBX]
  4773 00002A23 E8 FFFFFE26                     	CALL	_sheetRefreshSub
  4774 00002A28 8B 45 10                        	MOV	EAX,DWORD [16+EBP]
  4775 00002A2B FF 73 18                        	PUSH	DWORD [24+EBX]
  4776 00002A2E 03 43 08                        	ADD	EAX,DWORD [8+EBX]
  4777 00002A31 50                              	PUSH	EAX
  4778 00002A32 8B 45 0C                        	MOV	EAX,DWORD [12+EBP]
  4779 00002A35 03 43 04                        	ADD	EAX,DWORD [4+EBX]
  4780 00002A38 50                              	PUSH	EAX
  4781 00002A39 FF 75 10                        	PUSH	DWORD [16+EBP]
  4782 00002A3C FF 75 0C                        	PUSH	DWORD [12+EBP]
  4783 00002A3F FF 73 20                        	PUSH	DWORD [32+EBX]
  4784 00002A42 E8 FFFFFE07                     	CALL	_sheetRefreshSub
  4785 00002A47 83 C4 30                        	ADD	ESP,48
  4786 00002A4A                                 L832:
  4787 00002A4A 8D 65 F4                        	LEA	ESP,DWORD [-12+EBP]
  4788 00002A4D 5B                              	POP	EBX
  4789 00002A4E 5E                              	POP	ESI
  4790 00002A4F 5F                              	POP	EDI
  4791 00002A50 5D                              	POP	EBP
  4792 00002A51 C3                              	RET
  4793 00002A52                                 	GLOBAL	_sheetFree
  4794 00002A52                                 _sheetFree:
  4795 00002A52 55                              	PUSH	EBP
  4796 00002A53 89 E5                           	MOV	EBP,ESP
  4797 00002A55 53                              	PUSH	EBX
  4798 00002A56 8B 5D 08                        	MOV	EBX,DWORD [8+EBP]
  4799 00002A59 83 7B 18 00                     	CMP	DWORD [24+EBX],0
  4800 00002A5D 78 0A                           	JS	L835
  4801 00002A5F 6A FF                           	PUSH	-1
  4802 00002A61 53                              	PUSH	EBX
  4803 00002A62 E8 FFFFFC72                     	CALL	_sheetUpdown
  4804 00002A67 58                              	POP	EAX
  4805 00002A68 5A                              	POP	EDX
  4806 00002A69                                 L835:
  4807 00002A69 C7 43 1C 00000000               	MOV	DWORD [28+EBX],0
  4808 00002A70 8B 5D FC                        	MOV	EBX,DWORD [-4+EBP]
  4809 00002A73 C9                              	LEAVE
  4810 00002A74 C3                              	RET
  4811 00002A75                                 	GLOBAL	_readFat
  4812 00002A75                                 _readFat:
  4813 00002A75 55                              	PUSH	EBP
  4814 00002A76 31 C9                           	XOR	ECX,ECX
  4815 00002A78 89 E5                           	MOV	EBP,ESP
  4816 00002A7A 57                              	PUSH	EDI
  4817 00002A7B 56                              	PUSH	ESI
  4818 00002A7C 53                              	PUSH	EBX
  4819 00002A7D 8B 7D 08                        	MOV	EDI,DWORD [8+EBP]
  4820 00002A80 8B 75 0C                        	MOV	ESI,DWORD [12+EBP]
  4821 00002A83 31 DB                           	XOR	EBX,EBX
  4822 00002A85                                 L841:
  4823 00002A85 0F B6 44 31 01                  	MOVZX	EAX,BYTE [1+ECX+ESI*1]
  4824 00002A8A 0F B6 14 31                     	MOVZX	EDX,BYTE [ECX+ESI*1]
  4825 00002A8E C1 E0 08                        	SAL	EAX,8
  4826 00002A91 09 C2                           	OR	EDX,EAX
  4827 00002A93 81 E2 00000FFF                  	AND	EDX,4095
  4828 00002A99 89 14 9F                        	MOV	DWORD [EDI+EBX*4],EDX
  4829 00002A9C 8A 44 31 01                     	MOV	AL,BYTE [1+ECX+ESI*1]
  4830 00002AA0 0F B6 54 31 02                  	MOVZX	EDX,BYTE [2+ECX+ESI*1]
  4831 00002AA5 C0 E8 04                        	SHR	AL,4
  4832 00002AA8 83 C1 03                        	ADD	ECX,3
  4833 00002AAB C1 E2 04                        	SAL	EDX,4
  4834 00002AAE 0F B6 C0                        	MOVZX	EAX,AL
  4835 00002AB1 09 D0                           	OR	EAX,EDX
  4836 00002AB3 89 44 9F 04                     	MOV	DWORD [4+EDI+EBX*4],EAX
  4837 00002AB7 83 C3 02                        	ADD	EBX,2
  4838 00002ABA 81 FB 00000B3F                  	CMP	EBX,2879
  4839 00002AC0 7E C3                           	JLE	L841
  4840 00002AC2 5B                              	POP	EBX
  4841 00002AC3 5E                              	POP	ESI
  4842 00002AC4 5F                              	POP	EDI
  4843 00002AC5 5D                              	POP	EBP
  4844 00002AC6 C3                              	RET
  4845 00002AC7                                 	GLOBAL	_loadFile
  4846 00002AC7                                 _loadFile:
  4847 00002AC7 55                              	PUSH	EBP
  4848 00002AC8 89 E5                           	MOV	EBP,ESP
  4849 00002ACA 57                              	PUSH	EDI
  4850 00002ACB 56                              	PUSH	ESI
  4851 00002ACC 53                              	PUSH	EBX
  4852 00002ACD 8B 4D 0C                        	MOV	ECX,DWORD [12+EBP]
  4853 00002AD0 8B 75 08                        	MOV	ESI,DWORD [8+EBP]
  4854 00002AD3 8B 5D 10                        	MOV	EBX,DWORD [16+EBP]
  4855 00002AD6 8B 7D 18                        	MOV	EDI,DWORD [24+EBP]
  4856 00002AD9                                 L845:
  4857 00002AD9 31 D2                           	XOR	EDX,EDX
  4858 00002ADB 39 CA                           	CMP	EDX,ECX
  4859 00002ADD 7D 12                           	JGE	L855
  4860 00002ADF                                 L852:
  4861 00002ADF 89 F0                           	MOV	EAX,ESI
  4862 00002AE1 C1 E0 09                        	SAL	EAX,9
  4863 00002AE4 01 D0                           	ADD	EAX,EDX
  4864 00002AE6 8A 04 38                        	MOV	AL,BYTE [EAX+EDI*1]
  4865 00002AE9 88 04 1A                        	MOV	BYTE [EDX+EBX*1],AL
  4866 00002AEC 42                              	INC	EDX
  4867 00002AED 39 CA                           	CMP	EDX,ECX
  4868 00002AEF 7C EE                           	JL	L852
  4869 00002AF1                                 L855:
  4870 00002AF1 81 F9 00000200                  	CMP	ECX,512
  4871 00002AF7 7E 14                           	JLE	L844
  4872 00002AF9 8B 45 14                        	MOV	EAX,DWORD [20+EBP]
  4873 00002AFC 81 E9 00000200                  	SUB	ECX,512
  4874 00002B02 81 C3 00000200                  	ADD	EBX,512
  4875 00002B08 8B 34 B0                        	MOV	ESI,DWORD [EAX+ESI*4]
  4876 00002B0B EB CC                           	JMP	L845
  4877 00002B0D                                 L844:
  4878 00002B0D 5B                              	POP	EBX
  4879 00002B0E 5E                              	POP	ESI
  4880 00002B0F 5F                              	POP	EDI
  4881 00002B10 5D                              	POP	EBP
  4882 00002B11 C3                              	RET
  4883 00002B12                                 	GLOBAL	_searchFile
  4884 00002B12                                 _searchFile:
  4885 00002B12 55                              	PUSH	EBP
  4886 00002B13 31 C9                           	XOR	ECX,ECX
  4887 00002B15 89 E5                           	MOV	EBP,ESP
  4888 00002B17 57                              	PUSH	EDI
  4889 00002B18 56                              	PUSH	ESI
  4890 00002B19 53                              	PUSH	EBX
  4891 00002B1A 83 EC 18                        	SUB	ESP,24
  4892 00002B1D 8B 5D 08                        	MOV	EBX,DWORD [8+EBP]
  4893 00002B20                                 L861:
  4894 00002B20 C6 44 0D E4 20                  	MOV	BYTE [-28+EBP+ECX*1],32
  4895 00002B25 41                              	INC	ECX
  4896 00002B26 83 F9 0A                        	CMP	ECX,10
  4897 00002B29 7E F5                           	JLE	L861
  4898 00002B2B 31 C9                           	XOR	ECX,ECX
  4899 00002B2D 31 FF                           	XOR	EDI,EDI
  4900 00002B2F 80 3B 00                        	CMP	BYTE [EBX],0
  4901 00002B32 74 29                           	JE	L888
  4902 00002B34                                 L870:
  4903 00002B34 31 C0                           	XOR	EAX,EAX
  4904 00002B36 83 F9 0A                        	CMP	ECX,10
  4905 00002B39 7F 74                           	JG	L856
  4906 00002B3B 8A 14 1F                        	MOV	DL,BYTE [EDI+EBX*1]
  4907 00002B3E 80 FA 2E                        	CMP	DL,46
  4908 00002B41 74 7A                           	JE	L893
  4909 00002B43                                 L867:
  4910 00002B43 8D 42 9F                        	LEA	EAX,DWORD [-97+EDX]
  4911 00002B46 88 54 0D E4                     	MOV	BYTE [-28+EBP+ECX*1],DL
  4912 00002B4A 3C 19                           	CMP	AL,25
  4913 00002B4C 77 07                           	JA	L869
  4914 00002B4E 8D 42 E0                        	LEA	EAX,DWORD [-32+EDX]
  4915 00002B51 88 44 0D E4                     	MOV	BYTE [-28+EBP+ECX*1],AL
  4916 00002B55                                 L869:
  4917 00002B55 41                              	INC	ECX
  4918 00002B56                                 L864:
  4919 00002B56 47                              	INC	EDI
  4920 00002B57 80 3C 1F 00                     	CMP	BYTE [EDI+EBX*1],0
  4921 00002B5B 75 D7                           	JNE	L870
  4922 00002B5D                                 L888:
  4923 00002B5D 31 FF                           	XOR	EDI,EDI
  4924 00002B5F 3B 7D 10                        	CMP	EDI,DWORD [16+EBP]
  4925 00002B62 7D 49                           	JGE	L872
  4926 00002B64 8B 75 0C                        	MOV	ESI,DWORD [12+EBP]
  4927 00002B67 C7 45 DC 00000000               	MOV	DWORD [-36+EBP],0
  4928 00002B6E                                 L884:
  4929 00002B6E 80 3E 00                        	CMP	BYTE [ESI],0
  4930 00002B71 74 3A                           	JE	L872
  4931 00002B73 C6 45 E3 00                     	MOV	BYTE [-29+EBP],0
  4932 00002B77 F6 46 0B 18                     	TEST	BYTE [11+ESI],24
  4933 00002B7B 75 1B                           	JNE	L876
  4934 00002B7D 8B 5D 0C                        	MOV	EBX,DWORD [12+EBP]
  4935 00002B80 31 C9                           	XOR	ECX,ECX
  4936 00002B82 03 5D DC                        	ADD	EBX,DWORD [-36+EBP]
  4937 00002B85                                 L882:
  4938 00002B85 0F B6 13                        	MOVZX	EDX,BYTE [EBX]
  4939 00002B88 0F BE 44 0D E4                  	MOVSX	EAX,BYTE [-28+EBP+ECX*1]
  4940 00002B8D 39 C2                           	CMP	EDX,EAX
  4941 00002B8F 75 26                           	JNE	L892
  4942 00002B91 41                              	INC	ECX
  4943 00002B92 43                              	INC	EBX
  4944 00002B93 83 F9 0A                        	CMP	ECX,10
  4945 00002B96 7E ED                           	JLE	L882
  4946 00002B98                                 L876:
  4947 00002B98 89 F0                           	MOV	EAX,ESI
  4948 00002B9A 80 7D E3 01                     	CMP	BYTE [-29+EBP],1
  4949 00002B9E 75 0F                           	JNE	L856
  4950 00002BA0 47                              	INC	EDI
  4951 00002BA1 83 C6 20                        	ADD	ESI,32
  4952 00002BA4 83 45 DC 20                     	ADD	DWORD [-36+EBP],32
  4953 00002BA8 3B 7D 10                        	CMP	EDI,DWORD [16+EBP]
  4954 00002BAB 7C C1                           	JL	L884
  4955 00002BAD                                 L872:
  4956 00002BAD 31 C0                           	XOR	EAX,EAX
  4957 00002BAF                                 L856:
  4958 00002BAF 83 C4 18                        	ADD	ESP,24
  4959 00002BB2 5B                              	POP	EBX
  4960 00002BB3 5E                              	POP	ESI
  4961 00002BB4 5F                              	POP	EDI
  4962 00002BB5 5D                              	POP	EBP
  4963 00002BB6 C3                              	RET
  4964 00002BB7                                 L892:
  4965 00002BB7 C6 45 E3 01                     	MOV	BYTE [-29+EBP],1
  4966 00002BBB EB DB                           	JMP	L876
  4967 00002BBD                                 L893:
  4968 00002BBD 83 F9 08                        	CMP	ECX,8
  4969 00002BC0 0F 8F FFFFFF7D                  	JG	L867
  4970 00002BC6 B9 00000008                     	MOV	ECX,8
  4971 00002BCB EB 89                           	JMP	L864
  4972 00002BCD                                 	GLOBAL	_keyWinOff
  4973 00002BCD                                 _keyWinOff:
  4974 00002BCD 55                              	PUSH	EBP
  4975 00002BCE 89 E5                           	MOV	EBP,ESP
  4976 00002BD0 53                              	PUSH	EBX
  4977 00002BD1 6A 00                           	PUSH	0
  4978 00002BD3 8B 5D 08                        	MOV	EBX,DWORD [8+EBP]
  4979 00002BD6 53                              	PUSH	EBX
  4980 00002BD7 E8 FFFFDE94                     	CALL	_changeWinTitle
  4981 00002BDC F6 43 1C 20                     	TEST	BYTE [28+EBX],32
  4982 00002BE0 58                              	POP	EAX
  4983 00002BE1 5A                              	POP	EDX
  4984 00002BE2 75 05                           	JNE	L896
  4985 00002BE4                                 L894:
  4986 00002BE4 8B 5D FC                        	MOV	EBX,DWORD [-4+EBP]
  4987 00002BE7 C9                              	LEAVE
  4988 00002BE8 C3                              	RET
  4989 00002BE9                                 L896:
  4990 00002BE9 6A 03                           	PUSH	3
  4991 00002BEB 8B 43 24                        	MOV	EAX,DWORD [36+EBX]
  4992 00002BEE 83 C0 10                        	ADD	EAX,16
  4993 00002BF1 50                              	PUSH	EAX
  4994 00002BF2 E8 FFFFD43A                     	CALL	_QueuePush
  4995 00002BF7 59                              	POP	ECX
  4996 00002BF8 5B                              	POP	EBX
  4997 00002BF9 EB E9                           	JMP	L894
  4998 00002BFB                                 	GLOBAL	_keyWinOn
  4999 00002BFB                                 _keyWinOn:
  5000 00002BFB 55                              	PUSH	EBP
  5001 00002BFC 89 E5                           	MOV	EBP,ESP
  5002 00002BFE 53                              	PUSH	EBX
  5003 00002BFF 6A 01                           	PUSH	1
  5004 00002C01 8B 5D 08                        	MOV	EBX,DWORD [8+EBP]
  5005 00002C04 53                              	PUSH	EBX
  5006 00002C05 E8 FFFFDE66                     	CALL	_changeWinTitle
  5007 00002C0A F6 43 1C 20                     	TEST	BYTE [28+EBX],32
  5008 00002C0E 58                              	POP	EAX
  5009 00002C0F 5A                              	POP	EDX
  5010 00002C10 75 05                           	JNE	L899
  5011 00002C12                                 L898:
  5012 00002C12 8B 5D FC                        	MOV	EBX,DWORD [-4+EBP]
  5013 00002C15 C9                              	LEAVE
  5014 00002C16 C3                              	RET
  5015 00002C17                                 L899:
  5016 00002C17 6A 02                           	PUSH	2
  5017 00002C19 8B 43 24                        	MOV	EAX,DWORD [36+EBX]
  5018 00002C1C 83 C0 10                        	ADD	EAX,16
  5019 00002C1F 50                              	PUSH	EAX
  5020 00002C20 E8 FFFFD40C                     	CALL	_QueuePush
  5021 00002C25 59                              	POP	ECX
  5022 00002C26 5B                              	POP	EBX
  5023 00002C27 EB E9                           	JMP	L898
  5024                                          [SECTION .data]
  5025 000003E7                                 LC14:
  5026 000003E7 63 6F 6E 73 6F 6C 65 00         	DB	"console",0x00
  5027 000003EF                                 LC15:
  5028 000003EF 57 65 6C 63 6F 6D 65 20 74 6F   	DB	"Welcome to DickOS",0x00
       000003F9 20 44 69 63 6B 4F 53 00 
  5029 00000401                                 LC16:
  5030 00000401 28 25 33 64 2C 20 25 33 64 29   	DB	"(%3d, %3d)",0x00
       0000040B 00 
  5031 0000040C                                 LC19:
  5032 0000040C 5B 6C 63 72 20 25 34 64 20 25   	DB	"[lcr %4d %4d]",0x00
       00000416 34 64 5D 00 
  5033 0000041A                                 LC20:
  5034 0000041A 0A 20 42 72 65 61 6B 28 6D 6F   	DB	0x0A," Break(mouse) :",0x0A,0x00
       00000424 75 73 65 29 20 3A 0A 00 
  5035 0000042C                                 LC17:
  5036 0000042C 25 30 32 58 00                  	DB	"%02X",0x00
  5037 00000431                                 LC18:
  5038 00000431 0A 42 72 65 61 6B 28 6B 65 79   	DB	0x0A,"Break(key) :",0x0A,0x00
       0000043B 29 20 3A 0A 00 
  5039                                          [SECTION .text]
  5040 00002C29                                 	GLOBAL	_Main
  5041 00002C29                                 _Main:
  5042 00002C29 55                              	PUSH	EBP
  5043 00002C2A 89 E5                           	MOV	EBP,ESP
  5044 00002C2C 57                              	PUSH	EDI
  5045 00002C2D 56                              	PUSH	ESI
  5046 00002C2E 53                              	PUSH	EBX
  5047 00002C2F 8D 9D FFFFFC14                  	LEA	EBX,DWORD [-1004+EBP]
  5048 00002C35 81 EC 0000045C                  	SUB	ESP,1116
  5049 00002C3B C7 85 FFFFFBC4 FFFFFFFF         	MOV	DWORD [-1084+EBP],-1
  5050 00002C45 C7 85 FFFFFBC0 FFFFFFFF         	MOV	DWORD [-1088+EBP],-1
  5051 00002C4F C7 85 FFFFFBBC 00000000         	MOV	DWORD [-1092+EBP],0
  5052 00002C59 C7 85 FFFFFBB4 FFFFFFFF         	MOV	DWORD [-1100+EBP],-1
  5053 00002C63 C7 85 FFFFFBA0 00000000         	MOV	DWORD [-1120+EBP],0
  5054 00002C6D A0 00000FF1                     	MOV	AL,BYTE [4081]
  5055 00002C72 C0 F8 04                        	SAR	AL,4
  5056 00002C75 89 C2                           	MOV	EDX,EAX
  5057 00002C77 83 E2 07                        	AND	EDX,7
  5058 00002C7A 89 95 FFFFFBB8                  	MOV	DWORD [-1096+EBP],EDX
  5059 00002C80 E8 FFFFEF64                     	CALL	_initGdtit
  5060 00002C85 E8 FFFFECDD                     	CALL	_init_pic
  5061 00002C8A E8 [00000000]                   	CALL	_io_sti
  5062 00002C8F 8D 85 FFFFFDC4                  	LEA	EAX,DWORD [-572+EBP]
  5063 00002C95 6A 00                           	PUSH	0
  5064 00002C97 50                              	PUSH	EAX
  5065 00002C98 68 00000080                     	PUSH	128
  5066 00002C9D 53                              	PUSH	EBX
  5067 00002C9E E8 FFFFD35D                     	CALL	_QueueInit
  5068 00002CA3 E8 FFFFD543                     	CALL	_initPit
  5069 00002CA8 68 00000100                     	PUSH	256
  5070 00002CAD 53                              	PUSH	EBX
  5071 00002CAE E8 FFFFD420                     	CALL	_initKeyboard
  5072 00002CB3 8D 85 FFFFFD34                  	LEA	EAX,DWORD [-716+EBP]
  5073 00002CB9 50                              	PUSH	EAX
  5074 00002CBA 68 00000200                     	PUSH	512
  5075 00002CBF 53                              	PUSH	EBX
  5076 00002CC0 E8 FFFFD44A                     	CALL	_enableMouse
  5077 00002CC5 83 C4 24                        	ADD	ESP,36
  5078 00002CC8 68 000000F8                     	PUSH	248
  5079 00002CCD 6A 21                           	PUSH	33
  5080 00002CCF E8 [00000000]                   	CALL	_io_out8
  5081 00002CD4 68 000000EF                     	PUSH	239
  5082 00002CD9 68 000000A1                     	PUSH	161
  5083 00002CDE E8 [00000000]                   	CALL	_io_out8
  5084 00002CE3 8D 85 FFFFFD44                  	LEA	EAX,DWORD [-700+EBP]
  5085 00002CE9 6A 00                           	PUSH	0
  5086 00002CEB 50                              	PUSH	EAX
  5087 00002CEC 8D 85 FFFFFBF4                  	LEA	EAX,DWORD [-1036+EBP]
  5088 00002CF2 6A 20                           	PUSH	32
  5089 00002CF4 50                              	PUSH	EAX
  5090 00002CF5 E8 FFFFD306                     	CALL	_QueueInit
  5091 00002CFA 83 C4 20                        	ADD	ESP,32
  5092 00002CFD 68 BFFFFFFF                     	PUSH	-1073741825
  5093 00002D02 68 00400000                     	PUSH	4194304
  5094 00002D07 E8 FFFFF55A                     	CALL	_memtest
  5095 00002D0C 68 003C0000                     	PUSH	3932160
  5096 00002D11 89 85 FFFFFBB0                  	MOV	DWORD [-1104+EBP],EAX
  5097 00002D17 E8 FFFFF5E6                     	CALL	_memsegInit
  5098 00002D1C 68 0009E000                     	PUSH	647168
  5099 00002D21 68 00001000                     	PUSH	4096
  5100 00002D26 68 003C0000                     	PUSH	3932160
  5101 00002D2B E8 FFFFF658                     	CALL	_memsegFree
  5102 00002D30 8B 85 FFFFFBB0                  	MOV	EAX,DWORD [-1104+EBP]
  5103 00002D36 2D 00400000                     	SUB	EAX,4194304
  5104 00002D3B 50                              	PUSH	EAX
  5105 00002D3C 68 00400000                     	PUSH	4194304
  5106 00002D41 68 003C0000                     	PUSH	3932160
  5107 00002D46 E8 FFFFF63D                     	CALL	_memsegFree
  5108 00002D4B 83 C4 24                        	ADD	ESP,36
  5109 00002D4E E8 FFFFF05A                     	CALL	_init_palette
  5110 00002D53 0F BF 05 00000FF6               	MOVSX	EAX,WORD [4086]
  5111 00002D5A 50                              	PUSH	EAX
  5112 00002D5B 0F BF 05 00000FF4               	MOVSX	EAX,WORD [4084]
  5113 00002D62 50                              	PUSH	EAX
  5114 00002D63 FF 35 00000FF8                  	PUSH	DWORD [4088]
  5115 00002D69 68 003C0000                     	PUSH	3932160
  5116 00002D6E E8 FFFFF72D                     	CALL	_shtctlInit
  5117 00002D73 68 003C0000                     	PUSH	3932160
  5118 00002D78 89 85 FFFFFBAC                  	MOV	DWORD [-1108+EBP],EAX
  5119 00002D7E E8 FFFFD703                     	CALL	_processInit
  5120 00002D83 6A 02                           	PUSH	2
  5121 00002D85 6A 01                           	PUSH	1
  5122 00002D87 89 85 FFFFFB9C                  	MOV	DWORD [-1124+EBP],EAX
  5123 00002D8D 50                              	PUSH	EAX
  5124 00002D8E 89 85 FFFFFC2C                  	MOV	DWORD [-980+EBP],EAX
  5125 00002D94 E8 FFFFD8D8                     	CALL	_processRun
  5126 00002D99 83 C4 20                        	ADD	ESP,32
  5127 00002D9C 8B 8D FFFFFBAC                  	MOV	ECX,DWORD [-1108+EBP]
  5128 00002DA2 89 0D 00000FE4                  	MOV	DWORD [4068],ECX
  5129 00002DA8 51                              	PUSH	ECX
  5130 00002DA9 E8 FFFFF775                     	CALL	_sheetAlloc
  5131 00002DAE 0F BF 15 00000FF6               	MOVSX	EDX,WORD [4086]
  5132 00002DB5 89 85 FFFFFBA8                  	MOV	DWORD [-1112+EBP],EAX
  5133 00002DBB 0F BF 05 00000FF4               	MOVSX	EAX,WORD [4084]
  5134 00002DC2 0F AF C2                        	IMUL	EAX,EDX
  5135 00002DC5 50                              	PUSH	EAX
  5136 00002DC6 68 003C0000                     	PUSH	3932160
  5137 00002DCB E8 FFFFF69E                     	CALL	_memsegAlloc4K
  5138 00002DD0 6A FF                           	PUSH	-1
  5139 00002DD2 89 C3                           	MOV	EBX,EAX
  5140 00002DD4 0F BF 05 00000FF6               	MOVSX	EAX,WORD [4086]
  5141 00002DDB 50                              	PUSH	EAX
  5142 00002DDC 0F BF 05 00000FF4               	MOVSX	EAX,WORD [4084]
  5143 00002DE3 50                              	PUSH	EAX
  5144 00002DE4 53                              	PUSH	EBX
  5145 00002DE5 FF B5 FFFFFBA8                  	PUSH	DWORD [-1112+EBP]
  5146 00002DEB E8 FFFFF76D                     	CALL	_sheetSetbuf
  5147 00002DF0 83 C4 20                        	ADD	ESP,32
  5148 00002DF3 0F BF 05 00000FF6               	MOVSX	EAX,WORD [4086]
  5149 00002DFA 50                              	PUSH	EAX
  5150 00002DFB 0F BF 05 00000FF4               	MOVSX	EAX,WORD [4084]
  5151 00002E02 50                              	PUSH	EAX
  5152 00002E03 53                              	PUSH	EBX
  5153 00002E04 E8 FFFFF0C3                     	CALL	_init_GUI
  5154 00002E09 83 C4 0C                        	ADD	ESP,12
  5155 00002E0C C7 85 FFFFFBD0 00000001         	MOV	DWORD [-1072+EBP],1
  5156 00002E16 31 FF                           	XOR	EDI,EDI
  5157 00002E18                                 L905:
  5158 00002E18 FF B5 FFFFFBAC                  	PUSH	DWORD [-1108+EBP]
  5159 00002E1E 8D 9D FFFFFBE4                  	LEA	EBX,DWORD [-1052+EBP]
  5160 00002E24 E8 FFFFF6FA                     	CALL	_sheetAlloc
  5161 00002E29 68 0000A500                     	PUSH	42240
  5162 00002E2E 8D B5 FFFFFBDC                  	LEA	ESI,DWORD [-1060+EBP]
  5163 00002E34 68 003C0000                     	PUSH	3932160
  5164 00002E39 89 84 3D FFFFFBEC               	MOV	DWORD [-1044+EBP+EDI*1],EAX
  5165 00002E40 E8 FFFFF629                     	CALL	_memsegAlloc4K
  5166 00002E45 89 04 3B                        	MOV	DWORD [EBX+EDI*1],EAX
  5167 00002E48 6A FF                           	PUSH	-1
  5168 00002E4A 68 000000A5                     	PUSH	165
  5169 00002E4F 68 00000100                     	PUSH	256
  5170 00002E54 50                              	PUSH	EAX
  5171 00002E55 FF B4 3D FFFFFBEC               	PUSH	DWORD [-1044+EBP+EDI*1]
  5172 00002E5C E8 FFFFF6FC                     	CALL	_sheetSetbuf
  5173 00002E61 83 C4 20                        	ADD	ESP,32
  5174 00002E64 6A 00                           	PUSH	0
  5175 00002E66 68 [000003E7]                   	PUSH	LC14
  5176 00002E6B 68 000000A5                     	PUSH	165
  5177 00002E70 68 00000100                     	PUSH	256
  5178 00002E75 FF 34 3B                        	PUSH	DWORD [EBX+EDI*1]
  5179 00002E78 E8 FFFFDAE9                     	CALL	_makeWindow
  5180 00002E7D 6A 00                           	PUSH	0
  5181 00002E7F 68 00000080                     	PUSH	128
  5182 00002E84 68 000000F0                     	PUSH	240
  5183 00002E89 6A 1C                           	PUSH	28
  5184 00002E8B 6A 08                           	PUSH	8
  5185 00002E8D FF B4 3D FFFFFBEC               	PUSH	DWORD [-1044+EBP+EDI*1]
  5186 00002E94 E8 FFFFD8E6                     	CALL	_makeTextBox
  5187 00002E99 83 C4 2C                        	ADD	ESP,44
  5188 00002E9C E8 FFFFD71C                     	CALL	_processAlloc
  5189 00002EA1 89 C3                           	MOV	EBX,EAX
  5190 00002EA3 89 04 3E                        	MOV	DWORD [ESI+EDI*1],EAX
  5191 00002EA6 68 00010000                     	PUSH	65536
  5192 00002EAB 68 003C0000                     	PUSH	3932160
  5193 00002EB0 E8 FFFFF5B9                     	CALL	_memsegAlloc4K
  5194 00002EB5 8B 94 3D FFFFFBEC               	MOV	EDX,DWORD [-1044+EBP+EDI*1]
  5195 00002EBC 05 0000FFF4                     	ADD	EAX,65524
  5196 00002EC1 89 43 64                        	MOV	DWORD [100+EBX],EAX
  5197 00002EC4 8B 04 3E                        	MOV	EAX,DWORD [ESI+EDI*1]
  5198 00002EC7 8B 48 64                        	MOV	ECX,DWORD [100+EAX]
  5199 00002ECA 89 51 04                        	MOV	DWORD [4+ECX],EDX
  5200 00002ECD 8B 8D FFFFFBB0                  	MOV	ECX,DWORD [-1104+EBP]
  5201 00002ED3 8B 50 64                        	MOV	EDX,DWORD [100+EAX]
  5202 00002ED6 89 4A 08                        	MOV	DWORD [8+EDX],ECX
  5203 00002ED9 C7 40 4C [000011C0]             	MOV	DWORD [76+EAX],_consoleMain
  5204 00002EE0 C7 40 74 00000008               	MOV	DWORD [116+EAX],8
  5205 00002EE7 C7 40 78 00000010               	MOV	DWORD [120+EAX],16
  5206 00002EEE C7 40 7C 00000008               	MOV	DWORD [124+EAX],8
  5207 00002EF5 C7 80 00000080 00000008         	MOV	DWORD [128+EAX],8
  5208 00002EFF C7 80 00000084 00000008         	MOV	DWORD [132+EAX],8
  5209 00002F09 C7 80 00000088 00000008         	MOV	DWORD [136+EAX],8
  5210 00002F13 6A 02                           	PUSH	2
  5211 00002F15 6A 02                           	PUSH	2
  5212 00002F17 50                              	PUSH	EAX
  5213 00002F18 E8 FFFFD754                     	CALL	_processRun
  5214 00002F1D 8B 14 3E                        	MOV	EDX,DWORD [ESI+EDI*1]
  5215 00002F20 8B 84 3D FFFFFBEC               	MOV	EAX,DWORD [-1044+EBP+EDI*1]
  5216 00002F27 83 48 1C 20                     	OR	DWORD [28+EAX],32
  5217 00002F2B 89 50 24                        	MOV	DWORD [36+EAX],EDX
  5218 00002F2E 68 00000200                     	PUSH	512
  5219 00002F33 68 003C0000                     	PUSH	3932160
  5220 00002F38 E8 FFFFF531                     	CALL	_memsegAlloc4K
  5221 00002F3D 8D 95 FFFFFBD4                  	LEA	EDX,DWORD [-1068+EBP]
  5222 00002F43 89 04 3A                        	MOV	DWORD [EDX+EDI*1],EAX
  5223 00002F46 FF 34 3E                        	PUSH	DWORD [ESI+EDI*1]
  5224 00002F49 50                              	PUSH	EAX
  5225 00002F4A 68 00000080                     	PUSH	128
  5226 00002F4F 8B 04 3E                        	MOV	EAX,DWORD [ESI+EDI*1]
  5227 00002F52 83 C7 04                        	ADD	EDI,4
  5228 00002F55 83 C0 10                        	ADD	EAX,16
  5229 00002F58 50                              	PUSH	EAX
  5230 00002F59 E8 FFFFD0A2                     	CALL	_QueueInit
  5231 00002F5E 83 C4 2C                        	ADD	ESP,44
  5232 00002F61 FF 8D FFFFFBD0                  	DEC	DWORD [-1072+EBP]
  5233 00002F67 0F 89 FFFFFEAB                  	JNS	L905
  5234 00002F6D FF B5 FFFFFBAC                  	PUSH	DWORD [-1108+EBP]
  5235 00002F73 C7 85 FFFFFBD0 00000002         	MOV	DWORD [-1072+EBP],2
  5236 00002F7D 8D 9D FFFFFC34                  	LEA	EBX,DWORD [-972+EBP]
  5237 00002F83 E8 FFFFF59B                     	CALL	_sheetAlloc
  5238 00002F88 6A 63                           	PUSH	99
  5239 00002F8A 6A 10                           	PUSH	16
  5240 00002F8C 89 85 FFFFFBA4                  	MOV	DWORD [-1116+EBP],EAX
  5241 00002F92 6A 10                           	PUSH	16
  5242 00002F94 53                              	PUSH	EBX
  5243 00002F95 50                              	PUSH	EAX
  5244 00002F96 E8 FFFFF5C2                     	CALL	_sheetSetbuf
  5245 00002F9B 6A 63                           	PUSH	99
  5246 00002F9D 53                              	PUSH	EBX
  5247 00002F9E 8D 5D C4                        	LEA	EBX,DWORD [-60+EBP]
  5248 00002FA1 E8 FFFFF20D                     	CALL	_initMouseCursor8
  5249 00002FA6 83 C4 20                        	ADD	ESP,32
  5250 00002FA9 0F BF 05 00000FF4               	MOVSX	EAX,WORD [4084]
  5251 00002FB0 8D 50 F0                        	LEA	EDX,DWORD [-16+EAX]
  5252 00002FB3 89 D0                           	MOV	EAX,EDX
  5253 00002FB5 99                              	CDQ
  5254 00002FB6 F7 BD FFFFFBD0                  	IDIV	DWORD [-1072+EBP]
  5255 00002FBC 89 85 FFFFFBCC                  	MOV	DWORD [-1076+EBP],EAX
  5256 00002FC2 0F BF 05 00000FF6               	MOVSX	EAX,WORD [4086]
  5257 00002FC9 6A 00                           	PUSH	0
  5258 00002FCB 8D 50 D4                        	LEA	EDX,DWORD [-44+EAX]
  5259 00002FCE 6A 00                           	PUSH	0
  5260 00002FD0 89 D0                           	MOV	EAX,EDX
  5261 00002FD2 99                              	CDQ
  5262 00002FD3 F7 BD FFFFFBD0                  	IDIV	DWORD [-1072+EBP]
  5263 00002FD9 FF B5 FFFFFBA8                  	PUSH	DWORD [-1112+EBP]
  5264 00002FDF 89 85 FFFFFBC8                  	MOV	DWORD [-1080+EBP],EAX
  5265 00002FE5 E8 FFFFF9CB                     	CALL	_sheetSlide
  5266 00002FEA 6A 40                           	PUSH	64
  5267 00002FEC 68 000000A8                     	PUSH	168
  5268 00002FF1 FF B5 FFFFFBF0                  	PUSH	DWORD [-1040+EBP]
  5269 00002FF7 E8 FFFFF9B9                     	CALL	_sheetSlide
  5270 00002FFC 6A 02                           	PUSH	2
  5271 00002FFE 6A 08                           	PUSH	8
  5272 00003000 FF B5 FFFFFBEC                  	PUSH	DWORD [-1044+EBP]
  5273 00003006 E8 FFFFF9AA                     	CALL	_sheetSlide
  5274 0000300B 83 C4 24                        	ADD	ESP,36
  5275 0000300E FF B5 FFFFFBC8                  	PUSH	DWORD [-1080+EBP]
  5276 00003014 FF B5 FFFFFBCC                  	PUSH	DWORD [-1076+EBP]
  5277 0000301A FF B5 FFFFFBA4                  	PUSH	DWORD [-1116+EBP]
  5278 00003020 E8 FFFFF990                     	CALL	_sheetSlide
  5279 00003025 6A 00                           	PUSH	0
  5280 00003027 FF B5 FFFFFBA8                  	PUSH	DWORD [-1112+EBP]
  5281 0000302D E8 FFFFF6A7                     	CALL	_sheetUpdown
  5282 00003032 6A 01                           	PUSH	1
  5283 00003034 FF B5 FFFFFBF0                  	PUSH	DWORD [-1040+EBP]
  5284 0000303A E8 FFFFF69A                     	CALL	_sheetUpdown
  5285 0000303F 6A 02                           	PUSH	2
  5286 00003041 FF B5 FFFFFBEC                  	PUSH	DWORD [-1044+EBP]
  5287 00003047 E8 FFFFF68D                     	CALL	_sheetUpdown
  5288 0000304C 83 C4 24                        	ADD	ESP,36
  5289 0000304F 6A 03                           	PUSH	3
  5290 00003051 FF B5 FFFFFBA4                  	PUSH	DWORD [-1116+EBP]
  5291 00003057 E8 FFFFF67D                     	CALL	_sheetUpdown
  5292 0000305C 6A 11                           	PUSH	17
  5293 0000305E 68 [000003EF]                   	PUSH	LC15
  5294 00003063 6A 0E                           	PUSH	14
  5295 00003065 6A 07                           	PUSH	7
  5296 00003067 6A 20                           	PUSH	32
  5297 00003069 6A 00                           	PUSH	0
  5298 0000306B FF B5 FFFFFBA8                  	PUSH	DWORD [-1112+EBP]
  5299 00003071 E8 FFFFF0B6                     	CALL	_putFont8AscSheet
  5300 00003076 83 C4 24                        	ADD	ESP,36
  5301 00003079 FF B5 FFFFFBC8                  	PUSH	DWORD [-1080+EBP]
  5302 0000307F FF B5 FFFFFBCC                  	PUSH	DWORD [-1076+EBP]
  5303 00003085 68 [00000401]                   	PUSH	LC16
  5304 0000308A 53                              	PUSH	EBX
  5305 0000308B E8 [00000000]                   	CALL	_sprintf
  5306 00003090 6A 0A                           	PUSH	10
  5307 00003092 53                              	PUSH	EBX
  5308 00003093 8D 9D FFFFFBF4                  	LEA	EBX,DWORD [-1036+EBP]
  5309 00003099 6A 0E                           	PUSH	14
  5310 0000309B 6A 07                           	PUSH	7
  5311 0000309D 6A 00                           	PUSH	0
  5312 0000309F 6A 00                           	PUSH	0
  5313 000030A1 FF B5 FFFFFBA8                  	PUSH	DWORD [-1112+EBP]
  5314 000030A7 E8 FFFFF080                     	CALL	_putFont8AscSheet
  5315 000030AC 83 C4 2C                        	ADD	ESP,44
  5316 000030AF 8B BD FFFFFBEC                  	MOV	EDI,DWORD [-1044+EBP]
  5317 000030B5 57                              	PUSH	EDI
  5318 000030B6 E8 FFFFFB40                     	CALL	_keyWinOn
  5319 000030BB 68 000000ED                     	PUSH	237
  5320 000030C0 53                              	PUSH	EBX
  5321 000030C1 E8 FFFFCF6B                     	CALL	_QueuePush
  5322 000030C6 FF B5 FFFFFBB8                  	PUSH	DWORD [-1096+EBP]
  5323 000030CC 53                              	PUSH	EBX
  5324 000030CD E8 FFFFCF5F                     	CALL	_QueuePush
  5325 000030D2 83 C4 14                        	ADD	ESP,20
  5326 000030D5                                 L906:
  5327 000030D5 8D 9D FFFFFBF4                  	LEA	EBX,DWORD [-1036+EBP]
  5328 000030DB 53                              	PUSH	EBX
  5329 000030DC E8 FFFFCFD2                     	CALL	_QueueSize
  5330 000030E1 59                              	POP	ECX
  5331 000030E2 85 C0                           	TEST	EAX,EAX
  5332 000030E4 7E 0D                           	JLE	L909
  5333 000030E6 83 BD FFFFFBB4 00               	CMP	DWORD [-1100+EBP],0
  5334 000030ED 0F 88 0000068A                  	JS	L968
  5335 000030F3                                 L909:
  5336 000030F3 8D 9D FFFFFC14                  	LEA	EBX,DWORD [-1004+EBP]
  5337 000030F9 E8 [00000000]                   	CALL	_io_cli
  5338 000030FE 53                              	PUSH	EBX
  5339 000030FF E8 FFFFCFAF                     	CALL	_QueueSize
  5340 00003104 5A                              	POP	EDX
  5341 00003105 85 C0                           	TEST	EAX,EAX
  5342 00003107 0F 84 0000065A                  	JE	L969
  5343 0000310D 53                              	PUSH	EBX
  5344 0000310E E8 FFFFCF6E                     	CALL	_QueuePop
  5345 00003113 89 C6                           	MOV	ESI,EAX
  5346 00003115 E8 [00000000]                   	CALL	_io_sti
  5347 0000311A 5B                              	POP	EBX
  5348 0000311B 83 7F 1C 00                     	CMP	DWORD [28+EDI],0
  5349 0000311F 75 14                           	JNE	L912
  5350 00003121 8B 95 FFFFFBAC                  	MOV	EDX,DWORD [-1108+EBP]
  5351 00003127 8B 42 10                        	MOV	EAX,DWORD [16+EDX]
  5352 0000312A 8B 7C 82 10                     	MOV	EDI,DWORD [16+EDX+EAX*4]
  5353 0000312E 57                              	PUSH	EDI
  5354 0000312F E8 FFFFFAC7                     	CALL	_keyWinOn
  5355 00003134 59                              	POP	ECX
  5356 00003135                                 L912:
  5357 00003135 8D 86 FFFFFF00                  	LEA	EAX,DWORD [-256+ESI]
  5358 0000313B 3D 000000FF                     	CMP	EAX,255
  5359 00003140 0F 86 0000031C                  	JBE	L970
  5360 00003146 8D 86 FFFFFE00                  	LEA	EAX,DWORD [-512+ESI]
  5361 0000314C 3D 000000FF                     	CMP	EAX,255
  5362 00003151 0F 87 FFFFFF7E                  	JA	L906
  5363 00003157 89 F1                           	MOV	ECX,ESI
  5364 00003159 0F B6 C1                        	MOVZX	EAX,CL
  5365 0000315C 50                              	PUSH	EAX
  5366 0000315D 8D 85 FFFFFD34                  	LEA	EAX,DWORD [-716+EBP]
  5367 00003163 50                              	PUSH	EAX
  5368 00003164 E8 FFFFCFE4                     	CALL	_mouseDecode
  5369 00003169 5A                              	POP	EDX
  5370 0000316A 59                              	POP	ECX
  5371 0000316B 85 C0                           	TEST	EAX,EAX
  5372 0000316D 0F 84 FFFFFF62                  	JE	L906
  5373 00003173 FF B5 FFFFFD3C                  	PUSH	DWORD [-708+EBP]
  5374 00003179 FF B5 FFFFFD38                  	PUSH	DWORD [-712+EBP]
  5375 0000317F 68 [0000040C]                   	PUSH	LC19
  5376 00003184 8D 45 C4                        	LEA	EAX,DWORD [-60+EBP]
  5377 00003187 50                              	PUSH	EAX
  5378 00003188 E8 [00000000]                   	CALL	_sprintf
  5379 0000318D 83 C4 10                        	ADD	ESP,16
  5380 00003190 F7 85 FFFFFD40 00000001         	TEST	DWORD [-704+EBP],1
  5381 0000319A 0F 84 000002A9                  	JE	L942
  5382 000031A0 C6 45 C5 4C                     	MOV	BYTE [-59+EBP],76
  5383 000031A4 83 BD FFFFFBC4 00               	CMP	DWORD [-1084+EBP],0
  5384 000031AB 0F 88 0000013D                  	JS	L971
  5385 000031B1 8B 9D FFFFFBC8                  	MOV	EBX,DWORD [-1080+EBP]
  5386 000031B7 8B 85 FFFFFBA0                  	MOV	EAX,DWORD [-1120+EBP]
  5387 000031BD 2B 9D FFFFFBC0                  	SUB	EBX,DWORD [-1088+EBP]
  5388 000031C3 8B B5 FFFFFBCC                  	MOV	ESI,DWORD [-1076+EBP]
  5389 000031C9 2B B5 FFFFFBC4                  	SUB	ESI,DWORD [-1084+EBP]
  5390 000031CF 03 58 10                        	ADD	EBX,DWORD [16+EAX]
  5391 000031D2 53                              	PUSH	EBX
  5392 000031D3 03 70 0C                        	ADD	ESI,DWORD [12+EAX]
  5393 000031D6 56                              	PUSH	ESI
  5394 000031D7 50                              	PUSH	EAX
  5395 000031D8 E8 FFFFF7D8                     	CALL	_sheetSlide
  5396 000031DD 83 C4 0C                        	ADD	ESP,12
  5397 000031E0 8B 95 FFFFFBCC                  	MOV	EDX,DWORD [-1076+EBP]
  5398 000031E6 8B 8D FFFFFBC8                  	MOV	ECX,DWORD [-1080+EBP]
  5399 000031EC 89 95 FFFFFBC4                  	MOV	DWORD [-1084+EBP],EDX
  5400 000031F2 89 8D FFFFFBC0                  	MOV	DWORD [-1088+EBP],ECX
  5401 000031F8                                 L956:
  5402 000031F8 8B 85 FFFFFD40                  	MOV	EAX,DWORD [-704+EBP]
  5403 000031FE A9 00000002                     	TEST	EAX,2
  5404 00003203 74 04                           	JE	L957
  5405 00003205 C6 45 C7 52                     	MOV	BYTE [-57+EBP],82
  5406 00003209                                 L957:
  5407 00003209 83 E0 04                        	AND	EAX,4
  5408 0000320C 74 04                           	JE	L958
  5409 0000320E C6 45 C6 43                     	MOV	BYTE [-58+EBP],67
  5410 00003212                                 L958:
  5411 00003212 6A 0F                           	PUSH	15
  5412 00003214 8D 5D C4                        	LEA	EBX,DWORD [-60+EBP]
  5413 00003217 53                              	PUSH	EBX
  5414 00003218 6A 0E                           	PUSH	14
  5415 0000321A 6A 07                           	PUSH	7
  5416 0000321C 6A 10                           	PUSH	16
  5417 0000321E 6A 20                           	PUSH	32
  5418 00003220 FF B5 FFFFFBA8                  	PUSH	DWORD [-1112+EBP]
  5419 00003226 E8 FFFFEF01                     	CALL	_putFont8AscSheet
  5420 0000322B 8B 95 FFFFFD38                  	MOV	EDX,DWORD [-712+EBP]
  5421 00003231 8B 85 FFFFFD3C                  	MOV	EAX,DWORD [-708+EBP]
  5422 00003237 83 C4 1C                        	ADD	ESP,28
  5423 0000323A 01 85 FFFFFBC8                  	ADD	DWORD [-1080+EBP],EAX
  5424 00003240 01 95 FFFFFBCC                  	ADD	DWORD [-1076+EBP],EDX
  5425 00003246 0F 88 00000093                  	JS	L972
  5426 0000324C                                 L959:
  5427 0000324C 83 BD FFFFFBC8 00               	CMP	DWORD [-1080+EBP],0
  5428 00003253 78 7B                           	JS	L973
  5429 00003255                                 L960:
  5430 00003255 0F BF 05 00000FF4               	MOVSX	EAX,WORD [4084]
  5431 0000325C 48                              	DEC	EAX
  5432 0000325D 39 85 FFFFFBCC                  	CMP	DWORD [-1076+EBP],EAX
  5433 00003263 7E 06                           	JLE	L961
  5434 00003265 89 85 FFFFFBCC                  	MOV	DWORD [-1076+EBP],EAX
  5435 0000326B                                 L961:
  5436 0000326B 0F BF 05 00000FF6               	MOVSX	EAX,WORD [4086]
  5437 00003272 48                              	DEC	EAX
  5438 00003273 39 85 FFFFFBC8                  	CMP	DWORD [-1080+EBP],EAX
  5439 00003279 7E 06                           	JLE	L962
  5440 0000327B 89 85 FFFFFBC8                  	MOV	DWORD [-1080+EBP],EAX
  5441 00003281                                 L962:
  5442 00003281 FF B5 FFFFFBC8                  	PUSH	DWORD [-1080+EBP]
  5443 00003287 FF B5 FFFFFBCC                  	PUSH	DWORD [-1076+EBP]
  5444 0000328D 68 [00000401]                   	PUSH	LC16
  5445 00003292 53                              	PUSH	EBX
  5446 00003293 E8 [00000000]                   	CALL	_sprintf
  5447 00003298 6A 0A                           	PUSH	10
  5448 0000329A 53                              	PUSH	EBX
  5449 0000329B 6A 0E                           	PUSH	14
  5450 0000329D 6A 07                           	PUSH	7
  5451 0000329F 6A 00                           	PUSH	0
  5452 000032A1 6A 00                           	PUSH	0
  5453 000032A3 FF B5 FFFFFBA8                  	PUSH	DWORD [-1112+EBP]
  5454 000032A9 E8 FFFFEE7E                     	CALL	_putFont8AscSheet
  5455 000032AE 83 C4 2C                        	ADD	ESP,44
  5456 000032B1 FF B5 FFFFFBC8                  	PUSH	DWORD [-1080+EBP]
  5457 000032B7 FF B5 FFFFFBCC                  	PUSH	DWORD [-1076+EBP]
  5458 000032BD FF B5 FFFFFBA4                  	PUSH	DWORD [-1116+EBP]
  5459 000032C3 E8 FFFFF6ED                     	CALL	_sheetSlide
  5460 000032C8 83 C4 0C                        	ADD	ESP,12
  5461 000032CB E9 FFFFFE05                     	JMP	L906
  5462 000032D0                                 L973:
  5463 000032D0 C7 85 FFFFFBC8 00000000         	MOV	DWORD [-1080+EBP],0
  5464 000032DA E9 FFFFFF76                     	JMP	L960
  5465 000032DF                                 L972:
  5466 000032DF C7 85 FFFFFBCC 00000000         	MOV	DWORD [-1076+EBP],0
  5467 000032E9 E9 FFFFFF5E                     	JMP	L959
  5468 000032EE                                 L971:
  5469 000032EE 8B 85 FFFFFBAC                  	MOV	EAX,DWORD [-1108+EBP]
  5470 000032F4 8B 48 10                        	MOV	ECX,DWORD [16+EAX]
  5471 000032F7 8D 51 FF                        	LEA	EDX,DWORD [-1+ECX]
  5472 000032FA 89 95 FFFFFBD0                  	MOV	DWORD [-1072+EBP],EDX
  5473 00003300 85 D2                           	TEST	EDX,EDX
  5474 00003302 0F 8E FFFFFEF0                  	JLE	L956
  5475 00003308                                 L954:
  5476 00003308 8B 85 FFFFFBD0                  	MOV	EAX,DWORD [-1072+EBP]
  5477 0000330E 8B 95 FFFFFBAC                  	MOV	EDX,DWORD [-1108+EBP]
  5478 00003314 8B 9D FFFFFBC8                  	MOV	EBX,DWORD [-1080+EBP]
  5479 0000331A 8B B5 FFFFFBCC                  	MOV	ESI,DWORD [-1076+EBP]
  5480 00003320 8B 44 82 14                     	MOV	EAX,DWORD [20+EDX+EAX*4]
  5481 00003324 89 85 FFFFFBA0                  	MOV	DWORD [-1120+EBP],EAX
  5482 0000332A 2B 58 10                        	SUB	EBX,DWORD [16+EAX]
  5483 0000332D 2B 70 0C                        	SUB	ESI,DWORD [12+EAX]
  5484 00003330 78 38                           	JS	L946
  5485 00003332 8B 40 04                        	MOV	EAX,DWORD [4+EAX]
  5486 00003335 39 C6                           	CMP	ESI,EAX
  5487 00003337 7D 31                           	JGE	L946
  5488 00003339 85 DB                           	TEST	EBX,EBX
  5489 0000333B 78 2D                           	JS	L946
  5490 0000333D 8B 95 FFFFFBA0                  	MOV	EDX,DWORD [-1120+EBP]
  5491 00003343 3B 5A 08                        	CMP	EBX,DWORD [8+EDX]
  5492 00003346 7D 22                           	JGE	L946
  5493 00003348 0F AF C3                        	IMUL	EAX,EBX
  5494 0000334B 89 85 FFFFFB98                  	MOV	DWORD [-1128+EBP],EAX
  5495 00003351 8B 12                           	MOV	EDX,DWORD [EDX]
  5496 00003353 8B 85 FFFFFB98                  	MOV	EAX,DWORD [-1128+EBP]
  5497 00003359 01 F0                           	ADD	EAX,ESI
  5498 0000335B 0F B6 04 10                     	MOVZX	EAX,BYTE [EAX+EDX*1]
  5499 0000335F 8B 95 FFFFFBA0                  	MOV	EDX,DWORD [-1120+EBP]
  5500 00003365 3B 42 14                        	CMP	EAX,DWORD [20+EDX]
  5501 00003368 75 14                           	JNE	L974
  5502 0000336A                                 L946:
  5503 0000336A FF 8D FFFFFBD0                  	DEC	DWORD [-1072+EBP]
  5504 00003370 83 BD FFFFFBD0 00               	CMP	DWORD [-1072+EBP],0
  5505 00003377 7F 8F                           	JG	L954
  5506 00003379 E9 FFFFFE7A                     	JMP	L956
  5507 0000337E                                 L974:
  5508 0000337E 8D 41 FF                        	LEA	EAX,DWORD [-1+ECX]
  5509 00003381 50                              	PUSH	EAX
  5510 00003382 52                              	PUSH	EDX
  5511 00003383 E8 FFFFF351                     	CALL	_sheetUpdown
  5512 00003388 39 BD FFFFFBA0                  	CMP	DWORD [-1120+EBP],EDI
  5513 0000338E 59                              	POP	ECX
  5514 0000338F 58                              	POP	EAX
  5515 00003390 74 14                           	JE	L950
  5516 00003392 57                              	PUSH	EDI
  5517 00003393 E8 FFFFF835                     	CALL	_keyWinOff
  5518 00003398 8B BD FFFFFBA0                  	MOV	EDI,DWORD [-1120+EBP]
  5519 0000339E 57                              	PUSH	EDI
  5520 0000339F E8 FFFFF857                     	CALL	_keyWinOn
  5521 000033A4 58                              	POP	EAX
  5522 000033A5 5A                              	POP	EDX
  5523 000033A6                                 L950:
  5524 000033A6 83 FE 02                        	CMP	ESI,2
  5525 000033A9 7E 32                           	JLE	L951
  5526 000033AB 8B 8D FFFFFBA0                  	MOV	ECX,DWORD [-1120+EBP]
  5527 000033B1 8B 41 04                        	MOV	EAX,DWORD [4+ECX]
  5528 000033B4 83 E8 03                        	SUB	EAX,3
  5529 000033B7 39 C6                           	CMP	ESI,EAX
  5530 000033B9 7D 22                           	JGE	L951
  5531 000033BB 83 FB 02                        	CMP	EBX,2
  5532 000033BE 7E 1D                           	JLE	L951
  5533 000033C0 83 FB 14                        	CMP	EBX,20
  5534 000033C3 7F 18                           	JG	L951
  5535 000033C5 8B 85 FFFFFBCC                  	MOV	EAX,DWORD [-1076+EBP]
  5536 000033CB 8B 95 FFFFFBC8                  	MOV	EDX,DWORD [-1080+EBP]
  5537 000033D1 89 85 FFFFFBC4                  	MOV	DWORD [-1084+EBP],EAX
  5538 000033D7 89 95 FFFFFBC0                  	MOV	DWORD [-1088+EBP],EDX
  5539 000033DD                                 L951:
  5540 000033DD 8B 8D FFFFFBA0                  	MOV	ECX,DWORD [-1120+EBP]
  5541 000033E3 8B 51 04                        	MOV	EDX,DWORD [4+ECX]
  5542 000033E6 8D 42 EB                        	LEA	EAX,DWORD [-21+EDX]
  5543 000033E9 39 F0                           	CMP	EAX,ESI
  5544 000033EB 0F 8F FFFFFE07                  	JG	L956
  5545 000033F1 8D 42 FB                        	LEA	EAX,DWORD [-5+EDX]
  5546 000033F4 39 C6                           	CMP	ESI,EAX
  5547 000033F6 0F 8D FFFFFDFC                  	JGE	L956
  5548 000033FC 83 FB 04                        	CMP	EBX,4
  5549 000033FF 0F 8E FFFFFDF3                  	JLE	L956
  5550 00003405 83 FB 12                        	CMP	EBX,18
  5551 00003408 0F 8F FFFFFDEA                  	JG	L956
  5552 0000340E F6 41 1C 10                     	TEST	BYTE [28+ECX],16
  5553 00003412 0F 84 FFFFFDE0                  	JE	L956
  5554 00003418 8B 59 24                        	MOV	EBX,DWORD [36+ECX]
  5555 0000341B 68 [0000041A]                   	PUSH	LC20
  5556 00003420 FF B3 00000094                  	PUSH	DWORD [148+EBX]
  5557 00003426 E8 FFFFD857                     	CALL	_consolePutstr0
  5558 0000342B E8 [00000000]                   	CALL	_io_cli
  5559 00003430 8D 43 30                        	LEA	EAX,DWORD [48+EBX]
  5560 00003433 89 43 54                        	MOV	DWORD [84+EBX],EAX
  5561 00003436 C7 43 4C [00000000]             	MOV	DWORD [76+EBX],_asm_endApp
  5562 0000343D E8 [00000000]                   	CALL	_io_sti
  5563 00003442 59                              	POP	ECX
  5564 00003443 5B                              	POP	EBX
  5565 00003444 E9 FFFFFDAF                     	JMP	L956
  5566 00003449                                 L942:
  5567 00003449 C7 85 FFFFFBC0 FFFFFFFF         	MOV	DWORD [-1088+EBP],-1
  5568 00003453 C7 85 FFFFFBC4 FFFFFFFF         	MOV	DWORD [-1084+EBP],-1
  5569 0000345D E9 FFFFFD96                     	JMP	L956
  5570 00003462                                 L970:
  5571 00003462 50                              	PUSH	EAX
  5572 00003463 8D 5D C4                        	LEA	EBX,DWORD [-60+EBP]
  5573 00003466 68 [0000042C]                   	PUSH	LC17
  5574 0000346B 53                              	PUSH	EBX
  5575 0000346C E8 [00000000]                   	CALL	_sprintf
  5576 00003471 6A 02                           	PUSH	2
  5577 00003473 53                              	PUSH	EBX
  5578 00003474 6A 0E                           	PUSH	14
  5579 00003476 6A 07                           	PUSH	7
  5580 00003478 6A 10                           	PUSH	16
  5581 0000347A 6A 00                           	PUSH	0
  5582 0000347C FF B5 FFFFFBA8                  	PUSH	DWORD [-1112+EBP]
  5583 00003482 E8 FFFFECA5                     	CALL	_putFont8AscSheet
  5584 00003487 83 C4 28                        	ADD	ESP,40
  5585 0000348A 81 FE 0000017F                  	CMP	ESI,383
  5586 00003490 0F 8F 000002C8                  	JG	L914
  5587 00003496 83 BD FFFFFBBC 00               	CMP	DWORD [-1092+EBP],0
  5588 0000349D 0F 85 000002B0                  	JNE	L915
  5589 000034A3 8A 86 [FFFFFF00]                	MOV	AL,BYTE [_keyboardTable0-256+ESI]
  5590 000034A9                                 L967:
  5591 000034A9 88 45 C4                        	MOV	BYTE [-60+EBP],AL
  5592 000034AC                                 L917:
  5593 000034AC 8A 55 C4                        	MOV	DL,BYTE [-60+EBP]
  5594 000034AF 8D 42 BF                        	LEA	EAX,DWORD [-65+EDX]
  5595 000034B2 3C 19                           	CMP	AL,25
  5596 000034B4 77 1D                           	JA	L918
  5597 000034B6 F7 85 FFFFFBB8 00000004         	TEST	DWORD [-1096+EBP],4
  5598 000034C0 0F 85 0000027E                  	JNE	L966
  5599 000034C6 83 BD FFFFFBBC 00               	CMP	DWORD [-1092+EBP],0
  5600 000034CD 0F 84 00000266                  	JE	L920
  5601 000034D3                                 L918:
  5602 000034D3 8A 45 C4                        	MOV	AL,BYTE [-60+EBP]
  5603 000034D6 84 C0                           	TEST	AL,AL
  5604 000034D8 74 17                           	JE	L922
  5605 000034DA 0F BE C0                        	MOVSX	EAX,AL
  5606 000034DD 05 00000100                     	ADD	EAX,256
  5607 000034E2 50                              	PUSH	EAX
  5608 000034E3 8B 47 24                        	MOV	EAX,DWORD [36+EDI]
  5609 000034E6 83 C0 10                        	ADD	EAX,16
  5610 000034E9 50                              	PUSH	EAX
  5611 000034EA E8 FFFFCB42                     	CALL	_QueuePush
  5612 000034EF 58                              	POP	EAX
  5613 000034F0 5A                              	POP	EDX
  5614 000034F1                                 L922:
  5615 000034F1 81 FE 0000010E                  	CMP	ESI,270
  5616 000034F7 0F 84 00000224                  	JE	L975
  5617 000034FD                                 L923:
  5618 000034FD 81 FE 0000011C                  	CMP	ESI,284
  5619 00003503 0F 84 00000200                  	JE	L976
  5620 00003509                                 L924:
  5621 00003509 81 FE 0000010F                  	CMP	ESI,271
  5622 0000350F 0F 84 000001B5                  	JE	L977
  5623 00003515                                 L925:
  5624 00003515 81 FE 0000012A                  	CMP	ESI,298
  5625 0000351B 0F 84 0000019D                  	JE	L978
  5626 00003521                                 L927:
  5627 00003521 81 FE 00000136                  	CMP	ESI,310
  5628 00003527 0F 84 00000185                  	JE	L979
  5629 0000352D                                 L928:
  5630 0000352D 81 FE 000001AA                  	CMP	ESI,426
  5631 00003533 0F 84 0000016D                  	JE	L980
  5632 00003539                                 L929:
  5633 00003539 81 FE 000001B6                  	CMP	ESI,438
  5634 0000353F 0F 84 00000155                  	JE	L981
  5635 00003545                                 L930:
  5636 00003545 81 FE 0000013A                  	CMP	ESI,314
  5637 0000354B 0F 84 0000011D                  	JE	L982
  5638 00003551                                 L931:
  5639 00003551 81 FE 00000145                  	CMP	ESI,325
  5640 00003557 0F 84 000000E5                  	JE	L983
  5641 0000355D                                 L932:
  5642 0000355D 81 FE 00000146                  	CMP	ESI,326
  5643 00003563 0F 84 000000AD                  	JE	L984
  5644 00003569                                 L933:
  5645 00003569 81 FE 0000013B                  	CMP	ESI,315
  5646 0000356F 74 61                           	JE	L985
  5647 00003571                                 L934:
  5648 00003571 81 FE 000001FA                  	CMP	ESI,506
  5649 00003577 74 4D                           	JE	L986
  5650 00003579                                 L936:
  5651 00003579 81 FE 000001FE                  	CMP	ESI,510
  5652 0000357F 74 2F                           	JE	L987
  5653 00003581                                 L937:
  5654 00003581 81 FE 00000157                  	CMP	ESI,343
  5655 00003587 0F 85 FFFFFB48                  	JNE	L906
  5656 0000358D 8B 95 FFFFFBAC                  	MOV	EDX,DWORD [-1108+EBP]
  5657 00003593 8B 42 10                        	MOV	EAX,DWORD [16+EDX]
  5658 00003596 83 F8 02                        	CMP	EAX,2
  5659 00003599 0F 8E FFFFFB36                  	JLE	L906
  5660 0000359F 48                              	DEC	EAX
  5661 000035A0 50                              	PUSH	EAX
  5662 000035A1 FF 72 18                        	PUSH	DWORD [24+EDX]
  5663 000035A4 E8 FFFFF130                     	CALL	_sheetUpdown
  5664 000035A9 5B                              	POP	EBX
  5665 000035AA 5E                              	POP	ESI
  5666 000035AB E9 FFFFFB25                     	JMP	L906
  5667 000035B0                                 L987:
  5668 000035B0 E8 FFFFCB0C                     	CALL	_waitKeyboardControllerReady
  5669 000035B5 FF B5 FFFFFBB4                  	PUSH	DWORD [-1100+EBP]
  5670 000035BB 6A 60                           	PUSH	96
  5671 000035BD E8 [00000000]                   	CALL	_io_out8
  5672 000035C2 58                              	POP	EAX
  5673 000035C3 5A                              	POP	EDX
  5674 000035C4 EB BB                           	JMP	L937
  5675 000035C6                                 L986:
  5676 000035C6 C7 85 FFFFFBB4 FFFFFFFF         	MOV	DWORD [-1100+EBP],-1
  5677 000035D0 EB A7                           	JMP	L936
  5678 000035D2                                 L985:
  5679 000035D2 83 BD FFFFFBBC 00               	CMP	DWORD [-1092+EBP],0
  5680 000035D9 74 96                           	JE	L934
  5681 000035DB 8B 5F 24                        	MOV	EBX,DWORD [36+EDI]
  5682 000035DE 85 DB                           	TEST	EBX,EBX
  5683 000035E0 74 8F                           	JE	L934
  5684 000035E2 83 7B 34 00                     	CMP	DWORD [52+EBX],0
  5685 000035E6 74 89                           	JE	L934
  5686 000035E8 68 [00000431]                   	PUSH	LC18
  5687 000035ED FF B3 00000094                  	PUSH	DWORD [148+EBX]
  5688 000035F3 E8 FFFFD68A                     	CALL	_consolePutstr0
  5689 000035F8 E8 [00000000]                   	CALL	_io_cli
  5690 000035FD 8D 43 30                        	LEA	EAX,DWORD [48+EBX]
  5691 00003600 89 43 54                        	MOV	DWORD [84+EBX],EAX
  5692 00003603 C7 43 4C [00000000]             	MOV	DWORD [76+EBX],_asm_endApp
  5693 0000360A E8 [00000000]                   	CALL	_io_sti
  5694 0000360F 59                              	POP	ECX
  5695 00003610 5B                              	POP	EBX
  5696 00003611 E9 FFFFFF5B                     	JMP	L934
  5697 00003616                                 L984:
  5698 00003616 68 000000ED                     	PUSH	237
  5699 0000361B 8D 9D FFFFFBF4                  	LEA	EBX,DWORD [-1036+EBP]
  5700 00003621 53                              	PUSH	EBX
  5701 00003622 83 B5 FFFFFBB8 01               	XOR	DWORD [-1096+EBP],1
  5702 00003629 E8 FFFFCA03                     	CALL	_QueuePush
  5703 0000362E FF B5 FFFFFBB8                  	PUSH	DWORD [-1096+EBP]
  5704 00003634 53                              	PUSH	EBX
  5705 00003635 E8 FFFFC9F7                     	CALL	_QueuePush
  5706 0000363A 83 C4 10                        	ADD	ESP,16
  5707 0000363D E9 FFFFFF27                     	JMP	L933
  5708 00003642                                 L983:
  5709 00003642 68 000000ED                     	PUSH	237
  5710 00003647 8D 9D FFFFFBF4                  	LEA	EBX,DWORD [-1036+EBP]
  5711 0000364D 53                              	PUSH	EBX
  5712 0000364E 83 B5 FFFFFBB8 02               	XOR	DWORD [-1096+EBP],2
  5713 00003655 E8 FFFFC9D7                     	CALL	_QueuePush
  5714 0000365A FF B5 FFFFFBB8                  	PUSH	DWORD [-1096+EBP]
  5715 00003660 53                              	PUSH	EBX
  5716 00003661 E8 FFFFC9CB                     	CALL	_QueuePush
  5717 00003666 83 C4 10                        	ADD	ESP,16
  5718 00003669 E9 FFFFFEEF                     	JMP	L932
  5719 0000366E                                 L982:
  5720 0000366E 68 000000ED                     	PUSH	237
  5721 00003673 8D 9D FFFFFBF4                  	LEA	EBX,DWORD [-1036+EBP]
  5722 00003679 53                              	PUSH	EBX
  5723 0000367A 83 B5 FFFFFBB8 04               	XOR	DWORD [-1096+EBP],4
  5724 00003681 E8 FFFFC9AB                     	CALL	_QueuePush
  5725 00003686 FF B5 FFFFFBB8                  	PUSH	DWORD [-1096+EBP]
  5726 0000368C 53                              	PUSH	EBX
  5727 0000368D E8 FFFFC99F                     	CALL	_QueuePush
  5728 00003692 83 C4 10                        	ADD	ESP,16
  5729 00003695 E9 FFFFFEB7                     	JMP	L931
  5730 0000369A                                 L981:
  5731 0000369A 83 A5 FFFFFBBC FD               	AND	DWORD [-1092+EBP],-3
  5732 000036A1 E9 FFFFFE9F                     	JMP	L930
  5733 000036A6                                 L980:
  5734 000036A6 83 A5 FFFFFBBC FE               	AND	DWORD [-1092+EBP],-2
  5735 000036AD E9 FFFFFE87                     	JMP	L929
  5736 000036B2                                 L979:
  5737 000036B2 83 8D FFFFFBBC 02               	OR	DWORD [-1092+EBP],2
  5738 000036B9 E9 FFFFFE6F                     	JMP	L928
  5739 000036BE                                 L978:
  5740 000036BE 83 8D FFFFFBBC 01               	OR	DWORD [-1092+EBP],1
  5741 000036C5 E9 FFFFFE57                     	JMP	L927
  5742 000036CA                                 L977:
  5743 000036CA 57                              	PUSH	EDI
  5744 000036CB E8 FFFFF4FD                     	CALL	_keyWinOff
  5745 000036D0 8B 4F 18                        	MOV	ECX,DWORD [24+EDI]
  5746 000036D3 49                              	DEC	ECX
  5747 000036D4 58                              	POP	EAX
  5748 000036D5 89 8D FFFFFBD0                  	MOV	DWORD [-1072+EBP],ECX
  5749 000036DB 75 10                           	JNE	L926
  5750 000036DD 8B 85 FFFFFBAC                  	MOV	EAX,DWORD [-1108+EBP]
  5751 000036E3 8B 50 10                        	MOV	EDX,DWORD [16+EAX]
  5752 000036E6 4A                              	DEC	EDX
  5753 000036E7 89 95 FFFFFBD0                  	MOV	DWORD [-1072+EBP],EDX
  5754 000036ED                                 L926:
  5755 000036ED 8B 8D FFFFFBD0                  	MOV	ECX,DWORD [-1072+EBP]
  5756 000036F3 8B 85 FFFFFBAC                  	MOV	EAX,DWORD [-1108+EBP]
  5757 000036F9 8B 7C 88 14                     	MOV	EDI,DWORD [20+EAX+ECX*4]
  5758 000036FD 57                              	PUSH	EDI
  5759 000036FE E8 FFFFF4F8                     	CALL	_keyWinOn
  5760 00003703 58                              	POP	EAX
  5761 00003704 E9 FFFFFE0C                     	JMP	L925
  5762 00003709                                 L976:
  5763 00003709 68 0000010A                     	PUSH	266
  5764 0000370E 8B 47 24                        	MOV	EAX,DWORD [36+EDI]
  5765 00003711 83 C0 10                        	ADD	EAX,16
  5766 00003714 50                              	PUSH	EAX
  5767 00003715 E8 FFFFC917                     	CALL	_QueuePush
  5768 0000371A 58                              	POP	EAX
  5769 0000371B 5A                              	POP	EDX
  5770 0000371C E9 FFFFFDE8                     	JMP	L924
  5771 00003721                                 L975:
  5772 00003721 68 00000108                     	PUSH	264
  5773 00003726 8B 47 24                        	MOV	EAX,DWORD [36+EDI]
  5774 00003729 83 C0 10                        	ADD	EAX,16
  5775 0000372C 50                              	PUSH	EAX
  5776 0000372D E8 FFFFC8FF                     	CALL	_QueuePush
  5777 00003732 59                              	POP	ECX
  5778 00003733 5B                              	POP	EBX
  5779 00003734 E9 FFFFFDC4                     	JMP	L923
  5780 00003739                                 L920:
  5781 00003739 8D 42 20                        	LEA	EAX,DWORD [32+EDX]
  5782 0000373C 88 45 C4                        	MOV	BYTE [-60+EBP],AL
  5783 0000373F E9 FFFFFD8F                     	JMP	L918
  5784 00003744                                 L966:
  5785 00003744 83 BD FFFFFBBC 00               	CMP	DWORD [-1092+EBP],0
  5786 0000374B 0F 84 FFFFFD82                  	JE	L918
  5787 00003751 EB E6                           	JMP	L920
  5788 00003753                                 L915:
  5789 00003753 8A 86 [FFFFFF80]                	MOV	AL,BYTE [_keyboardTable1-256+ESI]
  5790 00003759 E9 FFFFFD4B                     	JMP	L967
  5791 0000375E                                 L914:
  5792 0000375E C6 45 C4 00                     	MOV	BYTE [-60+EBP],0
  5793 00003762 E9 FFFFFD45                     	JMP	L917
  5794 00003767                                 L969:
  5795 00003767 FF B5 FFFFFB9C                  	PUSH	DWORD [-1124+EBP]
  5796 0000376D E8 FFFFCFCF                     	CALL	_processSleep
  5797 00003772 E8 [00000000]                   	CALL	_io_sti
  5798 00003777 5E                              	POP	ESI
  5799 00003778 E9 FFFFF958                     	JMP	L906
  5800 0000377D                                 L968:
  5801 0000377D 53                              	PUSH	EBX
  5802 0000377E E8 FFFFC8FE                     	CALL	_QueuePop
  5803 00003783 89 85 FFFFFBB4                  	MOV	DWORD [-1100+EBP],EAX
  5804 00003789 E8 FFFFC933                     	CALL	_waitKeyboardControllerReady
  5805 0000378E FF B5 FFFFFBB4                  	PUSH	DWORD [-1100+EBP]
  5806 00003794 6A 60                           	PUSH	96
  5807 00003796 E8 [00000000]                   	CALL	_io_out8
  5808 0000379B 83 C4 0C                        	ADD	ESP,12
  5809 0000379E E9 FFFFF950                     	JMP	L909
  5810 000037A3                                 	GLOBAL	_keybuf
  5811                                          [SECTION .data]
  5812 00000440                                 	ALIGNB	4
  5813 00000440                                 _keybuf:
  5814 00000440 00 00 00 00                     	RESB	4
  5815 00000444                                 	GLOBAL	_keyData0
  5816                                          [SECTION .data]
  5817 00000444                                 	ALIGNB	4
  5818 00000444                                 _keyData0:
  5819 00000444 00 00 00 00                     	RESB	4
  5820 00000448                                 	GLOBAL	_mousebuf
  5821                                          [SECTION .data]
  5822 00000448                                 	ALIGNB	4
  5823 00000448                                 _mousebuf:
  5824 00000448 00 00 00 00                     	RESB	4
  5825 0000044C                                 	GLOBAL	_mouseData0
  5826                                          [SECTION .data]
  5827 0000044C                                 	ALIGNB	4
  5828 0000044C                                 _mouseData0:
  5829 0000044C 00 00 00 00                     	RESB	4
  5830 00000450                                 	GLOBAL	_timerctl
  5831                                          [SECTION .data]
  5832 00000450                                 	ALIGNB	16
  5833 00000450                                 _timerctl:
  5834 00000450 00 00 00 00 00 00 00 00 00 00   	RESB	10012
       0000045A 00 00 00 00 00 00 00 00 00 00 
       00000464 00 00 00 00 00 00 00 00 00 00 
       0000046E 00 00 00 00 00 00 00 00 00 00 
       00000478 00 00 00 00 00 00 00 00 00 00 
       00000482 00 00 00 00 00 00 00 00 00 00 
       0000048C 00 00 00 00 00 00 00 00 00 00 
       00000496 00 00 00 00 00 00 00 00 00 00 
       000004A0 00 00 00 00 00 00 00 00 00 00 
       000004AA 00 00 00 00 00 00 00 00 00 00 
       000004B4 00 00 00 00 00 00 00 00 00 00 
       000004BE 00 00 00 00 00 00 00 00 00 00 
       000004C8 00 00 00 00 00 00 00 00 00 00 
       000004D2 00 00 00 00 00 00 00 00 00 00 
       000004DC 00 00 00 00 00 00 00 00 00 00 
       000004E6 00 00 00 00 00 00 00 00 00 00 
       000004F0 00 00 00 00 00 00 00 00 00 00 
       000004FA 00 00 00 00 00 00 00 00 00 00 
       00000504 00 00 00 00 00 00 00 00 00 00 
       0000050E 00 00 00 00 00 00 00 00 00 00 
       00000518 00 00 00 00 00 00 00 00 00 00 
       00000522 00 00 00 00 00 00 00 00 00 00 
       0000052C 00 00 00 00 00 00 00 00 00 00 
       00000536 00 00 00 00 00 00 00 00 00 00 
       00000540 00 00 00 00 00 00 00 00 00 00 
       0000054A 00 00 00 00 00 00 00 00 00 00 
       00000554 00 00 00 00 00 00 00 00 00 00 
       0000055E 00 00 00 00 00 00 00 00 00 00 
       00000568 00 00 00 00 00 00 00 00 00 00 
       00000572 00 00 00 00 00 00 00 00 00 00 
       0000057C 00 00 00 00 00 00 00 00 00 00 
       00000586 00 00 00 00 00 00 00 00 00 00 
       00000590 00 00 00 00 00 00 00 00 00 00 
       0000059A 00 00 00 00 00 00 00 00 00 00 
       000005A4 00 00 00 00 00 00 00 00 00 00 
       000005AE 00 00 00 00 00 00 00 00 00 00 
       000005B8 00 00 00 00 00 00 00 00 00 00 
       000005C2 00 00 00 00 00 00 00 00 00 00 
       000005CC 00 00 00 00 00 00 00 00 00 00 
       000005D6 00 00 00 00 00 00 00 00 00 00 
       000005E0 00 00 00 00 00 00 00 00 00 00 
       000005EA 00 00 00 00 00 00 00 00 00 00 
       000005F4 00 00 00 00 00 00 00 00 00 00 
       000005FE 00 00 00 00 00 00 00 00 00 00 
       00000608 00 00 00 00 00 00 00 00 00 00 
       00000612 00 00 00 00 00 00 00 00 00 00 
       0000061C 00 00 00 00 00 00 00 00 00 00 
       00000626 00 00 00 00 00 00 00 00 00 00 
       00000630 00 00 00 00 00 00 00 00 00 00 
       0000063A 00 00 00 00 00 00 00 00 00 00 
       00000644 00 00 00 00 00 00 00 00 00 00 
       0000064E 00 00 00 00 00 00 00 00 00 00 
       00000658 00 00 00 00 00 00 00 00 00 00 
       00000662 00 00 00 00 00 00 00 00 00 00 
       0000066C 00 00 00 00 00 00 00 00 00 00 
       00000676 00 00 00 00 00 00 00 00 00 00 
       00000680 00 00 00 00 00 00 00 00 00 00 
       0000068A 00 00 00 00 00 00 00 00 00 00 
       00000694 00 00 00 00 00 00 00 00 00 00 
       0000069E 00 00 00 00 00 00 00 00 00 00 
       000006A8 00 00 00 00 00 00 00 00 00 00 
       000006B2 00 00 00 00 00 00 00 00 00 00 
       000006BC 00 00 00 00 00 00 00 00 00 00 
       000006C6 00 00 00 00 00 00 00 00 00 00 
       000006D0 00 00 00 00 00 00 00 00 00 00 
       000006DA 00 00 00 00 00 00 00 00 00 00 
       000006E4 00 00 00 00 00 00 00 00 00 00 
       000006EE 00 00 00 00 00 00 00 00 00 00 
       000006F8 00 00 00 00 00 00 00 00 00 00 
       00000702 00 00 00 00 00 00 00 00 00 00 
       0000070C 00 00 00 00 00 00 00 00 00 00 
       00000716 00 00 00 00 00 00 00 00 00 00 
       00000720 00 00 00 00 00 00 00 00 00 00 
       0000072A 00 00 00 00 00 00 00 00 00 00 
       00000734 00 00 00 00 00 00 00 00 00 00 
       0000073E 00 00 00 00 00 00 00 00 00 00 
       00000748 00 00 00 00 00 00 00 00 00 00 
       00000752 00 00 00 00 00 00 00 00 00 00 
       0000075C 00 00 00 00 00 00 00 00 00 00 
       00000766 00 00 00 00 00 00 00 00 00 00 
       00000770 00 00 00 00 00 00 00 00 00 00 
       0000077A 00 00 00 00 00 00 00 00 00 00 
       00000784 00 00 00 00 00 00 00 00 00 00 
       0000078E 00 00 00 00 00 00 00 00 00 00 
       00000798 00 00 00 00 00 00 00 00 00 00 
       000007A2 00 00 00 00 00 00 00 00 00 00 
       000007AC 00 00 00 00 00 00 00 00 00 00 
       000007B6 00 00 00 00 00 00 00 00 00 00 
       000007C0 00 00 00 00 00 00 00 00 00 00 
       000007CA 00 00 00 00 00 00 00 00 00 00 
       000007D4 00 00 00 00 00 00 00 00 00 00 
       000007DE 00 00 00 00 00 00 00 00 00 00 
       000007E8 00 00 00 00 00 00 00 00 00 00 
       000007F2 00 00 00 00 00 00 00 00 00 00 
       000007FC 00 00 00 00 00 00 00 00 00 00 
       00000806 00 00 00 00 00 00 00 00 00 00 
       00000810 00 00 00 00 00 00 00 00 00 00 
       0000081A 00 00 00 00 00 00 00 00 00 00 
       00000824 00 00 00 00 00 00 00 00 00 00 
       0000082E 00 00 00 00 00 00 00 00 00 00 
       00000838 00 00 00 00 00 00 00 00 00 00 
       00000842 00 00 00 00 00 00 00 00 00 00 
       0000084C 00 00 00 00 00 00 00 00 00 00 
       00000856 00 00 00 00 00 00 00 00 00 00 
       00000860 00 00 00 00 00 00 00 00 00 00 
       0000086A 00 00 00 00 00 00 00 00 00 00 
       00000874 00 00 00 00 00 00 00 00 00 00 
       0000087E 00 00 00 00 00 00 00 00 00 00 
       00000888 00 00 00 00 00 00 00 00 00 00 
       00000892 00 00 00 00 00 00 00 00 00 00 
       0000089C 00 00 00 00 00 00 00 00 00 00 
       000008A6 00 00 00 00 00 00 00 00 00 00 
       000008B0 00 00 00 00 00 00 00 00 00 00 
       000008BA 00 00 00 00 00 00 00 00 00 00 
       000008C4 00 00 00 00 00 00 00 00 00 00 
       000008CE 00 00 00 00 00 00 00 00 00 00 
       000008D8 00 00 00 00 00 00 00 00 00 00 
       000008E2 00 00 00 00 00 00 00 00 00 00 
       000008EC 00 00 00 00 00 00 00 00 00 00 
       000008F6 00 00 00 00 00 00 00 00 00 00 
       00000900 00 00 00 00 00 00 00 00 00 00 
       0000090A 00 00 00 00 00 00 00 00 00 00 
       00000914 00 00 00 00 00 00 00 00 00 00 
       0000091E 00 00 00 00 00 00 00 00 00 00 
       00000928 00 00 00 00 00 00 00 00 00 00 
       00000932 00 00 00 00 00 00 00 00 00 00 
       0000093C 00 00 00 00 00 00 00 00 00 00 
       00000946 00 00 00 00 00 00 00 00 00 00 
       00000950 00 00 00 00 00 00 00 00 00 00 
       0000095A 00 00 00 00 00 00 00 00 00 00 
       00000964 00 00 00 00 00 00 00 00 00 00 
       0000096E 00 00 00 00 00 00 00 00 00 00 
       00000978 00 00 00 00 00 00 00 00 00 00 
       00000982 00 00 00 00 00 00 00 00 00 00 
       0000098C 00 00 00 00 00 00 00 00 00 00 
       00000996 00 00 00 00 00 00 00 00 00 00 
       000009A0 00 00 00 00 00 00 00 00 00 00 
       000009AA 00 00 00 00 00 00 00 00 00 00 
       000009B4 00 00 00 00 00 00 00 00 00 00 
       000009BE 00 00 00 00 00 00 00 00 00 00 
       000009C8 00 00 00 00 00 00 00 00 00 00 
       000009D2 00 00 00 00 00 00 00 00 00 00 
       000009DC 00 00 00 00 00 00 00 00 00 00 
       000009E6 00 00 00 00 00 00 00 00 00 00 
       000009F0 00 00 00 00 00 00 00 00 00 00 
       000009FA 00 00 00 00 00 00 00 00 00 00 
       00000A04 00 00 00 00 00 00 00 00 00 00 
       00000A0E 00 00 00 00 00 00 00 00 00 00 
       00000A18 00 00 00 00 00 00 00 00 00 00 
       00000A22 00 00 00 00 00 00 00 00 00 00 
       00000A2C 00 00 00 00 00 00 00 00 00 00 
       00000A36 00 00 00 00 00 00 00 00 00 00 
       00000A40 00 00 00 00 00 00 00 00 00 00 
       00000A4A 00 00 00 00 00 00 00 00 00 00 
       00000A54 00 00 00 00 00 00 00 00 00 00 
       00000A5E 00 00 00 00 00 00 00 00 00 00 
       00000A68 00 00 00 00 00 00 00 00 00 00 
       00000A72 00 00 00 00 00 00 00 00 00 00 
       00000A7C 00 00 00 00 00 00 00 00 00 00 
       00000A86 00 00 00 00 00 00 00 00 00 00 
       00000A90 00 00 00 00 00 00 00 00 00 00 
       00000A9A 00 00 00 00 00 00 00 00 00 00 
       00000AA4 00 00 00 00 00 00 00 00 00 00 
       00000AAE 00 00 00 00 00 00 00 00 00 00 
       00000AB8 00 00 00 00 00 00 00 00 00 00 
       00000AC2 00 00 00 00 00 00 00 00 00 00 
       00000ACC 00 00 00 00 00 00 00 00 00 00 
       00000AD6 00 00 00 00 00 00 00 00 00 00 
       00000AE0 00 00 00 00 00 00 00 00 00 00 
       00000AEA 00 00 00 00 00 00 00 00 00 00 
       00000AF4 00 00 00 00 00 00 00 00 00 00 
       00000AFE 00 00 00 00 00 00 00 00 00 00 
       00000B08 00 00 00 00 00 00 00 00 00 00 
       00000B12 00 00 00 00 00 00 00 00 00 00 
       00000B1C 00 00 00 00 00 00 00 00 00 00 
       00000B26 00 00 00 00 00 00 00 00 00 00 
       00000B30 00 00 00 00 00 00 00 00 00 00 
       00000B3A 00 00 00 00 00 00 00 00 00 00 
       00000B44 00 00 00 00 00 00 00 00 00 00 
       00000B4E 00 00 00 00 00 00 00 00 00 00 
       00000B58 00 00 00 00 00 00 00 00 00 00 
       00000B62 00 00 00 00 00 00 00 00 00 00 
       00000B6C 00 00 00 00 00 00 00 00 00 00 
       00000B76 00 00 00 00 00 00 00 00 00 00 
       00000B80 00 00 00 00 00 00 00 00 00 00 
       00000B8A 00 00 00 00 00 00 00 00 00 00 
       00000B94 00 00 00 00 00 00 00 00 00 00 
       00000B9E 00 00 00 00 00 00 00 00 00 00 
       00000BA8 00 00 00 00 00 00 00 00 00 00 
       00000BB2 00 00 00 00 00 00 00 00 00 00 
       00000BBC 00 00 00 00 00 00 00 00 00 00 
       00000BC6 00 00 00 00 00 00 00 00 00 00 
       00000BD0 00 00 00 00 00 00 00 00 00 00 
       00000BDA 00 00 00 00 00 00 00 00 00 00 
       00000BE4 00 00 00 00 00 00 00 00 00 00 
       00000BEE 00 00 00 00 00 00 00 00 00 00 
       00000BF8 00 00 00 00 00 00 00 00 00 00 
       00000C02 00 00 00 00 00 00 00 00 00 00 
       00000C0C 00 00 00 00 00 00 00 00 00 00 
       00000C16 00 00 00 00 00 00 00 00 00 00 
       00000C20 00 00 00 00 00 00 00 00 00 00 
       00000C2A 00 00 00 00 00 00 00 00 00 00 
       00000C34 00 00 00 00 00 00 00 00 00 00 
       00000C3E 00 00 00 00 00 00 00 00 00 00 
       00000C48 00 00 00 00 00 00 00 00 00 00 
       00000C52 00 00 00 00 00 00 00 00 00 00 
       00000C5C 00 00 00 00 00 00 00 00 00 00 
       00000C66 00 00 00 00 00 00 00 00 00 00 
       00000C70 00 00 00 00 00 00 00 00 00 00 
       00000C7A 00 00 00 00 00 00 00 00 00 00 
       00000C84 00 00 00 00 00 00 00 00 00 00 
       00000C8E 00 00 00 00 00 00 00 00 00 00 
       00000C98 00 00 00 00 00 00 00 00 00 00 
       00000CA2 00 00 00 00 00 00 00 00 00 00 
       00000CAC 00 00 00 00 00 00 00 00 00 00 
       00000CB6 00 00 00 00 00 00 00 00 00 00 
       00000CC0 00 00 00 00 00 00 00 00 00 00 
       00000CCA 00 00 00 00 00 00 00 00 00 00 
       00000CD4 00 00 00 00 00 00 00 00 00 00 
       00000CDE 00 00 00 00 00 00 00 00 00 00 
       00000CE8 00 00 00 00 00 00 00 00 00 00 
       00000CF2 00 00 00 00 00 00 00 00 00 00 
       00000CFC 00 00 00 00 00 00 00 00 00 00 
       00000D06 00 00 00 00 00 00 00 00 00 00 
       00000D10 00 00 00 00 00 00 00 00 00 00 
       00000D1A 00 00 00 00 00 00 00 00 00 00 
       00000D24 00 00 00 00 00 00 00 00 00 00 
       00000D2E 00 00 00 00 00 00 00 00 00 00 
       00000D38 00 00 00 00 00 00 00 00 00 00 
       00000D42 00 00 00 00 00 00 00 00 00 00 
       00000D4C 00 00 00 00 00 00 00 00 00 00 
       00000D56 00 00 00 00 00 00 00 00 00 00 
       00000D60 00 00 00 00 00 00 00 00 00 00 
       00000D6A 00 00 00 00 00 00 00 00 00 00 
       00000D74 00 00 00 00 00 00 00 00 00 00 
       00000D7E 00 00 00 00 00 00 00 00 00 00 
       00000D88 00 00 00 00 00 00 00 00 00 00 
       00000D92 00 00 00 00 00 00 00 00 00 00 
       00000D9C 00 00 00 00 00 00 00 00 00 00 
       00000DA6 00 00 00 00 00 00 00 00 00 00 
       00000DB0 00 00 00 00 00 00 00 00 00 00 
       00000DBA 00 00 00 00 00 00 00 00 00 00 
       00000DC4 00 00 00 00 00 00 00 00 00 00 
       00000DCE 00 00 00 00 00 00 00 00 00 00 
       00000DD8 00 00 00 00 00 00 00 00 00 00 
       00000DE2 00 00 00 00 00 00 00 00 00 00 
       00000DEC 00 00 00 00 00 00 00 00 00 00 
       00000DF6 00 00 00 00 00 00 00 00 00 00 
       00000E00 00 00 00 00 00 00 00 00 00 00 
       00000E0A 00 00 00 00 00 00 00 00 00 00 
       00000E14 00 00 00 00 00 00 00 00 00 00 
       00000E1E 00 00 00 00 00 00 00 00 00 00 
       00000E28 00 00 00 00 00 00 00 00 00 00 
       00000E32 00 00 00 00 00 00 00 00 00 00 
       00000E3C 00 00 00 00 00 00 00 00 00 00 
       00000E46 00 00 00 00 00 00 00 00 00 00 
       00000E50 00 00 00 00 00 00 00 00 00 00 
       00000E5A 00 00 00 00 00 00 00 00 00 00 
       00000E64 00 00 00 00 00 00 00 00 00 00 
       00000E6E 00 00 00 00 00 00 00 00 00 00 
       00000E78 00 00 00 00 00 00 00 00 00 00 
       00000E82 00 00 00 00 00 00 00 00 00 00 
       00000E8C 00 00 00 00 00 00 00 00 00 00 
       00000E96 00 00 00 00 00 00 00 00 00 00 
       00000EA0 00 00 00 00 00 00 00 00 00 00 
       00000EAA 00 00 00 00 00 00 00 00 00 00 
       00000EB4 00 00 00 00 00 00 00 00 00 00 
       00000EBE 00 00 00 00 00 00 00 00 00 00 
       00000EC8 00 00 00 00 00 00 00 00 00 00 
       00000ED2 00 00 00 00 00 00 00 00 00 00 
       00000EDC 00 00 00 00 00 00 00 00 00 00 
       00000EE6 00 00 00 00 00 00 00 00 00 00 
       00000EF0 00 00 00 00 00 00 00 00 00 00 
       00000EFA 00 00 00 00 00 00 00 00 00 00 
       00000F04 00 00 00 00 00 00 00 00 00 00 
       00000F0E 00 00 00 00 00 00 00 00 00 00 
       00000F18 00 00 00 00 00 00 00 00 00 00 
       00000F22 00 00 00 00 00 00 00 00 00 00 
       00000F2C 00 00 00 00 00 00 00 00 00 00 
       00000F36 00 00 00 00 00 00 00 00 00 00 
       00000F40 00 00 00 00 00 00 00 00 00 00 
       00000F4A 00 00 00 00 00 00 00 00 00 00 
       00000F54 00 00 00 00 00 00 00 00 00 00 
       00000F5E 00 00 00 00 00 00 00 00 00 00 
       00000F68 00 00 00 00 00 00 00 00 00 00 
       00000F72 00 00 00 00 00 00 00 00 00 00 
       00000F7C 00 00 00 00 00 00 00 00 00 00 
       00000F86 00 00 00 00 00 00 00 00 00 00 
       00000F90 00 00 00 00 00 00 00 00 00 00 
       00000F9A 00 00 00 00 00 00 00 00 00 00 
       00000FA4 00 00 00 00 00 00 00 00 00 00 
       00000FAE 00 00 00 00 00 00 00 00 00 00 
       00000FB8 00 00 00 00 00 00 00 00 00 00 
       00000FC2 00 00 00 00 00 00 00 00 00 00 
       00000FCC 00 00 00 00 00 00 00 00 00 00 
       00000FD6 00 00 00 00 00 00 00 00 00 00 
       00000FE0 00 00 00 00 00 00 00 00 00 00 
       00000FEA 00 00 00 00 00 00 00 00 00 00 
       00000FF4 00 00 00 00 00 00 00 00 00 00 
       00000FFE 00 00 00 00 00 00 00 00 00 00 
       00001008 00 00 00 00 00 00 00 00 00 00 
       00001012 00 00 00 00 00 00 00 00 00 00 
       0000101C 00 00 00 00 00 00 00 00 00 00 
       00001026 00 00 00 00 00 00 00 00 00 00 
       00001030 00 00 00 00 00 00 00 00 00 00 
       0000103A 00 00 00 00 00 00 00 00 00 00 
       00001044 00 00 00 00 00 00 00 00 00 00 
       0000104E 00 00 00 00 00 00 00 00 00 00 
       00001058 00 00 00 00 00 00 00 00 00 00 
       00001062 00 00 00 00 00 00 00 00 00 00 
       0000106C 00 00 00 00 00 00 00 00 00 00 
       00001076 00 00 00 00 00 00 00 00 00 00 
       00001080 00 00 00 00 00 00 00 00 00 00 
       0000108A 00 00 00 00 00 00 00 00 00 00 
       00001094 00 00 00 00 00 00 00 00 00 00 
       0000109E 00 00 00 00 00 00 00 00 00 00 
       000010A8 00 00 00 00 00 00 00 00 00 00 
       000010B2 00 00 00 00 00 00 00 00 00 00 
       000010BC 00 00 00 00 00 00 00 00 00 00 
       000010C6 00 00 00 00 00 00 00 00 00 00 
       000010D0 00 00 00 00 00 00 00 00 00 00 
       000010DA 00 00 00 00 00 00 00 00 00 00 
       000010E4 00 00 00 00 00 00 00 00 00 00 
       000010EE 00 00 00 00 00 00 00 00 00 00 
       000010F8 00 00 00 00 00 00 00 00 00 00 
       00001102 00 00 00 00 00 00 00 00 00 00 
       0000110C 00 00 00 00 00 00 00 00 00 00 
       00001116 00 00 00 00 00 00 00 00 00 00 
       00001120 00 00 00 00 00 00 00 00 00 00 
       0000112A 00 00 00 00 00 00 00 00 00 00 
       00001134 00 00 00 00 00 00 00 00 00 00 
       0000113E 00 00 00 00 00 00 00 00 00 00 
       00001148 00 00 00 00 00 00 00 00 00 00 
       00001152 00 00 00 00 00 00 00 00 00 00 
       0000115C 00 00 00 00 00 00 00 00 00 00 
       00001166 00 00 00 00 00 00 00 00 00 00 
       00001170 00 00 00 00 00 00 00 00 00 00 
       0000117A 00 00 00 00 00 00 00 00 00 00 
       00001184 00 00 00 00 00 00 00 00 00 00 
       0000118E 00 00 00 00 00 00 00 00 00 00 
       00001198 00 00 00 00 00 00 00 00 00 00 
       000011A2 00 00 00 00 00 00 00 00 00 00 
       000011AC 00 00 00 00 00 00 00 00 00 00 
       000011B6 00 00 00 00 00 00 00 00 00 00 
       000011C0 00 00 00 00 00 00 00 00 00 00 
       000011CA 00 00 00 00 00 00 00 00 00 00 
       000011D4 00 00 00 00 00 00 00 00 00 00 
       000011DE 00 00 00 00 00 00 00 00 00 00 
       000011E8 00 00 00 00 00 00 00 00 00 00 
       000011F2 00 00 00 00 00 00 00 00 00 00 
       000011FC 00 00 00 00 00 00 00 00 00 00 
       00001206 00 00 00 00 00 00 00 00 00 00 
       00001210 00 00 00 00 00 00 00 00 00 00 
       0000121A 00 00 00 00 00 00 00 00 00 00 
       00001224 00 00 00 00 00 00 00 00 00 00 
       0000122E 00 00 00 00 00 00 00 00 00 00 
       00001238 00 00 00 00 00 00 00 00 00 00 
       00001242 00 00 00 00 00 00 00 00 00 00 
       0000124C 00 00 00 00 00 00 00 00 00 00 
       00001256 00 00 00 00 00 00 00 00 00 00 
       00001260 00 00 00 00 00 00 00 00 00 00 
       0000126A 00 00 00 00 00 00 00 00 00 00 
       00001274 00 00 00 00 00 00 00 00 00 00 
       0000127E 00 00 00 00 00 00 00 00 00 00 
       00001288 00 00 00 00 00 00 00 00 00 00 
       00001292 00 00 00 00 00 00 00 00 00 00 
       0000129C 00 00 00 00 00 00 00 00 00 00 
       000012A6 00 00 00 00 00 00 00 00 00 00 
       000012B0 00 00 00 00 00 00 00 00 00 00 
       000012BA 00 00 00 00 00 00 00 00 00 00 
       000012C4 00 00 00 00 00 00 00 00 00 00 
       000012CE 00 00 00 00 00 00 00 00 00 00 
       000012D8 00 00 00 00 00 00 00 00 00 00 
       000012E2 00 00 00 00 00 00 00 00 00 00 
       000012EC 00 00 00 00 00 00 00 00 00 00 
       000012F6 00 00 00 00 00 00 00 00 00 00 
       00001300 00 00 00 00 00 00 00 00 00 00 
       0000130A 00 00 00 00 00 00 00 00 00 00 
       00001314 00 00 00 00 00 00 00 00 00 00 
       0000131E 00 00 00 00 00 00 00 00 00 00 
       00001328 00 00 00 00 00 00 00 00 00 00 
       00001332 00 00 00 00 00 00 00 00 00 00 
       0000133C 00 00 00 00 00 00 00 00 00 00 
       00001346 00 00 00 00 00 00 00 00 00 00 
       00001350 00 00 00 00 00 00 00 00 00 00 
       0000135A 00 00 00 00 00 00 00 00 00 00 
       00001364 00 00 00 00 00 00 00 00 00 00 
       0000136E 00 00 00 00 00 00 00 00 00 00 
       00001378 00 00 00 00 00 00 00 00 00 00 
       00001382 00 00 00 00 00 00 00 00 00 00 
       0000138C 00 00 00 00 00 00 00 00 00 00 
       00001396 00 00 00 00 00 00 00 00 00 00 
       000013A0 00 00 00 00 00 00 00 00 00 00 
       000013AA 00 00 00 00 00 00 00 00 00 00 
       000013B4 00 00 00 00 00 00 00 00 00 00 
       000013BE 00 00 00 00 00 00 00 00 00 00 
       000013C8 00 00 00 00 00 00 00 00 00 00 
       000013D2 00 00 00 00 00 00 00 00 00 00 
       000013DC 00 00 00 00 00 00 00 00 00 00 
       000013E6 00 00 00 00 00 00 00 00 00 00 
       000013F0 00 00 00 00 00 00 00 00 00 00 
       000013FA 00 00 00 00 00 00 00 00 00 00 
       00001404 00 00 00 00 00 00 00 00 00 00 
       0000140E 00 00 00 00 00 00 00 00 00 00 
       00001418 00 00 00 00 00 00 00 00 00 00 
       00001422 00 00 00 00 00 00 00 00 00 00 
       0000142C 00 00 00 00 00 00 00 00 00 00 
       00001436 00 00 00 00 00 00 00 00 00 00 
       00001440 00 00 00 00 00 00 00 00 00 00 
       0000144A 00 00 00 00 00 00 00 00 00 00 
       00001454 00 00 00 00 00 00 00 00 00 00 
       0000145E 00 00 00 00 00 00 00 00 00 00 
       00001468 00 00 00 00 00 00 00 00 00 00 
       00001472 00 00 00 00 00 00 00 00 00 00 
       0000147C 00 00 00 00 00 00 00 00 00 00 
       00001486 00 00 00 00 00 00 00 00 00 00 
       00001490 00 00 00 00 00 00 00 00 00 00 
       0000149A 00 00 00 00 00 00 00 00 00 00 
       000014A4 00 00 00 00 00 00 00 00 00 00 
       000014AE 00 00 00 00 00 00 00 00 00 00 
       000014B8 00 00 00 00 00 00 00 00 00 00 
       000014C2 00 00 00 00 00 00 00 00 00 00 
       000014CC 00 00 00 00 00 00 00 00 00 00 
       000014D6 00 00 00 00 00 00 00 00 00 00 
       000014E0 00 00 00 00 00 00 00 00 00 00 
       000014EA 00 00 00 00 00 00 00 00 00 00 
       000014F4 00 00 00 00 00 00 00 00 00 00 
       000014FE 00 00 00 00 00 00 00 00 00 00 
       00001508 00 00 00 00 00 00 00 00 00 00 
       00001512 00 00 00 00 00 00 00 00 00 00 
       0000151C 00 00 00 00 00 00 00 00 00 00 
       00001526 00 00 00 00 00 00 00 00 00 00 
       00001530 00 00 00 00 00 00 00 00 00 00 
       0000153A 00 00 00 00 00 00 00 00 00 00 
       00001544 00 00 00 00 00 00 00 00 00 00 
       0000154E 00 00 00 00 00 00 00 00 00 00 
       00001558 00 00 00 00 00 00 00 00 00 00 
       00001562 00 00 00 00 00 00 00 00 00 00 
       0000156C 00 00 00 00 00 00 00 00 00 00 
       00001576 00 00 00 00 00 00 00 00 00 00 
       00001580 00 00 00 00 00 00 00 00 00 00 
       0000158A 00 00 00 00 00 00 00 00 00 00 
       00001594 00 00 00 00 00 00 00 00 00 00 
       0000159E 00 00 00 00 00 00 00 00 00 00 
       000015A8 00 00 00 00 00 00 00 00 00 00 
       000015B2 00 00 00 00 00 00 00 00 00 00 
       000015BC 00 00 00 00 00 00 00 00 00 00 
       000015C6 00 00 00 00 00 00 00 00 00 00 
       000015D0 00 00 00 00 00 00 00 00 00 00 
       000015DA 00 00 00 00 00 00 00 00 00 00 
       000015E4 00 00 00 00 00 00 00 00 00 00 
       000015EE 00 00 00 00 00 00 00 00 00 00 
       000015F8 00 00 00 00 00 00 00 00 00 00 
       00001602 00 00 00 00 00 00 00 00 00 00 
       0000160C 00 00 00 00 00 00 00 00 00 00 
       00001616 00 00 00 00 00 00 00 00 00 00 
       00001620 00 00 00 00 00 00 00 00 00 00 
       0000162A 00 00 00 00 00 00 00 00 00 00 
       00001634 00 00 00 00 00 00 00 00 00 00 
       0000163E 00 00 00 00 00 00 00 00 00 00 
       00001648 00 00 00 00 00 00 00 00 00 00 
       00001652 00 00 00 00 00 00 00 00 00 00 
       0000165C 00 00 00 00 00 00 00 00 00 00 
       00001666 00 00 00 00 00 00 00 00 00 00 
       00001670 00 00 00 00 00 00 00 00 00 00 
       0000167A 00 00 00 00 00 00 00 00 00 00 
       00001684 00 00 00 00 00 00 00 00 00 00 
       0000168E 00 00 00 00 00 00 00 00 00 00 
       00001698 00 00 00 00 00 00 00 00 00 00 
       000016A2 00 00 00 00 00 00 00 00 00 00 
       000016AC 00 00 00 00 00 00 00 00 00 00 
       000016B6 00 00 00 00 00 00 00 00 00 00 
       000016C0 00 00 00 00 00 00 00 00 00 00 
       000016CA 00 00 00 00 00 00 00 00 00 00 
       000016D4 00 00 00 00 00 00 00 00 00 00 
       000016DE 00 00 00 00 00 00 00 00 00 00 
       000016E8 00 00 00 00 00 00 00 00 00 00 
       000016F2 00 00 00 00 00 00 00 00 00 00 
       000016FC 00 00 00 00 00 00 00 00 00 00 
       00001706 00 00 00 00 00 00 00 00 00 00 
       00001710 00 00 00 00 00 00 00 00 00 00 
       0000171A 00 00 00 00 00 00 00 00 00 00 
       00001724 00 00 00 00 00 00 00 00 00 00 
       0000172E 00 00 00 00 00 00 00 00 00 00 
       00001738 00 00 00 00 00 00 00 00 00 00 
       00001742 00 00 00 00 00 00 00 00 00 00 
       0000174C 00 00 00 00 00 00 00 00 00 00 
       00001756 00 00 00 00 00 00 00 00 00 00 
       00001760 00 00 00 00 00 00 00 00 00 00 
       0000176A 00 00 00 00 00 00 00 00 00 00 
       00001774 00 00 00 00 00 00 00 00 00 00 
       0000177E 00 00 00 00 00 00 00 00 00 00 
       00001788 00 00 00 00 00 00 00 00 00 00 
       00001792 00 00 00 00 00 00 00 00 00 00 
       0000179C 00 00 00 00 00 00 00 00 00 00 
       000017A6 00 00 00 00 00 00 00 00 00 00 
       000017B0 00 00 00 00 00 00 00 00 00 00 
       000017BA 00 00 00 00 00 00 00 00 00 00 
       000017C4 00 00 00 00 00 00 00 00 00 00 
       000017CE 00 00 00 00 00 00 00 00 00 00 
       000017D8 00 00 00 00 00 00 00 00 00 00 
       000017E2 00 00 00 00 00 00 00 00 00 00 
       000017EC 00 00 00 00 00 00 00 00 00 00 
       000017F6 00 00 00 00 00 00 00 00 00 00 
       00001800 00 00 00 00 00 00 00 00 00 00 
       0000180A 00 00 00 00 00 00 00 00 00 00 
       00001814 00 00 00 00 00 00 00 00 00 00 
       0000181E 00 00 00 00 00 00 00 00 00 00 
       00001828 00 00 00 00 00 00 00 00 00 00 
       00001832 00 00 00 00 00 00 00 00 00 00 
       0000183C 00 00 00 00 00 00 00 00 00 00 
       00001846 00 00 00 00 00 00 00 00 00 00 
       00001850 00 00 00 00 00 00 00 00 00 00 
       0000185A 00 00 00 00 00 00 00 00 00 00 
       00001864 00 00 00 00 00 00 00 00 00 00 
       0000186E 00 00 00 00 00 00 00 00 00 00 
       00001878 00 00 00 00 00 00 00 00 00 00 
       00001882 00 00 00 00 00 00 00 00 00 00 
       0000188C 00 00 00 00 00 00 00 00 00 00 
       00001896 00 00 00 00 00 00 00 00 00 00 
       000018A0 00 00 00 00 00 00 00 00 00 00 
       000018AA 00 00 00 00 00 00 00 00 00 00 
       000018B4 00 00 00 00 00 00 00 00 00 00 
       000018BE 00 00 00 00 00 00 00 00 00 00 
       000018C8 00 00 00 00 00 00 00 00 00 00 
       000018D2 00 00 00 00 00 00 00 00 00 00 
       000018DC 00 00 00 00 00 00 00 00 00 00 
       000018E6 00 00 00 00 00 00 00 00 00 00 
       000018F0 00 00 00 00 00 00 00 00 00 00 
       000018FA 00 00 00 00 00 00 00 00 00 00 
       00001904 00 00 00 00 00 00 00 00 00 00 
       0000190E 00 00 00 00 00 00 00 00 00 00 
       00001918 00 00 00 00 00 00 00 00 00 00 
       00001922 00 00 00 00 00 00 00 00 00 00 
       0000192C 00 00 00 00 00 00 00 00 00 00 
       00001936 00 00 00 00 00 00 00 00 00 00 
       00001940 00 00 00 00 00 00 00 00 00 00 
       0000194A 00 00 00 00 00 00 00 00 00 00 
       00001954 00 00 00 00 00 00 00 00 00 00 
       0000195E 00 00 00 00 00 00 00 00 00 00 
       00001968 00 00 00 00 00 00 00 00 00 00 
       00001972 00 00 00 00 00 00 00 00 00 00 
       0000197C 00 00 00 00 00 00 00 00 00 00 
       00001986 00 00 00 00 00 00 00 00 00 00 
       00001990 00 00 00 00 00 00 00 00 00 00 
       0000199A 00 00 00 00 00 00 00 00 00 00 
       000019A4 00 00 00 00 00 00 00 00 00 00 
       000019AE 00 00 00 00 00 00 00 00 00 00 
       000019B8 00 00 00 00 00 00 00 00 00 00 
       000019C2 00 00 00 00 00 00 00 00 00 00 
       000019CC 00 00 00 00 00 00 00 00 00 00 
       000019D6 00 00 00 00 00 00 00 00 00 00 
       000019E0 00 00 00 00 00 00 00 00 00 00 
       000019EA 00 00 00 00 00 00 00 00 00 00 
       000019F4 00 00 00 00 00 00 00 00 00 00 
       000019FE 00 00 00 00 00 00 00 00 00 00 
       00001A08 00 00 00 00 00 00 00 00 00 00 
       00001A12 00 00 00 00 00 00 00 00 00 00 
       00001A1C 00 00 00 00 00 00 00 00 00 00 
       00001A26 00 00 00 00 00 00 00 00 00 00 
       00001A30 00 00 00 00 00 00 00 00 00 00 
       00001A3A 00 00 00 00 00 00 00 00 00 00 
       00001A44 00 00 00 00 00 00 00 00 00 00 
       00001A4E 00 00 00 00 00 00 00 00 00 00 
       00001A58 00 00 00 00 00 00 00 00 00 00 
       00001A62 00 00 00 00 00 00 00 00 00 00 
       00001A6C 00 00 00 00 00 00 00 00 00 00 
       00001A76 00 00 00 00 00 00 00 00 00 00 
       00001A80 00 00 00 00 00 00 00 00 00 00 
       00001A8A 00 00 00 00 00 00 00 00 00 00 
       00001A94 00 00 00 00 00 00 00 00 00 00 
       00001A9E 00 00 00 00 00 00 00 00 00 00 
       00001AA8 00 00 00 00 00 00 00 00 00 00 
       00001AB2 00 00 00 00 00 00 00 00 00 00 
       00001ABC 00 00 00 00 00 00 00 00 00 00 
       00001AC6 00 00 00 00 00 00 00 00 00 00 
       00001AD0 00 00 00 00 00 00 00 00 00 00 
       00001ADA 00 00 00 00 00 00 00 00 00 00 
       00001AE4 00 00 00 00 00 00 00 00 00 00 
       00001AEE 00 00 00 00 00 00 00 00 00 00 
       00001AF8 00 00 00 00 00 00 00 00 00 00 
       00001B02 00 00 00 00 00 00 00 00 00 00 
       00001B0C 00 00 00 00 00 00 00 00 00 00 
       00001B16 00 00 00 00 00 00 00 00 00 00 
       00001B20 00 00 00 00 00 00 00 00 00 00 
       00001B2A 00 00 00 00 00 00 00 00 00 00 
       00001B34 00 00 00 00 00 00 00 00 00 00 
       00001B3E 00 00 00 00 00 00 00 00 00 00 
       00001B48 00 00 00 00 00 00 00 00 00 00 
       00001B52 00 00 00 00 00 00 00 00 00 00 
       00001B5C 00 00 00 00 00 00 00 00 00 00 
       00001B66 00 00 00 00 00 00 00 00 00 00 
       00001B70 00 00 00 00 00 00 00 00 00 00 
       00001B7A 00 00 00 00 00 00 00 00 00 00 
       00001B84 00 00 00 00 00 00 00 00 00 00 
       00001B8E 00 00 00 00 00 00 00 00 00 00 
       00001B98 00 00 00 00 00 00 00 00 00 00 
       00001BA2 00 00 00 00 00 00 00 00 00 00 
       00001BAC 00 00 00 00 00 00 00 00 00 00 
       00001BB6 00 00 00 00 00 00 00 00 00 00 
       00001BC0 00 00 00 00 00 00 00 00 00 00 
       00001BCA 00 00 00 00 00 00 00 00 00 00 
       00001BD4 00 00 00 00 00 00 00 00 00 00 
       00001BDE 00 00 00 00 00 00 00 00 00 00 
       00001BE8 00 00 00 00 00 00 00 00 00 00 
       00001BF2 00 00 00 00 00 00 00 00 00 00 
       00001BFC 00 00 00 00 00 00 00 00 00 00 
       00001C06 00 00 00 00 00 00 00 00 00 00 
       00001C10 00 00 00 00 00 00 00 00 00 00 
       00001C1A 00 00 00 00 00 00 00 00 00 00 
       00001C24 00 00 00 00 00 00 00 00 00 00 
       00001C2E 00 00 00 00 00 00 00 00 00 00 
       00001C38 00 00 00 00 00 00 00 00 00 00 
       00001C42 00 00 00 00 00 00 00 00 00 00 
       00001C4C 00 00 00 00 00 00 00 00 00 00 
       00001C56 00 00 00 00 00 00 00 00 00 00 
       00001C60 00 00 00 00 00 00 00 00 00 00 
       00001C6A 00 00 00 00 00 00 00 00 00 00 
       00001C74 00 00 00 00 00 00 00 00 00 00 
       00001C7E 00 00 00 00 00 00 00 00 00 00 
       00001C88 00 00 00 00 00 00 00 00 00 00 
       00001C92 00 00 00 00 00 00 00 00 00 00 
       00001C9C 00 00 00 00 00 00 00 00 00 00 
       00001CA6 00 00 00 00 00 00 00 00 00 00 
       00001CB0 00 00 00 00 00 00 00 00 00 00 
       00001CBA 00 00 00 00 00 00 00 00 00 00 
       00001CC4 00 00 00 00 00 00 00 00 00 00 
       00001CCE 00 00 00 00 00 00 00 00 00 00 
       00001CD8 00 00 00 00 00 00 00 00 00 00 
       00001CE2 00 00 00 00 00 00 00 00 00 00 
       00001CEC 00 00 00 00 00 00 00 00 00 00 
       00001CF6 00 00 00 00 00 00 00 00 00 00 
       00001D00 00 00 00 00 00 00 00 00 00 00 
       00001D0A 00 00 00 00 00 00 00 00 00 00 
       00001D14 00 00 00 00 00 00 00 00 00 00 
       00001D1E 00 00 00 00 00 00 00 00 00 00 
       00001D28 00 00 00 00 00 00 00 00 00 00 
       00001D32 00 00 00 00 00 00 00 00 00 00 
       00001D3C 00 00 00 00 00 00 00 00 00 00 
       00001D46 00 00 00 00 00 00 00 00 00 00 
       00001D50 00 00 00 00 00 00 00 00 00 00 
       00001D5A 00 00 00 00 00 00 00 00 00 00 
       00001D64 00 00 00 00 00 00 00 00 00 00 
       00001D6E 00 00 00 00 00 00 00 00 00 00 
       00001D78 00 00 00 00 00 00 00 00 00 00 
       00001D82 00 00 00 00 00 00 00 00 00 00 
       00001D8C 00 00 00 00 00 00 00 00 00 00 
       00001D96 00 00 00 00 00 00 00 00 00 00 
       00001DA0 00 00 00 00 00 00 00 00 00 00 
       00001DAA 00 00 00 00 00 00 00 00 00 00 
       00001DB4 00 00 00 00 00 00 00 00 00 00 
       00001DBE 00 00 00 00 00 00 00 00 00 00 
       00001DC8 00 00 00 00 00 00 00 00 00 00 
       00001DD2 00 00 00 00 00 00 00 00 00 00 
       00001DDC 00 00 00 00 00 00 00 00 00 00 
       00001DE6 00 00 00 00 00 00 00 00 00 00 
       00001DF0 00 00 00 00 00 00 00 00 00 00 
       00001DFA 00 00 00 00 00 00 00 00 00 00 
       00001E04 00 00 00 00 00 00 00 00 00 00 
       00001E0E 00 00 00 00 00 00 00 00 00 00 
       00001E18 00 00 00 00 00 00 00 00 00 00 
       00001E22 00 00 00 00 00 00 00 00 00 00 
       00001E2C 00 00 00 00 00 00 00 00 00 00 
       00001E36 00 00 00 00 00 00 00 00 00 00 
       00001E40 00 00 00 00 00 00 00 00 00 00 
       00001E4A 00 00 00 00 00 00 00 00 00 00 
       00001E54 00 00 00 00 00 00 00 00 00 00 
       00001E5E 00 00 00 00 00 00 00 00 00 00 
       00001E68 00 00 00 00 00 00 00 00 00 00 
       00001E72 00 00 00 00 00 00 00 00 00 00 
       00001E7C 00 00 00 00 00 00 00 00 00 00 
       00001E86 00 00 00 00 00 00 00 00 00 00 
       00001E90 00 00 00 00 00 00 00 00 00 00 
       00001E9A 00 00 00 00 00 00 00 00 00 00 
       00001EA4 00 00 00 00 00 00 00 00 00 00 
       00001EAE 00 00 00 00 00 00 00 00 00 00 
       00001EB8 00 00 00 00 00 00 00 00 00 00 
       00001EC2 00 00 00 00 00 00 00 00 00 00 
       00001ECC 00 00 00 00 00 00 00 00 00 00 
       00001ED6 00 00 00 00 00 00 00 00 00 00 
       00001EE0 00 00 00 00 00 00 00 00 00 00 
       00001EEA 00 00 00 00 00 00 00 00 00 00 
       00001EF4 00 00 00 00 00 00 00 00 00 00 
       00001EFE 00 00 00 00 00 00 00 00 00 00 
       00001F08 00 00 00 00 00 00 00 00 00 00 
       00001F12 00 00 00 00 00 00 00 00 00 00 
       00001F1C 00 00 00 00 00 00 00 00 00 00 
       00001F26 00 00 00 00 00 00 00 00 00 00 
       00001F30 00 00 00 00 00 00 00 00 00 00 
       00001F3A 00 00 00 00 00 00 00 00 00 00 
       00001F44 00 00 00 00 00 00 00 00 00 00 
       00001F4E 00 00 00 00 00 00 00 00 00 00 
       00001F58 00 00 00 00 00 00 00 00 00 00 
       00001F62 00 00 00 00 00 00 00 00 00 00 
       00001F6C 00 00 00 00 00 00 00 00 00 00 
       00001F76 00 00 00 00 00 00 00 00 00 00 
       00001F80 00 00 00 00 00 00 00 00 00 00 
       00001F8A 00 00 00 00 00 00 00 00 00 00 
       00001F94 00 00 00 00 00 00 00 00 00 00 
       00001F9E 00 00 00 00 00 00 00 00 00 00 
       00001FA8 00 00 00 00 00 00 00 00 00 00 
       00001FB2 00 00 00 00 00 00 00 00 00 00 
       00001FBC 00 00 00 00 00 00 00 00 00 00 
       00001FC6 00 00 00 00 00 00 00 00 00 00 
       00001FD0 00 00 00 00 00 00 00 00 00 00 
       00001FDA 00 00 00 00 00 00 00 00 00 00 
       00001FE4 00 00 00 00 00 00 00 00 00 00 
       00001FEE 00 00 00 00 00 00 00 00 00 00 
       00001FF8 00 00 00 00 00 00 00 00 00 00 
       00002002 00 00 00 00 00 00 00 00 00 00 
       0000200C 00 00 00 00 00 00 00 00 00 00 
       00002016 00 00 00 00 00 00 00 00 00 00 
       00002020 00 00 00 00 00 00 00 00 00 00 
       0000202A 00 00 00 00 00 00 00 00 00 00 
       00002034 00 00 00 00 00 00 00 00 00 00 
       0000203E 00 00 00 00 00 00 00 00 00 00 
       00002048 00 00 00 00 00 00 00 00 00 00 
       00002052 00 00 00 00 00 00 00 00 00 00 
       0000205C 00 00 00 00 00 00 00 00 00 00 
       00002066 00 00 00 00 00 00 00 00 00 00 
       00002070 00 00 00 00 00 00 00 00 00 00 
       0000207A 00 00 00 00 00 00 00 00 00 00 
       00002084 00 00 00 00 00 00 00 00 00 00 
       0000208E 00 00 00 00 00 00 00 00 00 00 
       00002098 00 00 00 00 00 00 00 00 00 00 
       000020A2 00 00 00 00 00 00 00 00 00 00 
       000020AC 00 00 00 00 00 00 00 00 00 00 
       000020B6 00 00 00 00 00 00 00 00 00 00 
       000020C0 00 00 00 00 00 00 00 00 00 00 
       000020CA 00 00 00 00 00 00 00 00 00 00 
       000020D4 00 00 00 00 00 00 00 00 00 00 
       000020DE 00 00 00 00 00 00 00 00 00 00 
       000020E8 00 00 00 00 00 00 00 00 00 00 
       000020F2 00 00 00 00 00 00 00 00 00 00 
       000020FC 00 00 00 00 00 00 00 00 00 00 
       00002106 00 00 00 00 00 00 00 00 00 00 
       00002110 00 00 00 00 00 00 00 00 00 00 
       0000211A 00 00 00 00 00 00 00 00 00 00 
       00002124 00 00 00 00 00 00 00 00 00 00 
       0000212E 00 00 00 00 00 00 00 00 00 00 
       00002138 00 00 00 00 00 00 00 00 00 00 
       00002142 00 00 00 00 00 00 00 00 00 00 
       0000214C 00 00 00 00 00 00 00 00 00 00 
       00002156 00 00 00 00 00 00 00 00 00 00 
       00002160 00 00 00 00 00 00 00 00 00 00 
       0000216A 00 00 00 00 00 00 00 00 00 00 
       00002174 00 00 00 00 00 00 00 00 00 00 
       0000217E 00 00 00 00 00 00 00 00 00 00 
       00002188 00 00 00 00 00 00 00 00 00 00 
       00002192 00 00 00 00 00 00 00 00 00 00 
       0000219C 00 00 00 00 00 00 00 00 00 00 
       000021A6 00 00 00 00 00 00 00 00 00 00 
       000021B0 00 00 00 00 00 00 00 00 00 00 
       000021BA 00 00 00 00 00 00 00 00 00 00 
       000021C4 00 00 00 00 00 00 00 00 00 00 
       000021CE 00 00 00 00 00 00 00 00 00 00 
       000021D8 00 00 00 00 00 00 00 00 00 00 
       000021E2 00 00 00 00 00 00 00 00 00 00 
       000021EC 00 00 00 00 00 00 00 00 00 00 
       000021F6 00 00 00 00 00 00 00 00 00 00 
       00002200 00 00 00 00 00 00 00 00 00 00 
       0000220A 00 00 00 00 00 00 00 00 00 00 
       00002214 00 00 00 00 00 00 00 00 00 00 
       0000221E 00 00 00 00 00 00 00 00 00 00 
       00002228 00 00 00 00 00 00 00 00 00 00 
       00002232 00 00 00 00 00 00 00 00 00 00 
       0000223C 00 00 00 00 00 00 00 00 00 00 
       00002246 00 00 00 00 00 00 00 00 00 00 
       00002250 00 00 00 00 00 00 00 00 00 00 
       0000225A 00 00 00 00 00 00 00 00 00 00 
       00002264 00 00 00 00 00 00 00 00 00 00 
       0000226E 00 00 00 00 00 00 00 00 00 00 
       00002278 00 00 00 00 00 00 00 00 00 00 
       00002282 00 00 00 00 00 00 00 00 00 00 
       0000228C 00 00 00 00 00 00 00 00 00 00 
       00002296 00 00 00 00 00 00 00 00 00 00 
       000022A0 00 00 00 00 00 00 00 00 00 00 
       000022AA 00 00 00 00 00 00 00 00 00 00 
       000022B4 00 00 00 00 00 00 00 00 00 00 
       000022BE 00 00 00 00 00 00 00 00 00 00 
       000022C8 00 00 00 00 00 00 00 00 00 00 
       000022D2 00 00 00 00 00 00 00 00 00 00 
       000022DC 00 00 00 00 00 00 00 00 00 00 
       000022E6 00 00 00 00 00 00 00 00 00 00 
       000022F0 00 00 00 00 00 00 00 00 00 00 
       000022FA 00 00 00 00 00 00 00 00 00 00 
       00002304 00 00 00 00 00 00 00 00 00 00 
       0000230E 00 00 00 00 00 00 00 00 00 00 
       00002318 00 00 00 00 00 00 00 00 00 00 
       00002322 00 00 00 00 00 00 00 00 00 00 
       0000232C 00 00 00 00 00 00 00 00 00 00 
       00002336 00 00 00 00 00 00 00 00 00 00 
       00002340 00 00 00 00 00 00 00 00 00 00 
       0000234A 00 00 00 00 00 00 00 00 00 00 
       00002354 00 00 00 00 00 00 00 00 00 00 
       0000235E 00 00 00 00 00 00 00 00 00 00 
       00002368 00 00 00 00 00 00 00 00 00 00 
       00002372 00 00 00 00 00 00 00 00 00 00 
       0000237C 00 00 00 00 00 00 00 00 00 00 
       00002386 00 00 00 00 00 00 00 00 00 00 
       00002390 00 00 00 00 00 00 00 00 00 00 
       0000239A 00 00 00 00 00 00 00 00 00 00 
       000023A4 00 00 00 00 00 00 00 00 00 00 
       000023AE 00 00 00 00 00 00 00 00 00 00 
       000023B8 00 00 00 00 00 00 00 00 00 00 
       000023C2 00 00 00 00 00 00 00 00 00 00 
       000023CC 00 00 00 00 00 00 00 00 00 00 
       000023D6 00 00 00 00 00 00 00 00 00 00 
       000023E0 00 00 00 00 00 00 00 00 00 00 
       000023EA 00 00 00 00 00 00 00 00 00 00 
       000023F4 00 00 00 00 00 00 00 00 00 00 
       000023FE 00 00 00 00 00 00 00 00 00 00 
       00002408 00 00 00 00 00 00 00 00 00 00 
       00002412 00 00 00 00 00 00 00 00 00 00 
       0000241C 00 00 00 00 00 00 00 00 00 00 
       00002426 00 00 00 00 00 00 00 00 00 00 
       00002430 00 00 00 00 00 00 00 00 00 00 
       0000243A 00 00 00 00 00 00 00 00 00 00 
       00002444 00 00 00 00 00 00 00 00 00 00 
       0000244E 00 00 00 00 00 00 00 00 00 00 
       00002458 00 00 00 00 00 00 00 00 00 00 
       00002462 00 00 00 00 00 00 00 00 00 00 
       0000246C 00 00 00 00 00 00 00 00 00 00 
       00002476 00 00 00 00 00 00 00 00 00 00 
       00002480 00 00 00 00 00 00 00 00 00 00 
       0000248A 00 00 00 00 00 00 00 00 00 00 
       00002494 00 00 00 00 00 00 00 00 00 00 
       0000249E 00 00 00 00 00 00 00 00 00 00 
       000024A8 00 00 00 00 00 00 00 00 00 00 
       000024B2 00 00 00 00 00 00 00 00 00 00 
       000024BC 00 00 00 00 00 00 00 00 00 00 
       000024C6 00 00 00 00 00 00 00 00 00 00 
       000024D0 00 00 00 00 00 00 00 00 00 00 
       000024DA 00 00 00 00 00 00 00 00 00 00 
       000024E4 00 00 00 00 00 00 00 00 00 00 
       000024EE 00 00 00 00 00 00 00 00 00 00 
       000024F8 00 00 00 00 00 00 00 00 00 00 
       00002502 00 00 00 00 00 00 00 00 00 00 
       0000250C 00 00 00 00 00 00 00 00 00 00 
       00002516 00 00 00 00 00 00 00 00 00 00 
       00002520 00 00 00 00 00 00 00 00 00 00 
       0000252A 00 00 00 00 00 00 00 00 00 00 
       00002534 00 00 00 00 00 00 00 00 00 00 
       0000253E 00 00 00 00 00 00 00 00 00 00 
       00002548 00 00 00 00 00 00 00 00 00 00 
       00002552 00 00 00 00 00 00 00 00 00 00 
       0000255C 00 00 00 00 00 00 00 00 00 00 
       00002566 00 00 00 00 00 00 00 00 00 00 
       00002570 00 00 00 00 00 00 00 00 00 00 
       0000257A 00 00 00 00 00 00 00 00 00 00 
       00002584 00 00 00 00 00 00 00 00 00 00 
       0000258E 00 00 00 00 00 00 00 00 00 00 
       00002598 00 00 00 00 00 00 00 00 00 00 
       000025A2 00 00 00 00 00 00 00 00 00 00 
       000025AC 00 00 00 00 00 00 00 00 00 00 
       000025B6 00 00 00 00 00 00 00 00 00 00 
       000025C0 00 00 00 00 00 00 00 00 00 00 
       000025CA 00 00 00 00 00 00 00 00 00 00 
       000025D4 00 00 00 00 00 00 00 00 00 00 
       000025DE 00 00 00 00 00 00 00 00 00 00 
       000025E8 00 00 00 00 00 00 00 00 00 00 
       000025F2 00 00 00 00 00 00 00 00 00 00 
       000025FC 00 00 00 00 00 00 00 00 00 00 
       00002606 00 00 00 00 00 00 00 00 00 00 
       00002610 00 00 00 00 00 00 00 00 00 00 
       0000261A 00 00 00 00 00 00 00 00 00 00 
       00002624 00 00 00 00 00 00 00 00 00 00 
       0000262E 00 00 00 00 00 00 00 00 00 00 
       00002638 00 00 00 00 00 00 00 00 00 00 
       00002642 00 00 00 00 00 00 00 00 00 00 
       0000264C 00 00 00 00 00 00 00 00 00 00 
       00002656 00 00 00 00 00 00 00 00 00 00 
       00002660 00 00 00 00 00 00 00 00 00 00 
       0000266A 00 00 00 00 00 00 00 00 00 00 
       00002674 00 00 00 00 00 00 00 00 00 00 
       0000267E 00 00 00 00 00 00 00 00 00 00 
       00002688 00 00 00 00 00 00 00 00 00 00 
       00002692 00 00 00 00 00 00 00 00 00 00 
       0000269C 00 00 00 00 00 00 00 00 00 00 
       000026A6 00 00 00 00 00 00 00 00 00 00 
       000026B0 00 00 00 00 00 00 00 00 00 00 
       000026BA 00 00 00 00 00 00 00 00 00 00 
       000026C4 00 00 00 00 00 00 00 00 00 00 
       000026CE 00 00 00 00 00 00 00 00 00 00 
       000026D8 00 00 00 00 00 00 00 00 00 00 
       000026E2 00 00 00 00 00 00 00 00 00 00 
       000026EC 00 00 00 00 00 00 00 00 00 00 
       000026F6 00 00 00 00 00 00 00 00 00 00 
       00002700 00 00 00 00 00 00 00 00 00 00 
       0000270A 00 00 00 00 00 00 00 00 00 00 
       00002714 00 00 00 00 00 00 00 00 00 00 
       0000271E 00 00 00 00 00 00 00 00 00 00 
       00002728 00 00 00 00 00 00 00 00 00 00 
       00002732 00 00 00 00 00 00 00 00 00 00 
       0000273C 00 00 00 00 00 00 00 00 00 00 
       00002746 00 00 00 00 00 00 00 00 00 00 
       00002750 00 00 00 00 00 00 00 00 00 00 
       0000275A 00 00 00 00 00 00 00 00 00 00 
       00002764 00 00 00 00 00 00 00 00 00 00 
       0000276E 00 00 00 00 00 00 00 00 00 00 
       00002778 00 00 00 00 00 00 00 00 00 00 
       00002782 00 00 00 00 00 00 00 00 00 00 
       0000278C 00 00 00 00 00 00 00 00 00 00 
       00002796 00 00 00 00 00 00 00 00 00 00 
       000027A0 00 00 00 00 00 00 00 00 00 00 
       000027AA 00 00 00 00 00 00 00 00 00 00 
       000027B4 00 00 00 00 00 00 00 00 00 00 
       000027BE 00 00 00 00 00 00 00 00 00 00 
       000027C8 00 00 00 00 00 00 00 00 00 00 
       000027D2 00 00 00 00 00 00 00 00 00 00 
       000027DC 00 00 00 00 00 00 00 00 00 00 
       000027E6 00 00 00 00 00 00 00 00 00 00 
       000027F0 00 00 00 00 00 00 00 00 00 00 
       000027FA 00 00 00 00 00 00 00 00 00 00 
       00002804 00 00 00 00 00 00 00 00 00 00 
       0000280E 00 00 00 00 00 00 00 00 00 00 
       00002818 00 00 00 00 00 00 00 00 00 00 
       00002822 00 00 00 00 00 00 00 00 00 00 
       0000282C 00 00 00 00 00 00 00 00 00 00 
       00002836 00 00 00 00 00 00 00 00 00 00 
       00002840 00 00 00 00 00 00 00 00 00 00 
       0000284A 00 00 00 00 00 00 00 00 00 00 
       00002854 00 00 00 00 00 00 00 00 00 00 
       0000285E 00 00 00 00 00 00 00 00 00 00 
       00002868 00 00 00 00 00 00 00 00 00 00 
       00002872 00 00 00 00 00 00 00 00 00 00 
       0000287C 00 00 00 00 00 00 00 00 00 00 
       00002886 00 00 00 00 00 00 00 00 00 00 
       00002890 00 00 00 00 00 00 00 00 00 00 
       0000289A 00 00 00 00 00 00 00 00 00 00 
       000028A4 00 00 00 00 00 00 00 00 00 00 
       000028AE 00 00 00 00 00 00 00 00 00 00 
       000028B8 00 00 00 00 00 00 00 00 00 00 
       000028C2 00 00 00 00 00 00 00 00 00 00 
       000028CC 00 00 00 00 00 00 00 00 00 00 
       000028D6 00 00 00 00 00 00 00 00 00 00 
       000028E0 00 00 00 00 00 00 00 00 00 00 
       000028EA 00 00 00 00 00 00 00 00 00 00 
       000028F4 00 00 00 00 00 00 00 00 00 00 
       000028FE 00 00 00 00 00 00 00 00 00 00 
       00002908 00 00 00 00 00 00 00 00 00 00 
       00002912 00 00 00 00 00 00 00 00 00 00 
       0000291C 00 00 00 00 00 00 00 00 00 00 
       00002926 00 00 00 00 00 00 00 00 00 00 
       00002930 00 00 00 00 00 00 00 00 00 00 
       0000293A 00 00 00 00 00 00 00 00 00 00 
       00002944 00 00 00 00 00 00 00 00 00 00 
       0000294E 00 00 00 00 00 00 00 00 00 00 
       00002958 00 00 00 00 00 00 00 00 00 00 
       00002962 00 00 00 00 00 00 00 00 00 00 
       0000296C 00 00 00 00 00 00 00 00 00 00 
       00002976 00 00 00 00 00 00 00 00 00 00 
       00002980 00 00 00 00 00 00 00 00 00 00 
       0000298A 00 00 00 00 00 00 00 00 00 00 
       00002994 00 00 00 00 00 00 00 00 00 00 
       0000299E 00 00 00 00 00 00 00 00 00 00 
       000029A8 00 00 00 00 00 00 00 00 00 00 
       000029B2 00 00 00 00 00 00 00 00 00 00 
       000029BC 00 00 00 00 00 00 00 00 00 00 
       000029C6 00 00 00 00 00 00 00 00 00 00 
       000029D0 00 00 00 00 00 00 00 00 00 00 
       000029DA 00 00 00 00 00 00 00 00 00 00 
       000029E4 00 00 00 00 00 00 00 00 00 00 
       000029EE 00 00 00 00 00 00 00 00 00 00 
       000029F8 00 00 00 00 00 00 00 00 00 00 
       00002A02 00 00 00 00 00 00 00 00 00 00 
       00002A0C 00 00 00 00 00 00 00 00 00 00 
       00002A16 00 00 00 00 00 00 00 00 00 00 
       00002A20 00 00 00 00 00 00 00 00 00 00 
       00002A2A 00 00 00 00 00 00 00 00 00 00 
       00002A34 00 00 00 00 00 00 00 00 00 00 
       00002A3E 00 00 00 00 00 00 00 00 00 00 
       00002A48 00 00 00 00 00 00 00 00 00 00 
       00002A52 00 00 00 00 00 00 00 00 00 00 
       00002A5C 00 00 00 00 00 00 00 00 00 00 
       00002A66 00 00 00 00 00 00 00 00 00 00 
       00002A70 00 00 00 00 00 00 00 00 00 00 
       00002A7A 00 00 00 00 00 00 00 00 00 00 
       00002A84 00 00 00 00 00 00 00 00 00 00 
       00002A8E 00 00 00 00 00 00 00 00 00 00 
       00002A98 00 00 00 00 00 00 00 00 00 00 
       00002AA2 00 00 00 00 00 00 00 00 00 00 
       00002AAC 00 00 00 00 00 00 00 00 00 00 
       00002AB6 00 00 00 00 00 00 00 00 00 00 
       00002AC0 00 00 00 00 00 00 00 00 00 00 
       00002ACA 00 00 00 00 00 00 00 00 00 00 
       00002AD4 00 00 00 00 00 00 00 00 00 00 
       00002ADE 00 00 00 00 00 00 00 00 00 00 
       00002AE8 00 00 00 00 00 00 00 00 00 00 
       00002AF2 00 00 00 00 00 00 00 00 00 00 
       00002AFC 00 00 00 00 00 00 00 00 00 00 
       00002B06 00 00 00 00 00 00 00 00 00 00 
       00002B10 00 00 00 00 00 00 00 00 00 00 
       00002B1A 00 00 00 00 00 00 00 00 00 00 
       00002B24 00 00 00 00 00 00 00 00 00 00 
       00002B2E 00 00 00 00 00 00 00 00 00 00 
       00002B38 00 00 00 00 00 00 00 00 00 00 
       00002B42 00 00 00 00 00 00 00 00 00 00 
       00002B4C 00 00 00 00 00 00 00 00 00 00 
       00002B56 00 00 00 00 00 00 00 00 00 00 
       00002B60 00 00 00 00 00 00 00 00 00 00 
       00002B6A 00 00 
  5835 00002B6C                                 	GLOBAL	_processctl
  5836                                          [SECTION .data]
  5837 00002B6C                                 	ALIGNB	4
  5838 00002B6C                                 _processctl:
  5839 00002B6C 00 00 00 00                     	RESB	4
  5840 00002B70                                 	GLOBAL	_mpTimer
  5841                                          [SECTION .data]
  5842 00002B70                                 	ALIGNB	4
  5843 00002B70                                 _mpTimer:
  5844 00002B70 00 00 00 00                     	RESB	4
