     1 00000000                                 [FORMAT "WCOFF"]
     2 00000000                                 [INSTRSET "i486p"]
     3 00000000                                 [OPTIMIZE 1]
     4 00000000                                 [OPTION 1]
     5 00000000                                 [BITS 32]
     6 00000000                                 	EXTERN	_io_in8
     7 00000000                                 	EXTERN	_io_out8
     8 00000000                                 	EXTERN	_io_load_eflags
     9 00000000                                 	EXTERN	_io_cli
    10 00000000                                 	EXTERN	_io_store_eflags
    11 00000000                                 	EXTERN	_io_hlt
    12 00000000                                 	EXTERN	_loadTr
    13 00000000                                 	EXTERN	_farJmp
    14 00000000                                 	EXTERN	_loadGdtr
    15 00000000                                 	EXTERN	_loadIdtr
    16 00000000                                 	EXTERN	_asm_interruptHandler20
    17 00000000                                 	EXTERN	_asm_interruptHandler21
    18 00000000                                 	EXTERN	_asm_interruptHandler27
    19 00000000                                 	EXTERN	_asm_interruptHandler2c
    20 00000000                                 	EXTERN	_font
    21 00000000                                 	EXTERN	_memtest_sub
    22 00000000                                 	EXTERN	_loadCr0
    23 00000000                                 	EXTERN	_storeCr0
    24 00000000                                 	EXTERN	_io_sti
    25 00000000                                 	EXTERN	_sprintf
    26 00000000                                 [FILE "bootpack.c"]
    27                                          [SECTION .text]
    28 00000000                                 	GLOBAL	_QueueInit
    29 00000000                                 _QueueInit:
    30 00000000 55                              	PUSH	EBP
    31 00000001 89 E5                           	MOV	EBP,ESP
    32 00000003 8B 45 08                        	MOV	EAX,DWORD [8+EBP]
    33 00000006 8B 55 10                        	MOV	EDX,DWORD [16+EBP]
    34 00000009 8B 4D 0C                        	MOV	ECX,DWORD [12+EBP]
    35 0000000C 89 10                           	MOV	DWORD [EAX],EDX
    36 0000000E 89 48 0C                        	MOV	DWORD [12+EAX],ECX
    37 00000011 8B 55 14                        	MOV	EDX,DWORD [20+EBP]
    38 00000014 89 48 10                        	MOV	DWORD [16+EAX],ECX
    39 00000017 C7 40 14 00000000               	MOV	DWORD [20+EAX],0
    40 0000001E C7 40 08 00000000               	MOV	DWORD [8+EAX],0
    41 00000025 C7 40 04 00000000               	MOV	DWORD [4+EAX],0
    42 0000002C 89 50 18                        	MOV	DWORD [24+EAX],EDX
    43 0000002F 5D                              	POP	EBP
    44 00000030 C3                              	RET
    45 00000031                                 	GLOBAL	_QueuePush
    46 00000031                                 _QueuePush:
    47 00000031 55                              	PUSH	EBP
    48 00000032 89 E5                           	MOV	EBP,ESP
    49 00000034 53                              	PUSH	EBX
    50 00000035 8B 5D 08                        	MOV	EBX,DWORD [8+EBP]
    51 00000038 83 7B 10 00                     	CMP	DWORD [16+EBX],0
    52 0000003C 75 0C                           	JNE	L3
    53 0000003E 83 4B 14 01                     	OR	DWORD [20+EBX],1
    54 00000042 83 C8 FF                        	OR	EAX,-1
    55 00000045                                 L2:
    56 00000045 8B 5D FC                        	MOV	EBX,DWORD [-4+EBP]
    57 00000048 C9                              	LEAVE
    58 00000049 C3                              	RET
    59 0000004A                                 L3:
    60 0000004A 8B 4B 04                        	MOV	ECX,DWORD [4+EBX]
    61 0000004D 8B 13                           	MOV	EDX,DWORD [EBX]
    62 0000004F 8B 45 0C                        	MOV	EAX,DWORD [12+EBP]
    63 00000052 89 04 8A                        	MOV	DWORD [EDX+ECX*4],EAX
    64 00000055 8B 43 04                        	MOV	EAX,DWORD [4+EBX]
    65 00000058 FF 4B 10                        	DEC	DWORD [16+EBX]
    66 0000005B 40                              	INC	EAX
    67 0000005C 99                              	CDQ
    68 0000005D F7 7B 0C                        	IDIV	DWORD [12+EBX]
    69 00000060 8B 43 18                        	MOV	EAX,DWORD [24+EBX]
    70 00000063 89 53 04                        	MOV	DWORD [4+EBX],EDX
    71 00000066 85 C0                           	TEST	EAX,EAX
    72 00000068 74 13                           	JE	L4
    73 0000006A 83 78 04 02                     	CMP	DWORD [4+EAX],2
    74 0000006E 74 0D                           	JE	L4
    75 00000070 6A 00                           	PUSH	0
    76 00000072 6A FF                           	PUSH	-1
    77 00000074 50                              	PUSH	EAX
    78 00000075 E8 00000549                     	CALL	_processRun
    79 0000007A 83 C4 0C                        	ADD	ESP,12
    80 0000007D                                 L4:
    81 0000007D 31 C0                           	XOR	EAX,EAX
    82 0000007F EB C4                           	JMP	L2
    83 00000081                                 	GLOBAL	_QueuePop
    84 00000081                                 _QueuePop:
    85 00000081 55                              	PUSH	EBP
    86 00000082 83 C8 FF                        	OR	EAX,-1
    87 00000085 89 E5                           	MOV	EBP,ESP
    88 00000087 57                              	PUSH	EDI
    89 00000088 56                              	PUSH	ESI
    90 00000089 8B 75 08                        	MOV	ESI,DWORD [8+EBP]
    91 0000008C 53                              	PUSH	EBX
    92 0000008D 8B 7E 10                        	MOV	EDI,DWORD [16+ESI]
    93 00000090 8B 5E 0C                        	MOV	EBX,DWORD [12+ESI]
    94 00000093 39 DF                           	CMP	EDI,EBX
    95 00000095 74 17                           	JE	L6
    96 00000097 8B 46 08                        	MOV	EAX,DWORD [8+ESI]
    97 0000009A 8B 16                           	MOV	EDX,DWORD [ESI]
    98 0000009C 8B 0C 82                        	MOV	ECX,DWORD [EDX+EAX*4]
    99 0000009F 40                              	INC	EAX
   100 000000A0 99                              	CDQ
   101 000000A1 F7 FB                           	IDIV	EBX
   102 000000A3 8D 47 01                        	LEA	EAX,DWORD [1+EDI]
   103 000000A6 89 56 08                        	MOV	DWORD [8+ESI],EDX
   104 000000A9 89 46 10                        	MOV	DWORD [16+ESI],EAX
   105 000000AC 89 C8                           	MOV	EAX,ECX
   106 000000AE                                 L6:
   107 000000AE 5B                              	POP	EBX
   108 000000AF 5E                              	POP	ESI
   109 000000B0 5F                              	POP	EDI
   110 000000B1 5D                              	POP	EBP
   111 000000B2 C3                              	RET
   112 000000B3                                 	GLOBAL	_QueueSize
   113 000000B3                                 _QueueSize:
   114 000000B3 55                              	PUSH	EBP
   115 000000B4 89 E5                           	MOV	EBP,ESP
   116 000000B6 8B 55 08                        	MOV	EDX,DWORD [8+EBP]
   117 000000B9 5D                              	POP	EBP
   118 000000BA 8B 42 0C                        	MOV	EAX,DWORD [12+EDX]
   119 000000BD 2B 42 10                        	SUB	EAX,DWORD [16+EDX]
   120 000000C0 C3                              	RET
   121                                          [SECTION .data]
   122 00000000                                 _keyboardTable0:
   123 00000000 00                              	DB	0
   124 00000001 00                              	DB	0
   125 00000002 31                              	DB	49
   126 00000003 32                              	DB	50
   127 00000004 33                              	DB	51
   128 00000005 34                              	DB	52
   129 00000006 35                              	DB	53
   130 00000007 36                              	DB	54
   131 00000008 37                              	DB	55
   132 00000009 38                              	DB	56
   133 0000000A 39                              	DB	57
   134 0000000B 30                              	DB	48
   135 0000000C 2D                              	DB	45
   136 0000000D 3D                              	DB	61
   137 0000000E 00                              	DB	0
   138 0000000F 00                              	DB	0
   139 00000010 51                              	DB	81
   140 00000011 57                              	DB	87
   141 00000012 45                              	DB	69
   142 00000013 52                              	DB	82
   143 00000014 54                              	DB	84
   144 00000015 59                              	DB	89
   145 00000016 55                              	DB	85
   146 00000017 49                              	DB	73
   147 00000018 4F                              	DB	79
   148 00000019 50                              	DB	80
   149 0000001A 5B                              	DB	91
   150 0000001B 5D                              	DB	93
   151 0000001C 00                              	DB	0
   152 0000001D 00                              	DB	0
   153 0000001E 41                              	DB	65
   154 0000001F 53                              	DB	83
   155 00000020 44                              	DB	68
   156 00000021 46                              	DB	70
   157 00000022 47                              	DB	71
   158 00000023 48                              	DB	72
   159 00000024 4A                              	DB	74
   160 00000025 4B                              	DB	75
   161 00000026 4C                              	DB	76
   162 00000027 3B                              	DB	59
   163 00000028 27                              	DB	39
   164 00000029 60                              	DB	96
   165 0000002A 00                              	DB	0
   166 0000002B 5C                              	DB	92
   167 0000002C 5A                              	DB	90
   168 0000002D 58                              	DB	88
   169 0000002E 43                              	DB	67
   170 0000002F 56                              	DB	86
   171 00000030 42                              	DB	66
   172 00000031 4E                              	DB	78
   173 00000032 4D                              	DB	77
   174 00000033 2C                              	DB	44
   175 00000034 2E                              	DB	46
   176 00000035 2F                              	DB	47
   177 00000036 00                              	DB	0
   178 00000037 2A                              	DB	42
   179 00000038 00                              	DB	0
   180 00000039 20                              	DB	32
   181 0000003A 00                              	DB	0
   182 0000003B 00                              	DB	0
   183 0000003C 00                              	DB	0
   184 0000003D 00                              	DB	0
   185 0000003E 00                              	DB	0
   186 0000003F 00                              	DB	0
   187 00000040 00                              	DB	0
   188 00000041 00                              	DB	0
   189 00000042 00                              	DB	0
   190 00000043 00                              	DB	0
   191 00000044 00                              	DB	0
   192 00000045 00                              	DB	0
   193 00000046 00                              	DB	0
   194 00000047 37                              	DB	55
   195 00000048 38                              	DB	56
   196 00000049 39                              	DB	57
   197 0000004A 2D                              	DB	45
   198 0000004B 34                              	DB	52
   199 0000004C 35                              	DB	53
   200 0000004D 36                              	DB	54
   201 0000004E 2B                              	DB	43
   202 0000004F 31                              	DB	49
   203 00000050 32                              	DB	50
   204 00000051 33                              	DB	51
   205 00000052 30                              	DB	48
   206 00000053 2E                              	DB	46
   207 00000054 00                              	DB	0
   208 00000055 00                              	DB	0
   209 00000056 00                              	DB	0
   210 00000057 00                              	DB	0
   211 00000058 00                              	DB	0
   212 00000059 00                              	DB	0
   213 0000005A 00                              	DB	0
   214 0000005B 00                              	DB	0
   215 0000005C 00                              	DB	0
   216 0000005D 00                              	DB	0
   217 0000005E 00                              	DB	0
   218 0000005F 00                              	DB	0
   219 00000060 00                              	DB	0
   220 00000061 00                              	DB	0
   221 00000062 00                              	DB	0
   222 00000063 00                              	DB	0
   223 00000064 00                              	DB	0
   224 00000065 00                              	DB	0
   225 00000066 00                              	DB	0
   226 00000067 00                              	DB	0
   227 00000068 00                              	DB	0
   228 00000069 00                              	DB	0
   229 0000006A 00                              	DB	0
   230 0000006B 00                              	DB	0
   231 0000006C 00                              	DB	0
   232 0000006D 00                              	DB	0
   233 0000006E 00                              	DB	0
   234 0000006F 00                              	DB	0
   235 00000070 00                              	DB	0
   236 00000071 00                              	DB	0
   237 00000072 00                              	DB	0
   238 00000073 00                              	DB	0
   239 00000074 00                              	DB	0
   240 00000075 00                              	DB	0
   241 00000076 00                              	DB	0
   242 00000077 00                              	DB	0
   243 00000078 00                              	DB	0
   244 00000079 00                              	DB	0
   245 0000007A 00                              	DB	0
   246 0000007B 00                              	DB	0
   247 0000007C 00                              	DB	0
   248 0000007D 00                              	DB	0
   249 0000007E 00                              	DB	0
   250 0000007F 00                              	DB	0
   251 00000080                                 _keyboardTable1:
   252 00000080 00                              	DB	0
   253 00000081 00                              	DB	0
   254 00000082 21                              	DB	33
   255 00000083 40                              	DB	64
   256 00000084 23                              	DB	35
   257 00000085 24                              	DB	36
   258 00000086 25                              	DB	37
   259 00000087 5E                              	DB	94
   260 00000088 26                              	DB	38
   261 00000089 2A                              	DB	42
   262 0000008A 28                              	DB	40
   263 0000008B 29                              	DB	41
   264 0000008C 5F                              	DB	95
   265 0000008D 2B                              	DB	43
   266 0000008E 00                              	DB	0
   267 0000008F 00                              	DB	0
   268 00000090 51                              	DB	81
   269 00000091 57                              	DB	87
   270 00000092 45                              	DB	69
   271 00000093 52                              	DB	82
   272 00000094 54                              	DB	84
   273 00000095 59                              	DB	89
   274 00000096 55                              	DB	85
   275 00000097 49                              	DB	73
   276 00000098 4F                              	DB	79
   277 00000099 50                              	DB	80
   278 0000009A 7B                              	DB	123
   279 0000009B 7D                              	DB	125
   280 0000009C 00                              	DB	0
   281 0000009D 00                              	DB	0
   282 0000009E 41                              	DB	65
   283 0000009F 53                              	DB	83
   284 000000A0 44                              	DB	68
   285 000000A1 46                              	DB	70
   286 000000A2 47                              	DB	71
   287 000000A3 48                              	DB	72
   288 000000A4 4A                              	DB	74
   289 000000A5 4B                              	DB	75
   290 000000A6 4C                              	DB	76
   291 000000A7 3A                              	DB	58
   292 000000A8 22                              	DB	34
   293 000000A9 7E                              	DB	126
   294 000000AA 00                              	DB	0
   295 000000AB 7C                              	DB	124
   296 000000AC 5A                              	DB	90
   297 000000AD 58                              	DB	88
   298 000000AE 43                              	DB	67
   299 000000AF 56                              	DB	86
   300 000000B0 42                              	DB	66
   301 000000B1 4E                              	DB	78
   302 000000B2 4D                              	DB	77
   303 000000B3 3C                              	DB	60
   304 000000B4 3E                              	DB	62
   305 000000B5 3F                              	DB	63
   306 000000B6 00                              	DB	0
   307 000000B7 2A                              	DB	42
   308 000000B8 00                              	DB	0
   309 000000B9 20                              	DB	32
   310 000000BA 00                              	DB	0
   311 000000BB 00                              	DB	0
   312 000000BC 00                              	DB	0
   313 000000BD 00                              	DB	0
   314 000000BE 00                              	DB	0
   315 000000BF 00                              	DB	0
   316 000000C0 00                              	DB	0
   317 000000C1 00                              	DB	0
   318 000000C2 00                              	DB	0
   319 000000C3 00                              	DB	0
   320 000000C4 00                              	DB	0
   321 000000C5 00                              	DB	0
   322 000000C6 00                              	DB	0
   323 000000C7 37                              	DB	55
   324 000000C8 38                              	DB	56
   325 000000C9 39                              	DB	57
   326 000000CA 2D                              	DB	45
   327 000000CB 34                              	DB	52
   328 000000CC 35                              	DB	53
   329 000000CD 36                              	DB	54
   330 000000CE 2B                              	DB	43
   331 000000CF 31                              	DB	49
   332 000000D0 32                              	DB	50
   333 000000D1 33                              	DB	51
   334 000000D2 30                              	DB	48
   335 000000D3 2E                              	DB	46
   336 000000D4 00                              	DB	0
   337 000000D5 00                              	DB	0
   338 000000D6 00                              	DB	0
   339 000000D7 00                              	DB	0
   340 000000D8 00                              	DB	0
   341 000000D9 00                              	DB	0
   342 000000DA 00                              	DB	0
   343 000000DB 00                              	DB	0
   344 000000DC 00                              	DB	0
   345 000000DD 00                              	DB	0
   346 000000DE 00                              	DB	0
   347 000000DF 00                              	DB	0
   348 000000E0 00                              	DB	0
   349 000000E1 00                              	DB	0
   350 000000E2 00                              	DB	0
   351 000000E3 00                              	DB	0
   352 000000E4 00                              	DB	0
   353 000000E5 00                              	DB	0
   354 000000E6 00                              	DB	0
   355 000000E7 00                              	DB	0
   356 000000E8 00                              	DB	0
   357 000000E9 00                              	DB	0
   358 000000EA 00                              	DB	0
   359 000000EB 00                              	DB	0
   360 000000EC 00                              	DB	0
   361 000000ED 00                              	DB	0
   362 000000EE 00                              	DB	0
   363 000000EF 00                              	DB	0
   364 000000F0 00                              	DB	0
   365 000000F1 00                              	DB	0
   366 000000F2 00                              	DB	0
   367 000000F3 00                              	DB	0
   368 000000F4 00                              	DB	0
   369 000000F5 00                              	DB	0
   370 000000F6 00                              	DB	0
   371 000000F7 00                              	DB	0
   372 000000F8 00                              	DB	0
   373 000000F9 00                              	DB	0
   374 000000FA 00                              	DB	0
   375 000000FB 00                              	DB	0
   376 000000FC 00                              	DB	0
   377 000000FD 00                              	DB	0
   378 000000FE 00                              	DB	0
   379 000000FF 00                              	DB	0
   380                                          [SECTION .text]
   381 000000C1                                 	GLOBAL	_waitKeyboardControllerReady
   382 000000C1                                 _waitKeyboardControllerReady:
   383 000000C1 55                              	PUSH	EBP
   384 000000C2 89 E5                           	MOV	EBP,ESP
   385 000000C4                                 L10:
   386 000000C4 6A 64                           	PUSH	100
   387 000000C6 E8 [00000000]                   	CALL	_io_in8
   388 000000CB 5A                              	POP	EDX
   389 000000CC 83 E0 02                        	AND	EAX,2
   390 000000CF 75 F3                           	JNE	L10
   391 000000D1 C9                              	LEAVE
   392 000000D2 C3                              	RET
   393 000000D3                                 	GLOBAL	_initKeyboard
   394 000000D3                                 _initKeyboard:
   395 000000D3 55                              	PUSH	EBP
   396 000000D4 89 E5                           	MOV	EBP,ESP
   397 000000D6 8B 45 08                        	MOV	EAX,DWORD [8+EBP]
   398 000000D9 A3 [00000370]                   	MOV	DWORD [_keybuf],EAX
   399 000000DE 8B 45 0C                        	MOV	EAX,DWORD [12+EBP]
   400 000000E1 A3 [00000374]                   	MOV	DWORD [_keyData0],EAX
   401 000000E6 E8 FFFFFFD6                     	CALL	_waitKeyboardControllerReady
   402 000000EB 6A 60                           	PUSH	96
   403 000000ED 6A 64                           	PUSH	100
   404 000000EF E8 [00000000]                   	CALL	_io_out8
   405 000000F4 E8 FFFFFFC8                     	CALL	_waitKeyboardControllerReady
   406 000000F9 59                              	POP	ECX
   407 000000FA 58                              	POP	EAX
   408 000000FB C7 45 0C 00000047               	MOV	DWORD [12+EBP],71
   409 00000102 C7 45 08 00000060               	MOV	DWORD [8+EBP],96
   410 00000109 C9                              	LEAVE
   411 0000010A E9 [00000000]                   	JMP	_io_out8
   412 0000010F                                 	GLOBAL	_enableMouse
   413 0000010F                                 _enableMouse:
   414 0000010F 55                              	PUSH	EBP
   415 00000110 89 E5                           	MOV	EBP,ESP
   416 00000112 8B 45 08                        	MOV	EAX,DWORD [8+EBP]
   417 00000115 A3 [00000378]                   	MOV	DWORD [_mousebuf],EAX
   418 0000011A 8B 45 0C                        	MOV	EAX,DWORD [12+EBP]
   419 0000011D A3 [0000037C]                   	MOV	DWORD [_mouseData0],EAX
   420 00000122 E8 FFFFFF9A                     	CALL	_waitKeyboardControllerReady
   421 00000127 68 000000D4                     	PUSH	212
   422 0000012C 6A 64                           	PUSH	100
   423 0000012E E8 [00000000]                   	CALL	_io_out8
   424 00000133 E8 FFFFFF89                     	CALL	_waitKeyboardControllerReady
   425 00000138 68 000000F4                     	PUSH	244
   426 0000013D 6A 60                           	PUSH	96
   427 0000013F E8 [00000000]                   	CALL	_io_out8
   428 00000144 8B 45 10                        	MOV	EAX,DWORD [16+EBP]
   429 00000147 C6 40 03 00                     	MOV	BYTE [3+EAX],0
   430 0000014B C9                              	LEAVE
   431 0000014C C3                              	RET
   432 0000014D                                 	GLOBAL	_mouseDecode
   433 0000014D                                 _mouseDecode:
   434 0000014D 55                              	PUSH	EBP
   435 0000014E 89 E5                           	MOV	EBP,ESP
   436 00000150 56                              	PUSH	ESI
   437 00000151 53                              	PUSH	EBX
   438 00000152 8B 55 08                        	MOV	EDX,DWORD [8+EBP]
   439 00000155 8B 4D 0C                        	MOV	ECX,DWORD [12+EBP]
   440 00000158 89 CE                           	MOV	ESI,ECX
   441 0000015A 8A 42 03                        	MOV	AL,BYTE [3+EDX]
   442 0000015D 84 C0                           	TEST	AL,AL
   443 0000015F 75 11                           	JNE	L17
   444 00000161 80 F9 FA                        	CMP	CL,-6
   445 00000164 74 06                           	JE	L26
   446 00000166                                 L25:
   447 00000166 31 C0                           	XOR	EAX,EAX
   448 00000168                                 L16:
   449 00000168 5B                              	POP	EBX
   450 00000169 5E                              	POP	ESI
   451 0000016A 5D                              	POP	EBP
   452 0000016B C3                              	RET
   453 0000016C                                 L26:
   454 0000016C C6 42 03 01                     	MOV	BYTE [3+EDX],1
   455 00000170 EB F4                           	JMP	L25
   456 00000172                                 L17:
   457 00000172 3C 01                           	CMP	AL,1
   458 00000174 74 61                           	JE	L27
   459 00000176 3C 02                           	CMP	AL,2
   460 00000178 74 54                           	JE	L28
   461 0000017A 3C 03                           	CMP	AL,3
   462 0000017C 74 05                           	JE	L29
   463 0000017E 83 C8 FF                        	OR	EAX,-1
   464 00000181 EB E5                           	JMP	L16
   465 00000183                                 L29:
   466 00000183 8A 1A                           	MOV	BL,BYTE [EDX]
   467 00000185 81 E6 000000FF                  	AND	ESI,255
   468 0000018B 89 D8                           	MOV	EAX,EBX
   469 0000018D 88 4A 02                        	MOV	BYTE [2+EDX],CL
   470 00000190 83 E0 07                        	AND	EAX,7
   471 00000193 89 72 08                        	MOV	DWORD [8+EDX],ESI
   472 00000196 89 42 0C                        	MOV	DWORD [12+EDX],EAX
   473 00000199 88 D8                           	MOV	AL,BL
   474 0000019B 0F B6 4A 01                     	MOVZX	ECX,BYTE [1+EDX]
   475 0000019F 83 E0 10                        	AND	EAX,16
   476 000001A2 89 4A 04                        	MOV	DWORD [4+EDX],ECX
   477 000001A5 C6 42 03 01                     	MOV	BYTE [3+EDX],1
   478 000001A9 84 C0                           	TEST	AL,AL
   479 000001AB 74 09                           	JE	L23
   480 000001AD 81 C9 FFFFFF00                  	OR	ECX,-256
   481 000001B3 89 4A 04                        	MOV	DWORD [4+EDX],ECX
   482 000001B6                                 L23:
   483 000001B6 83 E3 20                        	AND	EBX,32
   484 000001B9 84 DB                           	TEST	BL,BL
   485 000001BB 74 07                           	JE	L24
   486 000001BD 81 4A 08 FFFFFF00               	OR	DWORD [8+EDX],-256
   487 000001C4                                 L24:
   488 000001C4 F7 5A 08                        	NEG	DWORD [8+EDX]
   489 000001C7 B8 00000001                     	MOV	EAX,1
   490 000001CC EB 9A                           	JMP	L16
   491 000001CE                                 L28:
   492 000001CE 88 4A 01                        	MOV	BYTE [1+EDX],CL
   493 000001D1 C6 42 03 03                     	MOV	BYTE [3+EDX],3
   494 000001D5 EB 8F                           	JMP	L25
   495 000001D7                                 L27:
   496 000001D7 83 E6 C8                        	AND	ESI,-56
   497 000001DA 89 F0                           	MOV	EAX,ESI
   498 000001DC 3C 08                           	CMP	AL,8
   499 000001DE 75 86                           	JNE	L25
   500 000001E0 88 0A                           	MOV	BYTE [EDX],CL
   501 000001E2 C6 42 03 02                     	MOV	BYTE [3+EDX],2
   502 000001E6 E9 FFFFFF7B                     	JMP	L25
   503 000001EB                                 	GLOBAL	_initPit
   504 000001EB                                 _initPit:
   505 000001EB 55                              	PUSH	EBP
   506 000001EC 89 E5                           	MOV	EBP,ESP
   507 000001EE 6A 34                           	PUSH	52
   508 000001F0 6A 43                           	PUSH	67
   509 000001F2 E8 [00000000]                   	CALL	_io_out8
   510 000001F7 68 0000009C                     	PUSH	156
   511 000001FC 6A 40                           	PUSH	64
   512 000001FE E8 [00000000]                   	CALL	_io_out8
   513 00000203 6A 2E                           	PUSH	46
   514 00000205 6A 40                           	PUSH	64
   515 00000207 E8 [00000000]                   	CALL	_io_out8
   516 0000020C BA [00002A90]                   	MOV	EDX,_timerctl+10000
   517 00000211 C7 05 [00000380] 00000000       	MOV	DWORD [_timerctl],0
   518 0000021B 83 C4 18                        	ADD	ESP,24
   519 0000021E B8 [00000394]                   	MOV	EAX,_timerctl+20
   520 00000223                                 L35:
   521 00000223 C7 00 00000000                  	MOV	DWORD [EAX],0
   522 00000229 83 C0 14                        	ADD	EAX,20
   523 0000022C 39 D0                           	CMP	EAX,EDX
   524 0000022E 7E F3                           	JLE	L35
   525 00000230 E8 00000025                     	CALL	_timerAlloc
   526 00000235 C7 40 04 FFFFFFFF               	MOV	DWORD [4+EAX],-1
   527 0000023C C7 40 08 00000002               	MOV	DWORD [8+EAX],2
   528 00000243 C7 00 00000000                  	MOV	DWORD [EAX],0
   529 00000249 A3 [00000388]                   	MOV	DWORD [_timerctl+8],EAX
   530 0000024E C7 05 [00000384] FFFFFFFF       	MOV	DWORD [_timerctl+4],-1
   531 00000258 C9                              	LEAVE
   532 00000259 C3                              	RET
   533 0000025A                                 	GLOBAL	_timerAlloc
   534 0000025A                                 _timerAlloc:
   535 0000025A 55                              	PUSH	EBP
   536 0000025B 31 D2                           	XOR	EDX,EDX
   537 0000025D 89 E5                           	MOV	EBP,ESP
   538 0000025F B8 [0000038C]                   	MOV	EAX,_timerctl+12
   539 00000264                                 L44:
   540 00000264 83 78 08 00                     	CMP	DWORD [8+EAX],0
   541 00000268 74 10                           	JE	L47
   542 0000026A 42                              	INC	EDX
   543 0000026B 83 C0 14                        	ADD	EAX,20
   544 0000026E 81 FA 000001F3                  	CMP	EDX,499
   545 00000274 7E EE                           	JLE	L44
   546 00000276 31 C0                           	XOR	EAX,EAX
   547 00000278                                 L38:
   548 00000278 5D                              	POP	EBP
   549 00000279 C3                              	RET
   550 0000027A                                 L47:
   551 0000027A C7 40 08 00000001               	MOV	DWORD [8+EAX],1
   552 00000281 EB F5                           	JMP	L38
   553 00000283                                 	GLOBAL	_timerFree
   554 00000283                                 _timerFree:
   555 00000283 55                              	PUSH	EBP
   556 00000284 89 E5                           	MOV	EBP,ESP
   557 00000286 8B 45 08                        	MOV	EAX,DWORD [8+EBP]
   558 00000289 C7 40 08 00000000               	MOV	DWORD [8+EAX],0
   559 00000290 5D                              	POP	EBP
   560 00000291 C3                              	RET
   561 00000292                                 	GLOBAL	_timerInit
   562 00000292                                 _timerInit:
   563 00000292 55                              	PUSH	EBP
   564 00000293 89 E5                           	MOV	EBP,ESP
   565 00000295 8B 45 08                        	MOV	EAX,DWORD [8+EBP]
   566 00000298 8B 55 0C                        	MOV	EDX,DWORD [12+EBP]
   567 0000029B 89 50 0C                        	MOV	DWORD [12+EAX],EDX
   568 0000029E 8B 55 10                        	MOV	EDX,DWORD [16+EBP]
   569 000002A1 88 50 10                        	MOV	BYTE [16+EAX],DL
   570 000002A4 5D                              	POP	EBP
   571 000002A5 C3                              	RET
   572 000002A6                                 	GLOBAL	_timerSetTime
   573 000002A6                                 _timerSetTime:
   574 000002A6 55                              	PUSH	EBP
   575 000002A7 A1 [00000380]                   	MOV	EAX,DWORD [_timerctl]
   576 000002AC 89 E5                           	MOV	EBP,ESP
   577 000002AE 56                              	PUSH	ESI
   578 000002AF 53                              	PUSH	EBX
   579 000002B0 8B 5D 08                        	MOV	EBX,DWORD [8+EBP]
   580 000002B3 03 45 0C                        	ADD	EAX,DWORD [12+EBP]
   581 000002B6 C7 43 08 00000002               	MOV	DWORD [8+EBX],2
   582 000002BD 89 43 04                        	MOV	DWORD [4+EBX],EAX
   583 000002C0 E8 [00000000]                   	CALL	_io_load_eflags
   584 000002C5 89 C6                           	MOV	ESI,EAX
   585 000002C7 E8 [00000000]                   	CALL	_io_cli
   586 000002CC A1 [00000388]                   	MOV	EAX,DWORD [_timerctl+8]
   587 000002D1 8B 53 04                        	MOV	EDX,DWORD [4+EBX]
   588 000002D4 3B 50 04                        	CMP	EDX,DWORD [4+EAX]
   589 000002D7 76 1C                           	JBE	L57
   590 000002D9                                 L52:
   591 000002D9 89 C1                           	MOV	ECX,EAX
   592 000002DB 8B 00                           	MOV	EAX,DWORD [EAX]
   593 000002DD 85 C0                           	TEST	EAX,EAX
   594 000002DF 74 09                           	JE	L53
   595 000002E1 3B 50 04                        	CMP	EDX,DWORD [4+EAX]
   596 000002E4 77 F3                           	JA	L52
   597 000002E6 89 19                           	MOV	DWORD [ECX],EBX
   598 000002E8 89 03                           	MOV	DWORD [EBX],EAX
   599 000002EA                                 L53:
   600 000002EA 89 75 08                        	MOV	DWORD [8+EBP],ESI
   601 000002ED 5B                              	POP	EBX
   602 000002EE 5E                              	POP	ESI
   603 000002EF 5D                              	POP	EBP
   604 000002F0 E9 [00000000]                   	JMP	_io_store_eflags
   605 000002F5                                 L57:
   606 000002F5 89 1D [00000388]                	MOV	DWORD [_timerctl+8],EBX
   607 000002FB 89 15 [00000384]                	MOV	DWORD [_timerctl+4],EDX
   608 00000301 89 03                           	MOV	DWORD [EBX],EAX
   609 00000303 EB E5                           	JMP	L53
   610 00000305                                 	GLOBAL	_processIdle
   611 00000305                                 _processIdle:
   612 00000305 55                              	PUSH	EBP
   613 00000306 89 E5                           	MOV	EBP,ESP
   614 00000308                                 L59:
   615 00000308 E8 [00000000]                   	CALL	_io_hlt
   616 0000030D EB F9                           	JMP	L59
   617 0000030F                                 	GLOBAL	_processNow
   618 0000030F                                 _processNow:
   619 0000030F A1 [00002A9C]                   	MOV	EAX,DWORD [_processctl]
   620 00000314 55                              	PUSH	EBP
   621 00000315 89 E5                           	MOV	EBP,ESP
   622 00000317 5D                              	POP	EBP
   623 00000318 8B 10                           	MOV	EDX,DWORD [EAX]
   624 0000031A 69 D2 00000198                  	IMUL	EDX,EDX,408
   625 00000320 8D 44 02 08                     	LEA	EAX,DWORD [8+EDX+EAX*1]
   626 00000324 8B 50 04                        	MOV	EDX,DWORD [4+EAX]
   627 00000327 8B 44 90 08                     	MOV	EAX,DWORD [8+EAX+EDX*4]
   628 0000032B C3                              	RET
   629 0000032C                                 	GLOBAL	_processAdd
   630 0000032C                                 _processAdd:
   631 0000032C 55                              	PUSH	EBP
   632 0000032D 89 E5                           	MOV	EBP,ESP
   633 0000032F 8B 4D 08                        	MOV	ECX,DWORD [8+EBP]
   634 00000332 8B 51 08                        	MOV	EDX,DWORD [8+ECX]
   635 00000335 69 D2 00000198                  	IMUL	EDX,EDX,408
   636 0000033B 03 15 [00002A9C]                	ADD	EDX,DWORD [_processctl]
   637 00000341 8B 42 08                        	MOV	EAX,DWORD [8+EDX]
   638 00000344 89 4C 82 10                     	MOV	DWORD [16+EDX+EAX*4],ECX
   639 00000348 40                              	INC	EAX
   640 00000349 89 42 08                        	MOV	DWORD [8+EDX],EAX
   641 0000034C C7 41 04 00000002               	MOV	DWORD [4+ECX],2
   642 00000353 5D                              	POP	EBP
   643 00000354 C3                              	RET
   644 00000355                                 	GLOBAL	_processRemove
   645 00000355                                 _processRemove:
   646 00000355 55                              	PUSH	EBP
   647 00000356 31 C9                           	XOR	ECX,ECX
   648 00000358 89 E5                           	MOV	EBP,ESP
   649 0000035A 53                              	PUSH	EBX
   650 0000035B 8B 5D 08                        	MOV	EBX,DWORD [8+EBP]
   651 0000035E 8B 43 08                        	MOV	EAX,DWORD [8+EBX]
   652 00000361 69 C0 00000198                  	IMUL	EAX,EAX,408
   653 00000367 03 05 [00002A9C]                	ADD	EAX,DWORD [_processctl]
   654 0000036D 8D 50 08                        	LEA	EDX,DWORD [8+EAX]
   655 00000370 3B 48 08                        	CMP	ECX,DWORD [8+EAX]
   656 00000373 7D 0B                           	JGE	L66
   657 00000375                                 L70:
   658 00000375 39 5C 8A 08                     	CMP	DWORD [8+EDX+ECX*4],EBX
   659 00000379 74 05                           	JE	L66
   660 0000037B 41                              	INC	ECX
   661 0000037C 3B 0A                           	CMP	ECX,DWORD [EDX]
   662 0000037E 7C F5                           	JL	L70
   663 00000380                                 L66:
   664 00000380 8B 42 04                        	MOV	EAX,DWORD [4+EDX]
   665 00000383 FF 0A                           	DEC	DWORD [EDX]
   666 00000385 39 C1                           	CMP	ECX,EAX
   667 00000387 7D 04                           	JGE	L71
   668 00000389 48                              	DEC	EAX
   669 0000038A 89 42 04                        	MOV	DWORD [4+EDX],EAX
   670 0000038D                                 L71:
   671 0000038D 8B 02                           	MOV	EAX,DWORD [EDX]
   672 0000038F 39 42 04                        	CMP	DWORD [4+EDX],EAX
   673 00000392 7C 07                           	JL	L72
   674 00000394 C7 42 04 00000000               	MOV	DWORD [4+EDX],0
   675 0000039B                                 L72:
   676 0000039B C7 43 04 00000001               	MOV	DWORD [4+EBX],1
   677 000003A2 8B 1A                           	MOV	EBX,DWORD [EDX]
   678 000003A4 39 D9                           	CMP	ECX,EBX
   679 000003A6 7D 0D                           	JGE	L80
   680 000003A8                                 L77:
   681 000003A8 8B 44 8A 0C                     	MOV	EAX,DWORD [12+EDX+ECX*4]
   682 000003AC 89 44 8A 08                     	MOV	DWORD [8+EDX+ECX*4],EAX
   683 000003B0 41                              	INC	ECX
   684 000003B1 39 D9                           	CMP	ECX,EBX
   685 000003B3 7C F3                           	JL	L77
   686 000003B5                                 L80:
   687 000003B5 5B                              	POP	EBX
   688 000003B6 5D                              	POP	EBP
   689 000003B7 C3                              	RET
   690 000003B8                                 	GLOBAL	_processSwitchSub
   691 000003B8                                 _processSwitchSub:
   692 000003B8 55                              	PUSH	EBP
   693 000003B9 31 C9                           	XOR	ECX,ECX
   694 000003BB 89 E5                           	MOV	EBP,ESP
   695 000003BD A1 [00002A9C]                   	MOV	EAX,DWORD [_processctl]
   696 000003C2 31 D2                           	XOR	EDX,EDX
   697 000003C4                                 L87:
   698 000003C4 83 7C 10 08 00                  	CMP	DWORD [8+EAX+EDX*1],0
   699 000003C9 7F 0C                           	JG	L83
   700 000003CB 41                              	INC	ECX
   701 000003CC 81 C2 00000198                  	ADD	EDX,408
   702 000003D2 83 F9 09                        	CMP	ECX,9
   703 000003D5 7E ED                           	JLE	L87
   704 000003D7                                 L83:
   705 000003D7 89 08                           	MOV	DWORD [EAX],ECX
   706 000003D9 C6 40 04 00                     	MOV	BYTE [4+EAX],0
   707 000003DD 5D                              	POP	EBP
   708 000003DE C3                              	RET
   709 000003DF                                 	GLOBAL	_processInit
   710 000003DF                                 _processInit:
   711 000003DF 55                              	PUSH	EBP
   712 000003E0 89 E5                           	MOV	EBP,ESP
   713 000003E2 57                              	PUSH	EDI
   714 000003E3 56                              	PUSH	ESI
   715 000003E4 31 FF                           	XOR	EDI,EDI
   716 000003E6 53                              	PUSH	EBX
   717 000003E7 31 F6                           	XOR	ESI,ESI
   718 000003E9 68 00025218                     	PUSH	152088
   719 000003EE BB 000003E7                     	MOV	EBX,999
   720 000003F3 FF 75 08                        	PUSH	DWORD [8+EBP]
   721 000003F6 E8 00000C4D                     	CALL	_memsegAlloc4K
   722 000003FB A3 [00002A9C]                   	MOV	DWORD [_processctl],EAX
   723 00000400 58                              	POP	EAX
   724 00000401 5A                              	POP	EDX
   725 00000402                                 L94:
   726 00000402 89 F8                           	MOV	EAX,EDI
   727 00000404 8D 56 18                        	LEA	EDX,DWORD [24+ESI]
   728 00000407 03 05 [00002A9C]                	ADD	EAX,DWORD [_processctl]
   729 0000040D 81 C7 00000094                  	ADD	EDI,148
   730 00000413 C7 80 00000FFC 00000000         	MOV	DWORD [4092+EAX],0
   731 0000041D 89 90 00000FF8                  	MOV	DWORD [4088+EAX],EDX
   732 00000423 05 00001024                     	ADD	EAX,4132
   733 00000428 68 00000089                     	PUSH	137
   734 0000042D 50                              	PUSH	EAX
   735 0000042E 8D 86 00270018                  	LEA	EAX,DWORD [2555928+ESI]
   736 00000434 6A 67                           	PUSH	103
   737 00000436 83 C6 08                        	ADD	ESI,8
   738 00000439 50                              	PUSH	EAX
   739 0000043A E8 00000411                     	CALL	_setSegmdesc
   740 0000043F 83 C4 10                        	ADD	ESP,16
   741 00000442 4B                              	DEC	EBX
   742 00000443 79 BD                           	JNS	L94
   743 00000445 8B 0D [00002A9C]                	MOV	ECX,DWORD [_processctl]
   744 0000044B 31 D2                           	XOR	EDX,EDX
   745 0000044D BB 00000009                     	MOV	EBX,9
   746 00000452                                 L99:
   747 00000452 8D 04 11                        	LEA	EAX,DWORD [ECX+EDX*1]
   748 00000455 81 C2 00000198                  	ADD	EDX,408
   749 0000045B 4B                              	DEC	EBX
   750 0000045C C7 40 08 00000000               	MOV	DWORD [8+EAX],0
   751 00000463 C7 40 0C 00000000               	MOV	DWORD [12+EAX],0
   752 0000046A 79 E6                           	JNS	L99
   753 0000046C E8 000000A5                     	CALL	_processAlloc
   754 00000471 89 C6                           	MOV	ESI,EAX
   755 00000473 C7 40 04 00000002               	MOV	DWORD [4+EAX],2
   756 0000047A C7 40 0C 00000002               	MOV	DWORD [12+EAX],2
   757 00000481 C7 40 08 00000000               	MOV	DWORD [8+EAX],0
   758 00000488 50                              	PUSH	EAX
   759 00000489 E8 FFFFFE9E                     	CALL	_processAdd
   760 0000048E E8 FFFFFF25                     	CALL	_processSwitchSub
   761 00000493 FF 36                           	PUSH	DWORD [ESI]
   762 00000495 E8 [00000000]                   	CALL	_loadTr
   763 0000049A E8 FFFFFDBB                     	CALL	_timerAlloc
   764 0000049F 6A 02                           	PUSH	2
   765 000004A1 A3 [00002AA0]                   	MOV	DWORD [_mpTimer],EAX
   766 000004A6 50                              	PUSH	EAX
   767 000004A7 E8 FFFFFDFA                     	CALL	_timerSetTime
   768 000004AC E8 00000065                     	CALL	_processAlloc
   769 000004B1 68 00010000                     	PUSH	65536
   770 000004B6 FF 75 08                        	PUSH	DWORD [8+EBP]
   771 000004B9 89 C3                           	MOV	EBX,EAX
   772 000004BB E8 00000B88                     	CALL	_memsegAlloc4K
   773 000004C0 05 00010000                     	ADD	EAX,65536
   774 000004C5 89 43 64                        	MOV	DWORD [100+EBX],EAX
   775 000004C8 C7 43 4C [00000305]             	MOV	DWORD [76+EBX],_processIdle
   776 000004CF C7 43 74 00000008               	MOV	DWORD [116+EBX],8
   777 000004D6 C7 43 78 00000010               	MOV	DWORD [120+EBX],16
   778 000004DD C7 43 7C 00000008               	MOV	DWORD [124+EBX],8
   779 000004E4 C7 83 00000080 00000008         	MOV	DWORD [128+EBX],8
   780 000004EE C7 83 00000084 00000008         	MOV	DWORD [132+EBX],8
   781 000004F8 C7 83 00000088 00000008         	MOV	DWORD [136+EBX],8
   782 00000502 6A 01                           	PUSH	1
   783 00000504 6A 09                           	PUSH	9
   784 00000506 53                              	PUSH	EBX
   785 00000507 E8 000000B7                     	CALL	_processRun
   786 0000050C 8D 65 F4                        	LEA	ESP,DWORD [-12+EBP]
   787 0000050F 5B                              	POP	EBX
   788 00000510 89 F0                           	MOV	EAX,ESI
   789 00000512 5E                              	POP	ESI
   790 00000513 5F                              	POP	EDI
   791 00000514 5D                              	POP	EBP
   792 00000515 C3                              	RET
   793 00000516                                 	GLOBAL	_processAlloc
   794 00000516                                 _processAlloc:
   795 00000516 55                              	PUSH	EBP
   796 00000517 31 C9                           	XOR	ECX,ECX
   797 00000519 89 E5                           	MOV	EBP,ESP
   798 0000051B 31 D2                           	XOR	EDX,EDX
   799 0000051D                                 L110:
   800 0000051D 89 D0                           	MOV	EAX,EDX
   801 0000051F 03 05 [00002A9C]                	ADD	EAX,DWORD [_processctl]
   802 00000525 83 B8 00000FFC 00               	CMP	DWORD [4092+EAX],0
   803 0000052C 74 13                           	JE	L113
   804 0000052E 41                              	INC	ECX
   805 0000052F 81 C2 00000094                  	ADD	EDX,148
   806 00000535 81 F9 000003E7                  	CMP	ECX,999
   807 0000053B 7E E0                           	JLE	L110
   808 0000053D 31 C0                           	XOR	EAX,EAX
   809 0000053F                                 L104:
   810 0000053F 5D                              	POP	EBP
   811 00000540 C3                              	RET
   812 00000541                                 L113:
   813 00000541 05 00000FF8                     	ADD	EAX,4088
   814 00000546 C7 40 04 00000001               	MOV	DWORD [4+EAX],1
   815 0000054D C7 40 50 00000202               	MOV	DWORD [80+EAX],514
   816 00000554 C7 40 54 00000000               	MOV	DWORD [84+EAX],0
   817 0000055B C7 40 58 00000000               	MOV	DWORD [88+EAX],0
   818 00000562 C7 40 5C 00000000               	MOV	DWORD [92+EAX],0
   819 00000569 C7 40 60 00000000               	MOV	DWORD [96+EAX],0
   820 00000570 C7 40 68 00000000               	MOV	DWORD [104+EAX],0
   821 00000577 C7 40 6C 00000000               	MOV	DWORD [108+EAX],0
   822 0000057E C7 40 70 00000000               	MOV	DWORD [112+EAX],0
   823 00000585 C7 40 74 00000000               	MOV	DWORD [116+EAX],0
   824 0000058C C7 80 00000080 00000000         	MOV	DWORD [128+EAX],0
   825 00000596 C7 80 00000084 00000000         	MOV	DWORD [132+EAX],0
   826 000005A0 C7 80 00000088 00000000         	MOV	DWORD [136+EAX],0
   827 000005AA C7 80 0000008C 00000000         	MOV	DWORD [140+EAX],0
   828 000005B4 C7 80 00000090 40000000         	MOV	DWORD [144+EAX],1073741824
   829 000005BE E9 FFFFFF7C                     	JMP	L104
   830 000005C3                                 	GLOBAL	_processRun
   831 000005C3                                 _processRun:
   832 000005C3 55                              	PUSH	EBP
   833 000005C4 89 E5                           	MOV	EBP,ESP
   834 000005C6 56                              	PUSH	ESI
   835 000005C7 53                              	PUSH	EBX
   836 000005C8 8B 75 0C                        	MOV	ESI,DWORD [12+EBP]
   837 000005CB 8B 45 10                        	MOV	EAX,DWORD [16+EBP]
   838 000005CE 8B 5D 08                        	MOV	EBX,DWORD [8+EBP]
   839 000005D1 85 F6                           	TEST	ESI,ESI
   840 000005D3 78 3B                           	JS	L119
   841 000005D5                                 L115:
   842 000005D5 85 C0                           	TEST	EAX,EAX
   843 000005D7 7E 03                           	JLE	L116
   844 000005D9 89 43 0C                        	MOV	DWORD [12+EBX],EAX
   845 000005DC                                 L116:
   846 000005DC 83 7B 04 02                     	CMP	DWORD [4+EBX],2
   847 000005E0 74 20                           	JE	L120
   848 000005E2                                 L117:
   849 000005E2 83 7B 04 02                     	CMP	DWORD [4+EBX],2
   850 000005E6 74 0A                           	JE	L118
   851 000005E8 89 73 08                        	MOV	DWORD [8+EBX],ESI
   852 000005EB 53                              	PUSH	EBX
   853 000005EC E8 FFFFFD3B                     	CALL	_processAdd
   854 000005F1 59                              	POP	ECX
   855 000005F2                                 L118:
   856 000005F2 A1 [00002A9C]                   	MOV	EAX,DWORD [_processctl]
   857 000005F7 C6 40 04 01                     	MOV	BYTE [4+EAX],1
   858 000005FB 8D 65 F8                        	LEA	ESP,DWORD [-8+EBP]
   859 000005FE 5B                              	POP	EBX
   860 000005FF 5E                              	POP	ESI
   861 00000600 5D                              	POP	EBP
   862 00000601 C3                              	RET
   863 00000602                                 L120:
   864 00000602 39 73 08                        	CMP	DWORD [8+EBX],ESI
   865 00000605 74 DB                           	JE	L117
   866 00000607 53                              	PUSH	EBX
   867 00000608 E8 FFFFFD48                     	CALL	_processRemove
   868 0000060D 58                              	POP	EAX
   869 0000060E EB D2                           	JMP	L117
   870 00000610                                 L119:
   871 00000610 8B 73 08                        	MOV	ESI,DWORD [8+EBX]
   872 00000613 EB C0                           	JMP	L115
   873 00000615                                 	GLOBAL	_processSwitch
   874 00000615                                 _processSwitch:
   875 00000615 55                              	PUSH	EBP
   876 00000616 89 E5                           	MOV	EBP,ESP
   877 00000618 56                              	PUSH	ESI
   878 00000619 53                              	PUSH	EBX
   879 0000061A 8B 1D [00002A9C]                	MOV	EBX,DWORD [_processctl]
   880 00000620 8B 13                           	MOV	EDX,DWORD [EBX]
   881 00000622 69 D2 00000198                  	IMUL	EDX,EDX,408
   882 00000628 8D 14 1A                        	LEA	EDX,DWORD [EDX+EBX*1]
   883 0000062B 8D 4A 08                        	LEA	ECX,DWORD [8+EDX]
   884 0000062E 8B 41 04                        	MOV	EAX,DWORD [4+ECX]
   885 00000631 8B 74 81 08                     	MOV	ESI,DWORD [8+ECX+EAX*4]
   886 00000635 40                              	INC	EAX
   887 00000636 89 41 04                        	MOV	DWORD [4+ECX],EAX
   888 00000639 3B 42 08                        	CMP	EAX,DWORD [8+EDX]
   889 0000063C 74 4C                           	JE	L125
   890 0000063E                                 L122:
   891 0000063E 80 7B 04 00                     	CMP	BYTE [4+EBX],0
   892 00000642 75 2D                           	JNE	L126
   893 00000644                                 L123:
   894 00000644 8B 41 04                        	MOV	EAX,DWORD [4+ECX]
   895 00000647 8B 5C 81 08                     	MOV	EBX,DWORD [8+ECX+EAX*4]
   896 0000064B FF 73 0C                        	PUSH	DWORD [12+EBX]
   897 0000064E FF 35 [00002AA0]                	PUSH	DWORD [_mpTimer]
   898 00000654 E8 FFFFFC4D                     	CALL	_timerSetTime
   899 00000659 39 F3                           	CMP	EBX,ESI
   900 0000065B 59                              	POP	ECX
   901 0000065C 58                              	POP	EAX
   902 0000065D 74 0B                           	JE	L121
   903 0000065F FF 33                           	PUSH	DWORD [EBX]
   904 00000661 6A 00                           	PUSH	0
   905 00000663 E8 [00000000]                   	CALL	_farJmp
   906 00000668 58                              	POP	EAX
   907 00000669 5A                              	POP	EDX
   908 0000066A                                 L121:
   909 0000066A 8D 65 F8                        	LEA	ESP,DWORD [-8+EBP]
   910 0000066D 5B                              	POP	EBX
   911 0000066E 5E                              	POP	ESI
   912 0000066F 5D                              	POP	EBP
   913 00000670 C3                              	RET
   914 00000671                                 L126:
   915 00000671 E8 FFFFFD42                     	CALL	_processSwitchSub
   916 00000676 8B 15 [00002A9C]                	MOV	EDX,DWORD [_processctl]
   917 0000067C 8B 02                           	MOV	EAX,DWORD [EDX]
   918 0000067E 69 C0 00000198                  	IMUL	EAX,EAX,408
   919 00000684 8D 4C 10 08                     	LEA	ECX,DWORD [8+EAX+EDX*1]
   920 00000688 EB BA                           	JMP	L123
   921 0000068A                                 L125:
   922 0000068A C7 41 04 00000000               	MOV	DWORD [4+ECX],0
   923 00000691 EB AB                           	JMP	L122
   924 00000693                                 	GLOBAL	_processSleep
   925 00000693                                 _processSleep:
   926 00000693 55                              	PUSH	EBP
   927 00000694 89 E5                           	MOV	EBP,ESP
   928 00000696 56                              	PUSH	ESI
   929 00000697 53                              	PUSH	EBX
   930 00000698 8B 75 08                        	MOV	ESI,DWORD [8+EBP]
   931 0000069B 83 7E 04 02                     	CMP	DWORD [4+ESI],2
   932 0000069F 74 07                           	JE	L130
   933 000006A1                                 L127:
   934 000006A1 8D 65 F8                        	LEA	ESP,DWORD [-8+EBP]
   935 000006A4 5B                              	POP	EBX
   936 000006A5 5E                              	POP	ESI
   937 000006A6 5D                              	POP	EBP
   938 000006A7 C3                              	RET
   939 000006A8                                 L130:
   940 000006A8 E8 FFFFFC62                     	CALL	_processNow
   941 000006AD 56                              	PUSH	ESI
   942 000006AE 89 C3                           	MOV	EBX,EAX
   943 000006B0 E8 FFFFFCA0                     	CALL	_processRemove
   944 000006B5 59                              	POP	ECX
   945 000006B6 39 DE                           	CMP	ESI,EBX
   946 000006B8 75 E7                           	JNE	L127
   947 000006BA E8 FFFFFCF9                     	CALL	_processSwitchSub
   948 000006BF E8 FFFFFC4B                     	CALL	_processNow
   949 000006C4 FF 30                           	PUSH	DWORD [EAX]
   950 000006C6 6A 00                           	PUSH	0
   951 000006C8 E8 [00000000]                   	CALL	_farJmp
   952 000006CD 58                              	POP	EAX
   953 000006CE 5A                              	POP	EDX
   954 000006CF EB D0                           	JMP	L127
   955 000006D1                                 	GLOBAL	_init_pic
   956 000006D1                                 _init_pic:
   957 000006D1 55                              	PUSH	EBP
   958 000006D2 89 E5                           	MOV	EBP,ESP
   959 000006D4 68 000000FF                     	PUSH	255
   960 000006D9 6A 21                           	PUSH	33
   961 000006DB E8 [00000000]                   	CALL	_io_out8
   962 000006E0 68 000000FF                     	PUSH	255
   963 000006E5 68 000000A1                     	PUSH	161
   964 000006EA E8 [00000000]                   	CALL	_io_out8
   965 000006EF 6A 11                           	PUSH	17
   966 000006F1 6A 20                           	PUSH	32
   967 000006F3 E8 [00000000]                   	CALL	_io_out8
   968 000006F8 6A 20                           	PUSH	32
   969 000006FA 6A 21                           	PUSH	33
   970 000006FC E8 [00000000]                   	CALL	_io_out8
   971 00000701 83 C4 20                        	ADD	ESP,32
   972 00000704 6A 04                           	PUSH	4
   973 00000706 6A 21                           	PUSH	33
   974 00000708 E8 [00000000]                   	CALL	_io_out8
   975 0000070D 6A 01                           	PUSH	1
   976 0000070F 6A 21                           	PUSH	33
   977 00000711 E8 [00000000]                   	CALL	_io_out8
   978 00000716 6A 11                           	PUSH	17
   979 00000718 68 000000A0                     	PUSH	160
   980 0000071D E8 [00000000]                   	CALL	_io_out8
   981 00000722 6A 28                           	PUSH	40
   982 00000724 68 000000A1                     	PUSH	161
   983 00000729 E8 [00000000]                   	CALL	_io_out8
   984 0000072E 83 C4 20                        	ADD	ESP,32
   985 00000731 6A 02                           	PUSH	2
   986 00000733 68 000000A1                     	PUSH	161
   987 00000738 E8 [00000000]                   	CALL	_io_out8
   988 0000073D 6A 01                           	PUSH	1
   989 0000073F 68 000000A1                     	PUSH	161
   990 00000744 E8 [00000000]                   	CALL	_io_out8
   991 00000749 68 000000FB                     	PUSH	251
   992 0000074E 6A 21                           	PUSH	33
   993 00000750 E8 [00000000]                   	CALL	_io_out8
   994 00000755 68 000000FF                     	PUSH	255
   995 0000075A 68 000000A1                     	PUSH	161
   996 0000075F E8 [00000000]                   	CALL	_io_out8
   997 00000764 C9                              	LEAVE
   998 00000765 C3                              	RET
   999 00000766                                 	GLOBAL	_interruptHandler21
  1000 00000766                                 _interruptHandler21:
  1001 00000766 55                              	PUSH	EBP
  1002 00000767 89 E5                           	MOV	EBP,ESP
  1003 00000769 6A 61                           	PUSH	97
  1004 0000076B 6A 20                           	PUSH	32
  1005 0000076D E8 [00000000]                   	CALL	_io_out8
  1006 00000772 6A 60                           	PUSH	96
  1007 00000774 E8 [00000000]                   	CALL	_io_in8
  1008 00000779 03 05 [00000374]                	ADD	EAX,DWORD [_keyData0]
  1009 0000077F 50                              	PUSH	EAX
  1010 00000780 FF 35 [00000370]                	PUSH	DWORD [_keybuf]
  1011 00000786 E8 FFFFF8A6                     	CALL	_QueuePush
  1012 0000078B C9                              	LEAVE
  1013 0000078C C3                              	RET
  1014 0000078D                                 	GLOBAL	_interruptHandler27
  1015 0000078D                                 _interruptHandler27:
  1016 0000078D 55                              	PUSH	EBP
  1017 0000078E 89 E5                           	MOV	EBP,ESP
  1018 00000790 6A 67                           	PUSH	103
  1019 00000792 6A 20                           	PUSH	32
  1020 00000794 E8 [00000000]                   	CALL	_io_out8
  1021 00000799 C9                              	LEAVE
  1022 0000079A C3                              	RET
  1023 0000079B                                 	GLOBAL	_interruptHandler2c
  1024 0000079B                                 _interruptHandler2c:
  1025 0000079B 55                              	PUSH	EBP
  1026 0000079C 89 E5                           	MOV	EBP,ESP
  1027 0000079E 6A 64                           	PUSH	100
  1028 000007A0 68 000000A0                     	PUSH	160
  1029 000007A5 E8 [00000000]                   	CALL	_io_out8
  1030 000007AA 6A 62                           	PUSH	98
  1031 000007AC 6A 20                           	PUSH	32
  1032 000007AE E8 [00000000]                   	CALL	_io_out8
  1033 000007B3 6A 60                           	PUSH	96
  1034 000007B5 E8 [00000000]                   	CALL	_io_in8
  1035 000007BA 03 05 [0000037C]                	ADD	EAX,DWORD [_mouseData0]
  1036 000007C0 50                              	PUSH	EAX
  1037 000007C1 FF 35 [00000378]                	PUSH	DWORD [_mousebuf]
  1038 000007C7 E8 FFFFF865                     	CALL	_QueuePush
  1039 000007CC C9                              	LEAVE
  1040 000007CD C3                              	RET
  1041 000007CE                                 	GLOBAL	_interruptHandler20
  1042 000007CE                                 _interruptHandler20:
  1043 000007CE 55                              	PUSH	EBP
  1044 000007CF 89 E5                           	MOV	EBP,ESP
  1045 000007D1 56                              	PUSH	ESI
  1046 000007D2 53                              	PUSH	EBX
  1047 000007D3 31 F6                           	XOR	ESI,ESI
  1048 000007D5 6A 60                           	PUSH	96
  1049 000007D7 6A 20                           	PUSH	32
  1050 000007D9 E8 [00000000]                   	CALL	_io_out8
  1051 000007DE A1 [00000380]                   	MOV	EAX,DWORD [_timerctl]
  1052 000007E3 40                              	INC	EAX
  1053 000007E4 A3 [00000380]                   	MOV	DWORD [_timerctl],EAX
  1054 000007E9 39 05 [00000384]                	CMP	DWORD [_timerctl+4],EAX
  1055 000007EF 59                              	POP	ECX
  1056 000007F0 5B                              	POP	EBX
  1057 000007F1 77 4B                           	JA	L135
  1058 000007F3 8B 1D [00000388]                	MOV	EBX,DWORD [_timerctl+8]
  1059 000007F9                                 L137:
  1060 000007F9 8B 43 04                        	MOV	EAX,DWORD [4+EBX]
  1061 000007FC 3B 05 [00000380]                	CMP	EAX,DWORD [_timerctl]
  1062 00000802 77 29                           	JA	L138
  1063 00000804 C7 43 08 00000001               	MOV	DWORD [8+EBX],1
  1064 0000080B 3B 1D [00002AA0]                	CMP	EBX,DWORD [_mpTimer]
  1065 00000811 74 13                           	JE	L141
  1066 00000813 0F B6 43 10                     	MOVZX	EAX,BYTE [16+EBX]
  1067 00000817 50                              	PUSH	EAX
  1068 00000818 FF 73 0C                        	PUSH	DWORD [12+EBX]
  1069 0000081B E8 FFFFF811                     	CALL	_QueuePush
  1070 00000820 58                              	POP	EAX
  1071 00000821 5A                              	POP	EDX
  1072 00000822                                 L142:
  1073 00000822 8B 1B                           	MOV	EBX,DWORD [EBX]
  1074 00000824 EB D3                           	JMP	L137
  1075 00000826                                 L141:
  1076 00000826 BE 00000001                     	MOV	ESI,1
  1077 0000082B EB F5                           	JMP	L142
  1078 0000082D                                 L138:
  1079 0000082D A3 [00000384]                   	MOV	DWORD [_timerctl+4],EAX
  1080 00000832 89 1D [00000388]                	MOV	DWORD [_timerctl+8],EBX
  1081 00000838 89 F0                           	MOV	EAX,ESI
  1082 0000083A 84 C0                           	TEST	AL,AL
  1083 0000083C 75 07                           	JNE	L144
  1084 0000083E                                 L135:
  1085 0000083E 8D 65 F8                        	LEA	ESP,DWORD [-8+EBP]
  1086 00000841 5B                              	POP	EBX
  1087 00000842 5E                              	POP	ESI
  1088 00000843 5D                              	POP	EBP
  1089 00000844 C3                              	RET
  1090 00000845                                 L144:
  1091 00000845 8D 65 F8                        	LEA	ESP,DWORD [-8+EBP]
  1092 00000848 5B                              	POP	EBX
  1093 00000849 5E                              	POP	ESI
  1094 0000084A 5D                              	POP	EBP
  1095 0000084B E9 FFFFFDC5                     	JMP	_processSwitch
  1096 00000850                                 	GLOBAL	_setSegmdesc
  1097 00000850                                 _setSegmdesc:
  1098 00000850 55                              	PUSH	EBP
  1099 00000851 89 E5                           	MOV	EBP,ESP
  1100 00000853 53                              	PUSH	EBX
  1101 00000854 8B 55 0C                        	MOV	EDX,DWORD [12+EBP]
  1102 00000857 8B 4D 10                        	MOV	ECX,DWORD [16+EBP]
  1103 0000085A 8B 5D 08                        	MOV	EBX,DWORD [8+EBP]
  1104 0000085D 8B 45 14                        	MOV	EAX,DWORD [20+EBP]
  1105 00000860 81 FA 000FFFFF                  	CMP	EDX,1048575
  1106 00000866 76 08                           	JBE	L146
  1107 00000868 C1 EA 0C                        	SHR	EDX,12
  1108 0000086B 0D 00008000                     	OR	EAX,32768
  1109 00000870                                 L146:
  1110 00000870 66 89 13                        	MOV	WORD [EBX],DX
  1111 00000873 88 43 05                        	MOV	BYTE [5+EBX],AL
  1112 00000876 C1 EA 10                        	SHR	EDX,16
  1113 00000879 C1 F8 08                        	SAR	EAX,8
  1114 0000087C 83 E2 0F                        	AND	EDX,15
  1115 0000087F 66 89 4B 02                     	MOV	WORD [2+EBX],CX
  1116 00000883 83 E0 F0                        	AND	EAX,-16
  1117 00000886 C1 F9 10                        	SAR	ECX,16
  1118 00000889 09 C2                           	OR	EDX,EAX
  1119 0000088B 88 4B 04                        	MOV	BYTE [4+EBX],CL
  1120 0000088E 88 53 06                        	MOV	BYTE [6+EBX],DL
  1121 00000891 C1 F9 08                        	SAR	ECX,8
  1122 00000894 88 4B 07                        	MOV	BYTE [7+EBX],CL
  1123 00000897 5B                              	POP	EBX
  1124 00000898 5D                              	POP	EBP
  1125 00000899 C3                              	RET
  1126 0000089A                                 	GLOBAL	_setGatedesc
  1127 0000089A                                 _setGatedesc:
  1128 0000089A 55                              	PUSH	EBP
  1129 0000089B 89 E5                           	MOV	EBP,ESP
  1130 0000089D 53                              	PUSH	EBX
  1131 0000089E 8B 55 08                        	MOV	EDX,DWORD [8+EBP]
  1132 000008A1 8B 45 10                        	MOV	EAX,DWORD [16+EBP]
  1133 000008A4 8B 5D 14                        	MOV	EBX,DWORD [20+EBP]
  1134 000008A7 8B 4D 0C                        	MOV	ECX,DWORD [12+EBP]
  1135 000008AA 66 89 42 02                     	MOV	WORD [2+EDX],AX
  1136 000008AE 88 5A 05                        	MOV	BYTE [5+EDX],BL
  1137 000008B1 66 89 0A                        	MOV	WORD [EDX],CX
  1138 000008B4 89 D8                           	MOV	EAX,EBX
  1139 000008B6 C1 F8 08                        	SAR	EAX,8
  1140 000008B9 C1 F9 10                        	SAR	ECX,16
  1141 000008BC 88 42 04                        	MOV	BYTE [4+EDX],AL
  1142 000008BF 66 89 4A 06                     	MOV	WORD [6+EDX],CX
  1143 000008C3 5B                              	POP	EBX
  1144 000008C4 5D                              	POP	EBP
  1145 000008C5 C3                              	RET
  1146 000008C6                                 	GLOBAL	_initGdtit
  1147 000008C6                                 _initGdtit:
  1148 000008C6 55                              	PUSH	EBP
  1149 000008C7 89 E5                           	MOV	EBP,ESP
  1150 000008C9 56                              	PUSH	ESI
  1151 000008CA 53                              	PUSH	EBX
  1152 000008CB BE 00270000                     	MOV	ESI,2555904
  1153 000008D0 BB 00001FFF                     	MOV	EBX,8191
  1154 000008D5                                 L153:
  1155 000008D5 6A 00                           	PUSH	0
  1156 000008D7 6A 00                           	PUSH	0
  1157 000008D9 6A 00                           	PUSH	0
  1158 000008DB 56                              	PUSH	ESI
  1159 000008DC 83 C6 08                        	ADD	ESI,8
  1160 000008DF E8 FFFFFF6C                     	CALL	_setSegmdesc
  1161 000008E4 83 C4 10                        	ADD	ESP,16
  1162 000008E7 4B                              	DEC	EBX
  1163 000008E8 79 EB                           	JNS	L153
  1164 000008EA 68 00004092                     	PUSH	16530
  1165 000008EF BB 000000FF                     	MOV	EBX,255
  1166 000008F4 6A 00                           	PUSH	0
  1167 000008F6 6A FF                           	PUSH	-1
  1168 000008F8 68 00270008                     	PUSH	2555912
  1169 000008FD E8 FFFFFF4E                     	CALL	_setSegmdesc
  1170 00000902 68 0000409A                     	PUSH	16538
  1171 00000907 68 00280000                     	PUSH	2621440
  1172 0000090C 68 0007FFFF                     	PUSH	524287
  1173 00000911 68 00270010                     	PUSH	2555920
  1174 00000916 E8 FFFFFF35                     	CALL	_setSegmdesc
  1175 0000091B 83 C4 20                        	ADD	ESP,32
  1176 0000091E 68 00270000                     	PUSH	2555904
  1177 00000923 68 0000FFFF                     	PUSH	65535
  1178 00000928 E8 [00000000]                   	CALL	_loadGdtr
  1179 0000092D 5E                              	POP	ESI
  1180 0000092E 58                              	POP	EAX
  1181 0000092F BE 0026F800                     	MOV	ESI,2553856
  1182 00000934                                 L158:
  1183 00000934 6A 00                           	PUSH	0
  1184 00000936 6A 00                           	PUSH	0
  1185 00000938 6A 00                           	PUSH	0
  1186 0000093A 56                              	PUSH	ESI
  1187 0000093B 83 C6 08                        	ADD	ESI,8
  1188 0000093E E8 FFFFFF57                     	CALL	_setGatedesc
  1189 00000943 83 C4 10                        	ADD	ESP,16
  1190 00000946 4B                              	DEC	EBX
  1191 00000947 79 EB                           	JNS	L158
  1192 00000949 68 0026F800                     	PUSH	2553856
  1193 0000094E 68 000007FF                     	PUSH	2047
  1194 00000953 E8 [00000000]                   	CALL	_loadIdtr
  1195 00000958 68 0000008E                     	PUSH	142
  1196 0000095D 6A 10                           	PUSH	16
  1197 0000095F 68 [00000000]                   	PUSH	_asm_interruptHandler20
  1198 00000964 68 0026F900                     	PUSH	2554112
  1199 00000969 E8 FFFFFF2C                     	CALL	_setGatedesc
  1200 0000096E 68 0000008E                     	PUSH	142
  1201 00000973 6A 10                           	PUSH	16
  1202 00000975 68 [00000000]                   	PUSH	_asm_interruptHandler21
  1203 0000097A 68 0026F908                     	PUSH	2554120
  1204 0000097F E8 FFFFFF16                     	CALL	_setGatedesc
  1205 00000984 83 C4 28                        	ADD	ESP,40
  1206 00000987 68 0000008E                     	PUSH	142
  1207 0000098C 6A 10                           	PUSH	16
  1208 0000098E 68 [00000000]                   	PUSH	_asm_interruptHandler27
  1209 00000993 68 0026F938                     	PUSH	2554168
  1210 00000998 E8 FFFFFEFD                     	CALL	_setGatedesc
  1211 0000099D 68 0000008E                     	PUSH	142
  1212 000009A2 6A 10                           	PUSH	16
  1213 000009A4 68 [00000000]                   	PUSH	_asm_interruptHandler2c
  1214 000009A9 68 0026F960                     	PUSH	2554208
  1215 000009AE E8 FFFFFEE7                     	CALL	_setGatedesc
  1216 000009B3 8D 65 F8                        	LEA	ESP,DWORD [-8+EBP]
  1217 000009B6 5B                              	POP	EBX
  1218 000009B7 5E                              	POP	ESI
  1219 000009B8 5D                              	POP	EBP
  1220 000009B9 C3                              	RET
  1221 000009BA                                 	GLOBAL	_set_palette
  1222 000009BA                                 _set_palette:
  1223 000009BA 55                              	PUSH	EBP
  1224 000009BB 89 E5                           	MOV	EBP,ESP
  1225 000009BD 57                              	PUSH	EDI
  1226 000009BE 56                              	PUSH	ESI
  1227 000009BF 53                              	PUSH	EBX
  1228 000009C0 51                              	PUSH	ECX
  1229 000009C1 8B 5D 08                        	MOV	EBX,DWORD [8+EBP]
  1230 000009C4 8B 7D 0C                        	MOV	EDI,DWORD [12+EBP]
  1231 000009C7 8B 75 10                        	MOV	ESI,DWORD [16+EBP]
  1232 000009CA E8 [00000000]                   	CALL	_io_load_eflags
  1233 000009CF 89 45 F0                        	MOV	DWORD [-16+EBP],EAX
  1234 000009D2 E8 [00000000]                   	CALL	_io_cli
  1235 000009D7 53                              	PUSH	EBX
  1236 000009D8 68 000003C8                     	PUSH	968
  1237 000009DD E8 [00000000]                   	CALL	_io_out8
  1238 000009E2 39 FB                           	CMP	EBX,EDI
  1239 000009E4 58                              	POP	EAX
  1240 000009E5 5A                              	POP	EDX
  1241 000009E6 7D 48                           	JGE	L170
  1242 000009E8 29 DF                           	SUB	EDI,EBX
  1243 000009EA 89 FB                           	MOV	EBX,EDI
  1244 000009EC                                 L168:
  1245 000009EC 8A 06                           	MOV	AL,BYTE [ESI]
  1246 000009EE C0 E8 02                        	SHR	AL,2
  1247 000009F1 0F B6 C0                        	MOVZX	EAX,AL
  1248 000009F4 50                              	PUSH	EAX
  1249 000009F5 68 000003C9                     	PUSH	969
  1250 000009FA E8 [00000000]                   	CALL	_io_out8
  1251 000009FF 8A 46 01                        	MOV	AL,BYTE [1+ESI]
  1252 00000A02 C0 E8 02                        	SHR	AL,2
  1253 00000A05 0F B6 C0                        	MOVZX	EAX,AL
  1254 00000A08 50                              	PUSH	EAX
  1255 00000A09 68 000003C9                     	PUSH	969
  1256 00000A0E E8 [00000000]                   	CALL	_io_out8
  1257 00000A13 8A 46 02                        	MOV	AL,BYTE [2+ESI]
  1258 00000A16 C0 E8 02                        	SHR	AL,2
  1259 00000A19 83 C6 03                        	ADD	ESI,3
  1260 00000A1C 0F B6 C0                        	MOVZX	EAX,AL
  1261 00000A1F 50                              	PUSH	EAX
  1262 00000A20 68 000003C9                     	PUSH	969
  1263 00000A25 E8 [00000000]                   	CALL	_io_out8
  1264 00000A2A 83 C4 18                        	ADD	ESP,24
  1265 00000A2D 4B                              	DEC	EBX
  1266 00000A2E 75 BC                           	JNE	L168
  1267 00000A30                                 L170:
  1268 00000A30 8B 45 F0                        	MOV	EAX,DWORD [-16+EBP]
  1269 00000A33 89 45 08                        	MOV	DWORD [8+EBP],EAX
  1270 00000A36 8D 65 F4                        	LEA	ESP,DWORD [-12+EBP]
  1271 00000A39 5B                              	POP	EBX
  1272 00000A3A 5E                              	POP	ESI
  1273 00000A3B 5F                              	POP	EDI
  1274 00000A3C 5D                              	POP	EBP
  1275 00000A3D E9 [00000000]                   	JMP	_io_store_eflags
  1276                                          [SECTION .data]
  1277 00000100                                 _table_rgb.0:
  1278 00000100 00                              	DB	0
  1279 00000101 00                              	DB	0
  1280 00000102 00                              	DB	0
  1281 00000103 FF                              	DB	-1
  1282 00000104 00                              	DB	0
  1283 00000105 00                              	DB	0
  1284 00000106 00                              	DB	0
  1285 00000107 FF                              	DB	-1
  1286 00000108 00                              	DB	0
  1287 00000109 FF                              	DB	-1
  1288 0000010A FF                              	DB	-1
  1289 0000010B 00                              	DB	0
  1290 0000010C 00                              	DB	0
  1291 0000010D 00                              	DB	0
  1292 0000010E FF                              	DB	-1
  1293 0000010F FF                              	DB	-1
  1294 00000110 00                              	DB	0
  1295 00000111 FF                              	DB	-1
  1296 00000112 00                              	DB	0
  1297 00000113 FF                              	DB	-1
  1298 00000114 FF                              	DB	-1
  1299 00000115 FF                              	DB	-1
  1300 00000116 FF                              	DB	-1
  1301 00000117 FF                              	DB	-1
  1302 00000118 C6                              	DB	-58
  1303 00000119 C6                              	DB	-58
  1304 0000011A C6                              	DB	-58
  1305 0000011B 84                              	DB	-124
  1306 0000011C 00                              	DB	0
  1307 0000011D 00                              	DB	0
  1308 0000011E 00                              	DB	0
  1309 0000011F 84                              	DB	-124
  1310 00000120 00                              	DB	0
  1311 00000121 84                              	DB	-124
  1312 00000122 84                              	DB	-124
  1313 00000123 00                              	DB	0
  1314 00000124 00                              	DB	0
  1315 00000125 00                              	DB	0
  1316 00000126 84                              	DB	-124
  1317 00000127 84                              	DB	-124
  1318 00000128 00                              	DB	0
  1319 00000129 84                              	DB	-124
  1320 0000012A 00                              	DB	0
  1321 0000012B 84                              	DB	-124
  1322 0000012C 84                              	DB	-124
  1323 0000012D 84                              	DB	-124
  1324 0000012E 84                              	DB	-124
  1325 0000012F 84                              	DB	-124
  1326                                          [SECTION .text]
  1327 00000A42                                 	GLOBAL	_init_palette
  1328 00000A42                                 _init_palette:
  1329 00000A42 55                              	PUSH	EBP
  1330 00000A43 89 E5                           	MOV	EBP,ESP
  1331 00000A45 68 [00000100]                   	PUSH	_table_rgb.0
  1332 00000A4A 6A 0F                           	PUSH	15
  1333 00000A4C 6A 00                           	PUSH	0
  1334 00000A4E E8 FFFFFF67                     	CALL	_set_palette
  1335 00000A53 C9                              	LEAVE
  1336 00000A54 C3                              	RET
  1337 00000A55                                 	GLOBAL	_boxFill8
  1338 00000A55                                 _boxFill8:
  1339 00000A55 55                              	PUSH	EBP
  1340 00000A56 89 E5                           	MOV	EBP,ESP
  1341 00000A58 57                              	PUSH	EDI
  1342 00000A59 56                              	PUSH	ESI
  1343 00000A5A 53                              	PUSH	EBX
  1344 00000A5B 57                              	PUSH	EDI
  1345 00000A5C 57                              	PUSH	EDI
  1346 00000A5D 8A 45 10                        	MOV	AL,BYTE [16+EBP]
  1347 00000A60 8B 4D 18                        	MOV	ECX,DWORD [24+EBP]
  1348 00000A63 8B 7D 1C                        	MOV	EDI,DWORD [28+EBP]
  1349 00000A66 88 45 F3                        	MOV	BYTE [-13+EBP],AL
  1350 00000A69 3B 4D 20                        	CMP	ECX,DWORD [32+EBP]
  1351 00000A6C 7F 31                           	JG	L184
  1352 00000A6E 8B 5D 0C                        	MOV	EBX,DWORD [12+EBP]
  1353 00000A71 0F AF D9                        	IMUL	EBX,ECX
  1354 00000A74                                 L182:
  1355 00000A74 8B 55 14                        	MOV	EDX,DWORD [20+EBP]
  1356 00000A77 39 FA                           	CMP	EDX,EDI
  1357 00000A79 7F 1B                           	JG	L186
  1358 00000A7B 8B 75 08                        	MOV	ESI,DWORD [8+EBP]
  1359 00000A7E 01 DE                           	ADD	ESI,EBX
  1360 00000A80 01 D6                           	ADD	ESI,EDX
  1361 00000A82 89 75 EC                        	MOV	DWORD [-20+EBP],ESI
  1362 00000A85                                 L181:
  1363 00000A85 8B 75 EC                        	MOV	ESI,DWORD [-20+EBP]
  1364 00000A88 8A 45 F3                        	MOV	AL,BYTE [-13+EBP]
  1365 00000A8B 42                              	INC	EDX
  1366 00000A8C 88 06                           	MOV	BYTE [ESI],AL
  1367 00000A8E 46                              	INC	ESI
  1368 00000A8F 89 75 EC                        	MOV	DWORD [-20+EBP],ESI
  1369 00000A92 39 FA                           	CMP	EDX,EDI
  1370 00000A94 7E EF                           	JLE	L181
  1371 00000A96                                 L186:
  1372 00000A96 41                              	INC	ECX
  1373 00000A97 03 5D 0C                        	ADD	EBX,DWORD [12+EBP]
  1374 00000A9A 3B 4D 20                        	CMP	ECX,DWORD [32+EBP]
  1375 00000A9D 7E D5                           	JLE	L182
  1376 00000A9F                                 L184:
  1377 00000A9F 5B                              	POP	EBX
  1378 00000AA0 5E                              	POP	ESI
  1379 00000AA1 5B                              	POP	EBX
  1380 00000AA2 5E                              	POP	ESI
  1381 00000AA3 5F                              	POP	EDI
  1382 00000AA4 5D                              	POP	EBP
  1383 00000AA5 C3                              	RET
  1384 00000AA6                                 	GLOBAL	_init_GUI
  1385 00000AA6                                 _init_GUI:
  1386 00000AA6 55                              	PUSH	EBP
  1387 00000AA7 89 E5                           	MOV	EBP,ESP
  1388 00000AA9 57                              	PUSH	EDI
  1389 00000AAA 56                              	PUSH	ESI
  1390 00000AAB 53                              	PUSH	EBX
  1391 00000AAC 83 EC 0C                        	SUB	ESP,12
  1392 00000AAF 8B 45 10                        	MOV	EAX,DWORD [16+EBP]
  1393 00000AB2 8B 7D 0C                        	MOV	EDI,DWORD [12+EBP]
  1394 00000AB5 83 E8 1D                        	SUB	EAX,29
  1395 00000AB8 4F                              	DEC	EDI
  1396 00000AB9 50                              	PUSH	EAX
  1397 00000ABA 57                              	PUSH	EDI
  1398 00000ABB 6A 00                           	PUSH	0
  1399 00000ABD 6A 00                           	PUSH	0
  1400 00000ABF 6A 0E                           	PUSH	14
  1401 00000AC1 FF 75 0C                        	PUSH	DWORD [12+EBP]
  1402 00000AC4 FF 75 08                        	PUSH	DWORD [8+EBP]
  1403 00000AC7 E8 FFFFFF89                     	CALL	_boxFill8
  1404 00000ACC 8B 45 10                        	MOV	EAX,DWORD [16+EBP]
  1405 00000ACF 83 E8 1C                        	SUB	EAX,28
  1406 00000AD2 50                              	PUSH	EAX
  1407 00000AD3 57                              	PUSH	EDI
  1408 00000AD4 50                              	PUSH	EAX
  1409 00000AD5 6A 00                           	PUSH	0
  1410 00000AD7 6A 08                           	PUSH	8
  1411 00000AD9 FF 75 0C                        	PUSH	DWORD [12+EBP]
  1412 00000ADC FF 75 08                        	PUSH	DWORD [8+EBP]
  1413 00000ADF E8 FFFFFF71                     	CALL	_boxFill8
  1414 00000AE4 8B 45 10                        	MOV	EAX,DWORD [16+EBP]
  1415 00000AE7 83 C4 38                        	ADD	ESP,56
  1416 00000AEA 83 E8 1B                        	SUB	EAX,27
  1417 00000AED 50                              	PUSH	EAX
  1418 00000AEE 57                              	PUSH	EDI
  1419 00000AEF 50                              	PUSH	EAX
  1420 00000AF0 6A 00                           	PUSH	0
  1421 00000AF2 6A 07                           	PUSH	7
  1422 00000AF4 FF 75 0C                        	PUSH	DWORD [12+EBP]
  1423 00000AF7 FF 75 08                        	PUSH	DWORD [8+EBP]
  1424 00000AFA E8 FFFFFF56                     	CALL	_boxFill8
  1425 00000AFF 8B 45 10                        	MOV	EAX,DWORD [16+EBP]
  1426 00000B02 48                              	DEC	EAX
  1427 00000B03 50                              	PUSH	EAX
  1428 00000B04 8B 45 10                        	MOV	EAX,DWORD [16+EBP]
  1429 00000B07 57                              	PUSH	EDI
  1430 00000B08 83 E8 1A                        	SUB	EAX,26
  1431 00000B0B 50                              	PUSH	EAX
  1432 00000B0C 6A 00                           	PUSH	0
  1433 00000B0E 6A 08                           	PUSH	8
  1434 00000B10 FF 75 0C                        	PUSH	DWORD [12+EBP]
  1435 00000B13 FF 75 08                        	PUSH	DWORD [8+EBP]
  1436 00000B16 E8 FFFFFF3A                     	CALL	_boxFill8
  1437 00000B1B 8B 75 10                        	MOV	ESI,DWORD [16+EBP]
  1438 00000B1E 83 C4 38                        	ADD	ESP,56
  1439 00000B21 83 EE 18                        	SUB	ESI,24
  1440 00000B24 56                              	PUSH	ESI
  1441 00000B25 6A 3B                           	PUSH	59
  1442 00000B27 56                              	PUSH	ESI
  1443 00000B28 6A 03                           	PUSH	3
  1444 00000B2A 6A 07                           	PUSH	7
  1445 00000B2C FF 75 0C                        	PUSH	DWORD [12+EBP]
  1446 00000B2F FF 75 08                        	PUSH	DWORD [8+EBP]
  1447 00000B32 E8 FFFFFF1E                     	CALL	_boxFill8
  1448 00000B37 8B 45 10                        	MOV	EAX,DWORD [16+EBP]
  1449 00000B3A 83 E8 04                        	SUB	EAX,4
  1450 00000B3D 50                              	PUSH	EAX
  1451 00000B3E 89 45 F0                        	MOV	DWORD [-16+EBP],EAX
  1452 00000B41 6A 02                           	PUSH	2
  1453 00000B43 56                              	PUSH	ESI
  1454 00000B44 6A 02                           	PUSH	2
  1455 00000B46 6A 07                           	PUSH	7
  1456 00000B48 FF 75 0C                        	PUSH	DWORD [12+EBP]
  1457 00000B4B FF 75 08                        	PUSH	DWORD [8+EBP]
  1458 00000B4E E8 FFFFFF02                     	CALL	_boxFill8
  1459 00000B53 83 C4 38                        	ADD	ESP,56
  1460 00000B56 FF 75 F0                        	PUSH	DWORD [-16+EBP]
  1461 00000B59 6A 3B                           	PUSH	59
  1462 00000B5B FF 75 F0                        	PUSH	DWORD [-16+EBP]
  1463 00000B5E 6A 03                           	PUSH	3
  1464 00000B60 6A 0F                           	PUSH	15
  1465 00000B62 FF 75 0C                        	PUSH	DWORD [12+EBP]
  1466 00000B65 FF 75 08                        	PUSH	DWORD [8+EBP]
  1467 00000B68 E8 FFFFFEE8                     	CALL	_boxFill8
  1468 00000B6D 8B 45 10                        	MOV	EAX,DWORD [16+EBP]
  1469 00000B70 83 E8 05                        	SUB	EAX,5
  1470 00000B73 50                              	PUSH	EAX
  1471 00000B74 8B 45 10                        	MOV	EAX,DWORD [16+EBP]
  1472 00000B77 6A 3B                           	PUSH	59
  1473 00000B79 83 E8 17                        	SUB	EAX,23
  1474 00000B7C 50                              	PUSH	EAX
  1475 00000B7D 89 45 EC                        	MOV	DWORD [-20+EBP],EAX
  1476 00000B80 6A 3B                           	PUSH	59
  1477 00000B82 6A 0F                           	PUSH	15
  1478 00000B84 FF 75 0C                        	PUSH	DWORD [12+EBP]
  1479 00000B87 FF 75 08                        	PUSH	DWORD [8+EBP]
  1480 00000B8A E8 FFFFFEC6                     	CALL	_boxFill8
  1481 00000B8F 8B 45 10                        	MOV	EAX,DWORD [16+EBP]
  1482 00000B92 83 C4 38                        	ADD	ESP,56
  1483 00000B95 83 E8 03                        	SUB	EAX,3
  1484 00000B98 89 45 E8                        	MOV	DWORD [-24+EBP],EAX
  1485 00000B9B 50                              	PUSH	EAX
  1486 00000B9C 6A 3B                           	PUSH	59
  1487 00000B9E 50                              	PUSH	EAX
  1488 00000B9F 6A 02                           	PUSH	2
  1489 00000BA1 6A 00                           	PUSH	0
  1490 00000BA3 FF 75 0C                        	PUSH	DWORD [12+EBP]
  1491 00000BA6 FF 75 08                        	PUSH	DWORD [8+EBP]
  1492 00000BA9 E8 FFFFFEA7                     	CALL	_boxFill8
  1493 00000BAE FF 75 E8                        	PUSH	DWORD [-24+EBP]
  1494 00000BB1 6A 3C                           	PUSH	60
  1495 00000BB3 56                              	PUSH	ESI
  1496 00000BB4 6A 3C                           	PUSH	60
  1497 00000BB6 6A 00                           	PUSH	0
  1498 00000BB8 FF 75 0C                        	PUSH	DWORD [12+EBP]
  1499 00000BBB FF 75 08                        	PUSH	DWORD [8+EBP]
  1500 00000BBE E8 FFFFFE92                     	CALL	_boxFill8
  1501 00000BC3 8B 7D 0C                        	MOV	EDI,DWORD [12+EBP]
  1502 00000BC6 83 C4 38                        	ADD	ESP,56
  1503 00000BC9 8B 5D 0C                        	MOV	EBX,DWORD [12+EBP]
  1504 00000BCC 83 EB 04                        	SUB	EBX,4
  1505 00000BCF 83 EF 2F                        	SUB	EDI,47
  1506 00000BD2 56                              	PUSH	ESI
  1507 00000BD3 53                              	PUSH	EBX
  1508 00000BD4 56                              	PUSH	ESI
  1509 00000BD5 57                              	PUSH	EDI
  1510 00000BD6 6A 0F                           	PUSH	15
  1511 00000BD8 FF 75 0C                        	PUSH	DWORD [12+EBP]
  1512 00000BDB FF 75 08                        	PUSH	DWORD [8+EBP]
  1513 00000BDE E8 FFFFFE72                     	CALL	_boxFill8
  1514 00000BE3 FF 75 F0                        	PUSH	DWORD [-16+EBP]
  1515 00000BE6 57                              	PUSH	EDI
  1516 00000BE7 FF 75 EC                        	PUSH	DWORD [-20+EBP]
  1517 00000BEA 57                              	PUSH	EDI
  1518 00000BEB 6A 0F                           	PUSH	15
  1519 00000BED FF 75 0C                        	PUSH	DWORD [12+EBP]
  1520 00000BF0 FF 75 08                        	PUSH	DWORD [8+EBP]
  1521 00000BF3 E8 FFFFFE5D                     	CALL	_boxFill8
  1522 00000BF8 83 C4 38                        	ADD	ESP,56
  1523 00000BFB FF 75 E8                        	PUSH	DWORD [-24+EBP]
  1524 00000BFE 53                              	PUSH	EBX
  1525 00000BFF FF 75 E8                        	PUSH	DWORD [-24+EBP]
  1526 00000C02 57                              	PUSH	EDI
  1527 00000C03 6A 07                           	PUSH	7
  1528 00000C05 FF 75 0C                        	PUSH	DWORD [12+EBP]
  1529 00000C08 FF 75 08                        	PUSH	DWORD [8+EBP]
  1530 00000C0B E8 FFFFFE45                     	CALL	_boxFill8
  1531 00000C10 8B 45 0C                        	MOV	EAX,DWORD [12+EBP]
  1532 00000C13 FF 75 E8                        	PUSH	DWORD [-24+EBP]
  1533 00000C16 83 E8 03                        	SUB	EAX,3
  1534 00000C19 50                              	PUSH	EAX
  1535 00000C1A 56                              	PUSH	ESI
  1536 00000C1B 50                              	PUSH	EAX
  1537 00000C1C 6A 07                           	PUSH	7
  1538 00000C1E FF 75 0C                        	PUSH	DWORD [12+EBP]
  1539 00000C21 FF 75 08                        	PUSH	DWORD [8+EBP]
  1540 00000C24 E8 FFFFFE2C                     	CALL	_boxFill8
  1541 00000C29 8D 65 F4                        	LEA	ESP,DWORD [-12+EBP]
  1542 00000C2C 5B                              	POP	EBX
  1543 00000C2D 5E                              	POP	ESI
  1544 00000C2E 5F                              	POP	EDI
  1545 00000C2F 5D                              	POP	EBP
  1546 00000C30 C3                              	RET
  1547 00000C31                                 	GLOBAL	_putFont8
  1548 00000C31                                 _putFont8:
  1549 00000C31 55                              	PUSH	EBP
  1550 00000C32 89 E5                           	MOV	EBP,ESP
  1551 00000C34 57                              	PUSH	EDI
  1552 00000C35 56                              	PUSH	ESI
  1553 00000C36 31 F6                           	XOR	ESI,ESI
  1554 00000C38 53                              	PUSH	EBX
  1555 00000C39 8B 7D 1C                        	MOV	EDI,DWORD [28+EBP]
  1556 00000C3C 8A 5D 18                        	MOV	BL,BYTE [24+EBP]
  1557 00000C3F                                 L201:
  1558 00000C3F 8B 45 14                        	MOV	EAX,DWORD [20+EBP]
  1559 00000C42 8B 55 10                        	MOV	EDX,DWORD [16+EBP]
  1560 00000C45 01 F0                           	ADD	EAX,ESI
  1561 00000C47 0F AF 45 0C                     	IMUL	EAX,DWORD [12+EBP]
  1562 00000C4B 03 45 08                        	ADD	EAX,DWORD [8+EBP]
  1563 00000C4E 8D 0C 02                        	LEA	ECX,DWORD [EDX+EAX*1]
  1564 00000C51 8A 14 3E                        	MOV	DL,BYTE [ESI+EDI*1]
  1565 00000C54 84 D2                           	TEST	DL,DL
  1566 00000C56 79 02                           	JNS	L193
  1567 00000C58 88 19                           	MOV	BYTE [ECX],BL
  1568 00000C5A                                 L193:
  1569 00000C5A 88 D0                           	MOV	AL,DL
  1570 00000C5C 83 E0 40                        	AND	EAX,64
  1571 00000C5F 84 C0                           	TEST	AL,AL
  1572 00000C61 74 03                           	JE	L194
  1573 00000C63 88 59 01                        	MOV	BYTE [1+ECX],BL
  1574 00000C66                                 L194:
  1575 00000C66 88 D0                           	MOV	AL,DL
  1576 00000C68 83 E0 20                        	AND	EAX,32
  1577 00000C6B 84 C0                           	TEST	AL,AL
  1578 00000C6D 74 03                           	JE	L195
  1579 00000C6F 88 59 02                        	MOV	BYTE [2+ECX],BL
  1580 00000C72                                 L195:
  1581 00000C72 88 D0                           	MOV	AL,DL
  1582 00000C74 83 E0 10                        	AND	EAX,16
  1583 00000C77 84 C0                           	TEST	AL,AL
  1584 00000C79 74 03                           	JE	L196
  1585 00000C7B 88 59 03                        	MOV	BYTE [3+ECX],BL
  1586 00000C7E                                 L196:
  1587 00000C7E 88 D0                           	MOV	AL,DL
  1588 00000C80 83 E0 08                        	AND	EAX,8
  1589 00000C83 84 C0                           	TEST	AL,AL
  1590 00000C85 74 03                           	JE	L197
  1591 00000C87 88 59 04                        	MOV	BYTE [4+ECX],BL
  1592 00000C8A                                 L197:
  1593 00000C8A 88 D0                           	MOV	AL,DL
  1594 00000C8C 83 E0 04                        	AND	EAX,4
  1595 00000C8F 84 C0                           	TEST	AL,AL
  1596 00000C91 74 03                           	JE	L198
  1597 00000C93 88 59 05                        	MOV	BYTE [5+ECX],BL
  1598 00000C96                                 L198:
  1599 00000C96 88 D0                           	MOV	AL,DL
  1600 00000C98 83 E0 02                        	AND	EAX,2
  1601 00000C9B 84 C0                           	TEST	AL,AL
  1602 00000C9D 74 03                           	JE	L199
  1603 00000C9F 88 59 06                        	MOV	BYTE [6+ECX],BL
  1604 00000CA2                                 L199:
  1605 00000CA2 83 E2 01                        	AND	EDX,1
  1606 00000CA5 84 D2                           	TEST	DL,DL
  1607 00000CA7 74 03                           	JE	L191
  1608 00000CA9 88 59 07                        	MOV	BYTE [7+ECX],BL
  1609 00000CAC                                 L191:
  1610 00000CAC 46                              	INC	ESI
  1611 00000CAD 83 FE 0F                        	CMP	ESI,15
  1612 00000CB0 7E 8D                           	JLE	L201
  1613 00000CB2 5B                              	POP	EBX
  1614 00000CB3 5E                              	POP	ESI
  1615 00000CB4 5F                              	POP	EDI
  1616 00000CB5 5D                              	POP	EBP
  1617 00000CB6 C3                              	RET
  1618 00000CB7                                 	GLOBAL	_putFont8_asc
  1619 00000CB7                                 _putFont8_asc:
  1620 00000CB7 55                              	PUSH	EBP
  1621 00000CB8 89 E5                           	MOV	EBP,ESP
  1622 00000CBA 57                              	PUSH	EDI
  1623 00000CBB 56                              	PUSH	ESI
  1624 00000CBC 53                              	PUSH	EBX
  1625 00000CBD 50                              	PUSH	EAX
  1626 00000CBE 8B 5D 1C                        	MOV	EBX,DWORD [28+EBP]
  1627 00000CC1 8A 45 18                        	MOV	AL,BYTE [24+EBP]
  1628 00000CC4 88 45 F3                        	MOV	BYTE [-13+EBP],AL
  1629 00000CC7 8B 75 10                        	MOV	ESI,DWORD [16+EBP]
  1630 00000CCA 8B 7D 14                        	MOV	EDI,DWORD [20+EBP]
  1631 00000CCD 80 3B 00                        	CMP	BYTE [EBX],0
  1632 00000CD0 75 08                           	JNE	L209
  1633 00000CD2                                 L211:
  1634 00000CD2 8D 65 F4                        	LEA	ESP,DWORD [-12+EBP]
  1635 00000CD5 5B                              	POP	EBX
  1636 00000CD6 5E                              	POP	ESI
  1637 00000CD7 5F                              	POP	EDI
  1638 00000CD8 5D                              	POP	EBP
  1639 00000CD9 C3                              	RET
  1640 00000CDA                                 L209:
  1641 00000CDA 0F B6 03                        	MOVZX	EAX,BYTE [EBX]
  1642 00000CDD C1 E0 04                        	SAL	EAX,4
  1643 00000CE0 43                              	INC	EBX
  1644 00000CE1 05 [00000000]                   	ADD	EAX,_font
  1645 00000CE6 50                              	PUSH	EAX
  1646 00000CE7 0F BE 45 F3                     	MOVSX	EAX,BYTE [-13+EBP]
  1647 00000CEB 50                              	PUSH	EAX
  1648 00000CEC 57                              	PUSH	EDI
  1649 00000CED 56                              	PUSH	ESI
  1650 00000CEE 83 C6 08                        	ADD	ESI,8
  1651 00000CF1 FF 75 0C                        	PUSH	DWORD [12+EBP]
  1652 00000CF4 FF 75 08                        	PUSH	DWORD [8+EBP]
  1653 00000CF7 E8 FFFFFF35                     	CALL	_putFont8
  1654 00000CFC 83 C4 18                        	ADD	ESP,24
  1655 00000CFF 80 3B 00                        	CMP	BYTE [EBX],0
  1656 00000D02 75 D6                           	JNE	L209
  1657 00000D04 EB CC                           	JMP	L211
  1658 00000D06                                 	GLOBAL	_putFont8AscSheet
  1659 00000D06                                 _putFont8AscSheet:
  1660 00000D06 55                              	PUSH	EBP
  1661 00000D07 89 E5                           	MOV	EBP,ESP
  1662 00000D09 57                              	PUSH	EDI
  1663 00000D0A 56                              	PUSH	ESI
  1664 00000D0B 53                              	PUSH	EBX
  1665 00000D0C 83 EC 0C                        	SUB	ESP,12
  1666 00000D0F 8B 45 08                        	MOV	EAX,DWORD [8+EBP]
  1667 00000D12 8B 7D 10                        	MOV	EDI,DWORD [16+EBP]
  1668 00000D15 89 45 F0                        	MOV	DWORD [-16+EBP],EAX
  1669 00000D18 8B 5D 14                        	MOV	EBX,DWORD [20+EBP]
  1670 00000D1B 8B 45 0C                        	MOV	EAX,DWORD [12+EBP]
  1671 00000D1E 89 45 EC                        	MOV	DWORD [-20+EBP],EAX
  1672 00000D21 8B 45 1C                        	MOV	EAX,DWORD [28+EBP]
  1673 00000D24 89 45 E8                        	MOV	DWORD [-24+EBP],EAX
  1674 00000D27 8D 47 0F                        	LEA	EAX,DWORD [15+EDI]
  1675 00000D2A 50                              	PUSH	EAX
  1676 00000D2B 8B 45 EC                        	MOV	EAX,DWORD [-20+EBP]
  1677 00000D2E 8B 75 20                        	MOV	ESI,DWORD [32+EBP]
  1678 00000D31 0F BE DB                        	MOVSX	EBX,BL
  1679 00000D34 8D 34 F0                        	LEA	ESI,DWORD [EAX+ESI*8]
  1680 00000D37 8D 46 FF                        	LEA	EAX,DWORD [-1+ESI]
  1681 00000D3A 50                              	PUSH	EAX
  1682 00000D3B 57                              	PUSH	EDI
  1683 00000D3C FF 75 EC                        	PUSH	DWORD [-20+EBP]
  1684 00000D3F 0F B6 45 18                     	MOVZX	EAX,BYTE [24+EBP]
  1685 00000D43 50                              	PUSH	EAX
  1686 00000D44 8B 45 F0                        	MOV	EAX,DWORD [-16+EBP]
  1687 00000D47 FF 70 04                        	PUSH	DWORD [4+EAX]
  1688 00000D4A FF 30                           	PUSH	DWORD [EAX]
  1689 00000D4C E8 FFFFFD04                     	CALL	_boxFill8
  1690 00000D51 FF 75 E8                        	PUSH	DWORD [-24+EBP]
  1691 00000D54 53                              	PUSH	EBX
  1692 00000D55 57                              	PUSH	EDI
  1693 00000D56 FF 75 EC                        	PUSH	DWORD [-20+EBP]
  1694 00000D59 8B 45 F0                        	MOV	EAX,DWORD [-16+EBP]
  1695 00000D5C FF 70 04                        	PUSH	DWORD [4+EAX]
  1696 00000D5F FF 30                           	PUSH	DWORD [EAX]
  1697 00000D61 E8 FFFFFF51                     	CALL	_putFont8_asc
  1698 00000D66 89 7D 10                        	MOV	DWORD [16+EBP],EDI
  1699 00000D69 8D 47 10                        	LEA	EAX,DWORD [16+EDI]
  1700 00000D6C 89 75 14                        	MOV	DWORD [20+EBP],ESI
  1701 00000D6F 89 45 18                        	MOV	DWORD [24+EBP],EAX
  1702 00000D72 83 C4 34                        	ADD	ESP,52
  1703 00000D75 8B 45 EC                        	MOV	EAX,DWORD [-20+EBP]
  1704 00000D78 89 45 0C                        	MOV	DWORD [12+EBP],EAX
  1705 00000D7B 8B 45 F0                        	MOV	EAX,DWORD [-16+EBP]
  1706 00000D7E 89 45 08                        	MOV	DWORD [8+EBP],EAX
  1707 00000D81 8D 65 F4                        	LEA	ESP,DWORD [-12+EBP]
  1708 00000D84 5B                              	POP	EBX
  1709 00000D85 5E                              	POP	ESI
  1710 00000D86 5F                              	POP	EDI
  1711 00000D87 5D                              	POP	EBP
  1712 00000D88 E9 0000065B                     	JMP	_sheetRefresh
  1713                                          [SECTION .data]
  1714 00000130                                 _cursor.1:
  1715 00000130 2A 2E 2E 2E 2E 2E 2E 2E 2E 2E   	DB	"*..............."
       0000013A 2E 2E 2E 2E 2E 2E 
  1716 00000140 2A 2A 2E 2E 2E 2E 2E 2E 2E 2E   	DB	"**.............."
       0000014A 2E 2E 2E 2E 2E 2E 
  1717 00000150 2A 4F 2A 2E 2E 2E 2E 2E 2E 2E   	DB	"*O*............."
       0000015A 2E 2E 2E 2E 2E 2E 
  1718 00000160 2A 4F 4F 2A 2E 2E 2E 2E 2E 2E   	DB	"*OO*............"
       0000016A 2E 2E 2E 2E 2E 2E 
  1719 00000170 2A 4F 4F 4F 2A 2E 2E 2E 2E 2E   	DB	"*OOO*..........."
       0000017A 2E 2E 2E 2E 2E 2E 
  1720 00000180 2A 4F 4F 4F 4F 2A 2E 2E 2E 2E   	DB	"*OOOO*.........."
       0000018A 2E 2E 2E 2E 2E 2E 
  1721 00000190 2A 4F 4F 4F 4F 4F 2A 2E 2E 2E   	DB	"*OOOOO*........."
       0000019A 2E 2E 2E 2E 2E 2E 
  1722 000001A0 2A 4F 4F 4F 4F 4F 4F 2A 2E 2E   	DB	"*OOOOOO*........"
       000001AA 2E 2E 2E 2E 2E 2E 
  1723 000001B0 2A 4F 4F 4F 4F 4F 4F 4F 2A 2E   	DB	"*OOOOOOO*......."
       000001BA 2E 2E 2E 2E 2E 2E 
  1724 000001C0 2A 4F 4F 4F 4F 2A 2A 2A 2A 2A   	DB	"*OOOO*****......"
       000001CA 2E 2E 2E 2E 2E 2E 
  1725 000001D0 2A 4F 4F 2A 4F 2A 2E 2E 2E 2E   	DB	"*OO*O*.........."
       000001DA 2E 2E 2E 2E 2E 2E 
  1726 000001E0 2A 4F 2A 2E 2A 4F 2A 2E 2E 2E   	DB	"*O*.*O*........."
       000001EA 2E 2E 2E 2E 2E 2E 
  1727 000001F0 2A 2A 2E 2E 2A 4F 2A 2E 2E 2E   	DB	"**..*O*........."
       000001FA 2E 2E 2E 2E 2E 2E 
  1728 00000200 2A 2E 2E 2E 2E 2A 4F 2A 2E 2E   	DB	"*....*O*........"
       0000020A 2E 2E 2E 2E 2E 2E 
  1729 00000210 2E 2E 2E 2E 2E 2A 4F 2A 2E 2E   	DB	".....*O*........"
       0000021A 2E 2E 2E 2E 2E 2E 
  1730 00000220 2E 2E 2E 2E 2E 2E 2A 2E 2E 2E   	DB	"......*........."
       0000022A 2E 2E 2E 2E 2E 2E 
  1731                                          [SECTION .text]
  1732 00000D8D                                 	GLOBAL	_initMouseCursor8
  1733 00000D8D                                 _initMouseCursor8:
  1734 00000D8D 55                              	PUSH	EBP
  1735 00000D8E 89 E5                           	MOV	EBP,ESP
  1736 00000D90 57                              	PUSH	EDI
  1737 00000D91 56                              	PUSH	ESI
  1738 00000D92 31 FF                           	XOR	EDI,EDI
  1739 00000D94 53                              	PUSH	EBX
  1740 00000D95 31 DB                           	XOR	EBX,EBX
  1741 00000D97 50                              	PUSH	EAX
  1742 00000D98 8A 45 0C                        	MOV	AL,BYTE [12+EBP]
  1743 00000D9B 8B 75 08                        	MOV	ESI,DWORD [8+EBP]
  1744 00000D9E 88 45 F3                        	MOV	BYTE [-13+EBP],AL
  1745 00000DA1                                 L226:
  1746 00000DA1 31 D2                           	XOR	EDX,EDX
  1747 00000DA3                                 L225:
  1748 00000DA3 8D 04 3A                        	LEA	EAX,DWORD [EDX+EDI*1]
  1749 00000DA6 80 B8 [00000130] 2A             	CMP	BYTE [_cursor.1+EAX],42
  1750 00000DAD 74 35                           	JE	L231
  1751 00000DAF                                 L222:
  1752 00000DAF 80 B8 [00000130] 4F             	CMP	BYTE [_cursor.1+EAX],79
  1753 00000DB6 74 26                           	JE	L232
  1754 00000DB8                                 L223:
  1755 00000DB8 80 B8 [00000130] 2E             	CMP	BYTE [_cursor.1+EAX],46
  1756 00000DBF 74 15                           	JE	L233
  1757 00000DC1                                 L220:
  1758 00000DC1 42                              	INC	EDX
  1759 00000DC2 83 FA 0F                        	CMP	EDX,15
  1760 00000DC5 7E DC                           	JLE	L225
  1761 00000DC7 43                              	INC	EBX
  1762 00000DC8 83 C7 10                        	ADD	EDI,16
  1763 00000DCB 83 FB 0F                        	CMP	EBX,15
  1764 00000DCE 7E D1                           	JLE	L226
  1765 00000DD0 58                              	POP	EAX
  1766 00000DD1 5B                              	POP	EBX
  1767 00000DD2 5E                              	POP	ESI
  1768 00000DD3 5F                              	POP	EDI
  1769 00000DD4 5D                              	POP	EBP
  1770 00000DD5 C3                              	RET
  1771 00000DD6                                 L233:
  1772 00000DD6 8A 4D F3                        	MOV	CL,BYTE [-13+EBP]
  1773 00000DD9 88 0C 30                        	MOV	BYTE [EAX+ESI*1],CL
  1774 00000DDC EB E3                           	JMP	L220
  1775 00000DDE                                 L232:
  1776 00000DDE C6 04 30 07                     	MOV	BYTE [EAX+ESI*1],7
  1777 00000DE2 EB D4                           	JMP	L223
  1778 00000DE4                                 L231:
  1779 00000DE4 C6 04 30 00                     	MOV	BYTE [EAX+ESI*1],0
  1780 00000DE8 EB C5                           	JMP	L222
  1781 00000DEA                                 	GLOBAL	_putblock8_8
  1782 00000DEA                                 _putblock8_8:
  1783 00000DEA 55                              	PUSH	EBP
  1784 00000DEB 89 E5                           	MOV	EBP,ESP
  1785 00000DED 57                              	PUSH	EDI
  1786 00000DEE 56                              	PUSH	ESI
  1787 00000DEF 31 F6                           	XOR	ESI,ESI
  1788 00000DF1 53                              	PUSH	EBX
  1789 00000DF2 83 EC 0C                        	SUB	ESP,12
  1790 00000DF5 3B 75 14                        	CMP	ESI,DWORD [20+EBP]
  1791 00000DF8 7D 3E                           	JGE	L246
  1792 00000DFA 31 FF                           	XOR	EDI,EDI
  1793 00000DFC                                 L244:
  1794 00000DFC 31 DB                           	XOR	EBX,EBX
  1795 00000DFE 3B 5D 10                        	CMP	EBX,DWORD [16+EBP]
  1796 00000E01 7D 2C                           	JGE	L248
  1797 00000E03 8B 45 20                        	MOV	EAX,DWORD [32+EBP]
  1798 00000E06 01 F8                           	ADD	EAX,EDI
  1799 00000E08 89 45 EC                        	MOV	DWORD [-20+EBP],EAX
  1800 00000E0B                                 L243:
  1801 00000E0B 8B 45 1C                        	MOV	EAX,DWORD [28+EBP]
  1802 00000E0E 8B 55 18                        	MOV	EDX,DWORD [24+EBP]
  1803 00000E11 01 F0                           	ADD	EAX,ESI
  1804 00000E13 01 DA                           	ADD	EDX,EBX
  1805 00000E15 0F AF 45 0C                     	IMUL	EAX,DWORD [12+EBP]
  1806 00000E19 01 D0                           	ADD	EAX,EDX
  1807 00000E1B 8B 4D 08                        	MOV	ECX,DWORD [8+EBP]
  1808 00000E1E 8B 55 EC                        	MOV	EDX,DWORD [-20+EBP]
  1809 00000E21 43                              	INC	EBX
  1810 00000E22 8A 12                           	MOV	DL,BYTE [EDX]
  1811 00000E24 88 14 08                        	MOV	BYTE [EAX+ECX*1],DL
  1812 00000E27 FF 45 EC                        	INC	DWORD [-20+EBP]
  1813 00000E2A 3B 5D 10                        	CMP	EBX,DWORD [16+EBP]
  1814 00000E2D 7C DC                           	JL	L243
  1815 00000E2F                                 L248:
  1816 00000E2F 46                              	INC	ESI
  1817 00000E30 03 7D 24                        	ADD	EDI,DWORD [36+EBP]
  1818 00000E33 3B 75 14                        	CMP	ESI,DWORD [20+EBP]
  1819 00000E36 7C C4                           	JL	L244
  1820 00000E38                                 L246:
  1821 00000E38 83 C4 0C                        	ADD	ESP,12
  1822 00000E3B 5B                              	POP	EBX
  1823 00000E3C 5E                              	POP	ESI
  1824 00000E3D 5F                              	POP	EDI
  1825 00000E3E 5D                              	POP	EBP
  1826 00000E3F C3                              	RET
  1827 00000E40                                 	GLOBAL	_memtest
  1828 00000E40                                 _memtest:
  1829 00000E40 55                              	PUSH	EBP
  1830 00000E41 89 E5                           	MOV	EBP,ESP
  1831 00000E43 56                              	PUSH	ESI
  1832 00000E44 53                              	PUSH	EBX
  1833 00000E45 31 F6                           	XOR	ESI,ESI
  1834 00000E47 E8 [00000000]                   	CALL	_io_load_eflags
  1835 00000E4C 0D 00040000                     	OR	EAX,262144
  1836 00000E51 50                              	PUSH	EAX
  1837 00000E52 E8 [00000000]                   	CALL	_io_store_eflags
  1838 00000E57 E8 [00000000]                   	CALL	_io_load_eflags
  1839 00000E5C 5A                              	POP	EDX
  1840 00000E5D A9 00040000                     	TEST	EAX,262144
  1841 00000E62 74 05                           	JE	L250
  1842 00000E64 BE 00000001                     	MOV	ESI,1
  1843 00000E69                                 L250:
  1844 00000E69 25 FFFBFFFF                     	AND	EAX,-262145
  1845 00000E6E 50                              	PUSH	EAX
  1846 00000E6F E8 [00000000]                   	CALL	_io_store_eflags
  1847 00000E74 89 F0                           	MOV	EAX,ESI
  1848 00000E76 5B                              	POP	EBX
  1849 00000E77 84 C0                           	TEST	AL,AL
  1850 00000E79 75 31                           	JNE	L253
  1851 00000E7B                                 L251:
  1852 00000E7B FF 75 0C                        	PUSH	DWORD [12+EBP]
  1853 00000E7E FF 75 08                        	PUSH	DWORD [8+EBP]
  1854 00000E81 E8 [00000000]                   	CALL	_memtest_sub
  1855 00000E86 89 C3                           	MOV	EBX,EAX
  1856 00000E88 58                              	POP	EAX
  1857 00000E89 89 F0                           	MOV	EAX,ESI
  1858 00000E8B 5A                              	POP	EDX
  1859 00000E8C 84 C0                           	TEST	AL,AL
  1860 00000E8E 75 09                           	JNE	L254
  1861 00000E90                                 L252:
  1862 00000E90 8D 65 F8                        	LEA	ESP,DWORD [-8+EBP]
  1863 00000E93 89 D8                           	MOV	EAX,EBX
  1864 00000E95 5B                              	POP	EBX
  1865 00000E96 5E                              	POP	ESI
  1866 00000E97 5D                              	POP	EBP
  1867 00000E98 C3                              	RET
  1868 00000E99                                 L254:
  1869 00000E99 E8 [00000000]                   	CALL	_loadCr0
  1870 00000E9E 25 9FFFFFFF                     	AND	EAX,-1610612737
  1871 00000EA3 50                              	PUSH	EAX
  1872 00000EA4 E8 [00000000]                   	CALL	_storeCr0
  1873 00000EA9 58                              	POP	EAX
  1874 00000EAA EB E4                           	JMP	L252
  1875 00000EAC                                 L253:
  1876 00000EAC E8 [00000000]                   	CALL	_loadCr0
  1877 00000EB1 0D 60000000                     	OR	EAX,1610612736
  1878 00000EB6 50                              	PUSH	EAX
  1879 00000EB7 E8 [00000000]                   	CALL	_storeCr0
  1880 00000EBC 59                              	POP	ECX
  1881 00000EBD EB BC                           	JMP	L251
  1882 00000EBF                                 	GLOBAL	_memsegTotal
  1883 00000EBF                                 _memsegTotal:
  1884 00000EBF 55                              	PUSH	EBP
  1885 00000EC0 31 C0                           	XOR	EAX,EAX
  1886 00000EC2 89 E5                           	MOV	EBP,ESP
  1887 00000EC4 31 D2                           	XOR	EDX,EDX
  1888 00000EC6 53                              	PUSH	EBX
  1889 00000EC7 8B 5D 08                        	MOV	EBX,DWORD [8+EBP]
  1890 00000ECA 8B 0B                           	MOV	ECX,DWORD [EBX]
  1891 00000ECC 39 C8                           	CMP	EAX,ECX
  1892 00000ECE 73 09                           	JAE	L262
  1893 00000ED0                                 L260:
  1894 00000ED0 03 44 D3 14                     	ADD	EAX,DWORD [20+EBX+EDX*8]
  1895 00000ED4 42                              	INC	EDX
  1896 00000ED5 39 CA                           	CMP	EDX,ECX
  1897 00000ED7 72 F7                           	JB	L260
  1898 00000ED9                                 L262:
  1899 00000ED9 5B                              	POP	EBX
  1900 00000EDA 5D                              	POP	EBP
  1901 00000EDB C3                              	RET
  1902 00000EDC                                 	GLOBAL	_memsegInit
  1903 00000EDC                                 _memsegInit:
  1904 00000EDC 55                              	PUSH	EBP
  1905 00000EDD 89 E5                           	MOV	EBP,ESP
  1906 00000EDF 8B 45 08                        	MOV	EAX,DWORD [8+EBP]
  1907 00000EE2 C7 00 00000000                  	MOV	DWORD [EAX],0
  1908 00000EE8 C7 40 04 00000000               	MOV	DWORD [4+EAX],0
  1909 00000EEF C7 40 08 00000000               	MOV	DWORD [8+EAX],0
  1910 00000EF6 C7 40 0C 00000000               	MOV	DWORD [12+EAX],0
  1911 00000EFD 5D                              	POP	EBP
  1912 00000EFE C3                              	RET
  1913 00000EFF                                 	GLOBAL	_memsegAlloc
  1914 00000EFF                                 _memsegAlloc:
  1915 00000EFF 55                              	PUSH	EBP
  1916 00000F00 31 C9                           	XOR	ECX,ECX
  1917 00000F02 89 E5                           	MOV	EBP,ESP
  1918 00000F04 57                              	PUSH	EDI
  1919 00000F05 56                              	PUSH	ESI
  1920 00000F06 53                              	PUSH	EBX
  1921 00000F07 8B 75 0C                        	MOV	ESI,DWORD [12+EBP]
  1922 00000F0A 8B 5D 08                        	MOV	EBX,DWORD [8+EBP]
  1923 00000F0D 8B 03                           	MOV	EAX,DWORD [EBX]
  1924 00000F0F 39 C1                           	CMP	ECX,EAX
  1925 00000F11 73 0D                           	JAE	L278
  1926 00000F13                                 L276:
  1927 00000F13 8B 54 CB 14                     	MOV	EDX,DWORD [20+EBX+ECX*8]
  1928 00000F17 39 F2                           	CMP	EDX,ESI
  1929 00000F19 73 0C                           	JAE	L280
  1930 00000F1B 41                              	INC	ECX
  1931 00000F1C 39 C1                           	CMP	ECX,EAX
  1932 00000F1E 72 F3                           	JB	L276
  1933 00000F20                                 L278:
  1934 00000F20 31 C0                           	XOR	EAX,EAX
  1935 00000F22                                 L264:
  1936 00000F22 5B                              	POP	EBX
  1937 00000F23 5E                              	POP	ESI
  1938 00000F24 5F                              	POP	EDI
  1939 00000F25 5D                              	POP	EBP
  1940 00000F26 C3                              	RET
  1941 00000F27                                 L280:
  1942 00000F27 8B 7C CB 10                     	MOV	EDI,DWORD [16+EBX+ECX*8]
  1943 00000F2B 8D 04 3E                        	LEA	EAX,DWORD [ESI+EDI*1]
  1944 00000F2E 89 44 CB 10                     	MOV	DWORD [16+EBX+ECX*8],EAX
  1945 00000F32 89 D0                           	MOV	EAX,EDX
  1946 00000F34 29 F0                           	SUB	EAX,ESI
  1947 00000F36 89 44 CB 14                     	MOV	DWORD [20+EBX+ECX*8],EAX
  1948 00000F3A 85 C0                           	TEST	EAX,EAX
  1949 00000F3C 75 20                           	JNE	L270
  1950 00000F3E 8B 03                           	MOV	EAX,DWORD [EBX]
  1951 00000F40 48                              	DEC	EAX
  1952 00000F41 89 03                           	MOV	DWORD [EBX],EAX
  1953 00000F43 39 C1                           	CMP	ECX,EAX
  1954 00000F45 73 17                           	JAE	L270
  1955 00000F47 89 C6                           	MOV	ESI,EAX
  1956 00000F49                                 L275:
  1957 00000F49 8B 44 CB 18                     	MOV	EAX,DWORD [24+EBX+ECX*8]
  1958 00000F4D 8B 54 CB 1C                     	MOV	EDX,DWORD [28+EBX+ECX*8]
  1959 00000F51 89 44 CB 10                     	MOV	DWORD [16+EBX+ECX*8],EAX
  1960 00000F55 89 54 CB 14                     	MOV	DWORD [20+EBX+ECX*8],EDX
  1961 00000F59 41                              	INC	ECX
  1962 00000F5A 39 F1                           	CMP	ECX,ESI
  1963 00000F5C 72 EB                           	JB	L275
  1964 00000F5E                                 L270:
  1965 00000F5E 89 F8                           	MOV	EAX,EDI
  1966 00000F60 EB C0                           	JMP	L264
  1967 00000F62                                 	GLOBAL	_memsegFree
  1968 00000F62                                 _memsegFree:
  1969 00000F62 55                              	PUSH	EBP
  1970 00000F63 89 E5                           	MOV	EBP,ESP
  1971 00000F65 57                              	PUSH	EDI
  1972 00000F66 56                              	PUSH	ESI
  1973 00000F67 8B 75 08                        	MOV	ESI,DWORD [8+EBP]
  1974 00000F6A 53                              	PUSH	EBX
  1975 00000F6B 31 DB                           	XOR	EBX,EBX
  1976 00000F6D 8B 3E                           	MOV	EDI,DWORD [ESI]
  1977 00000F6F 39 FB                           	CMP	EBX,EDI
  1978 00000F71 7D 0E                           	JGE	L283
  1979 00000F73                                 L287:
  1980 00000F73 8B 45 0C                        	MOV	EAX,DWORD [12+EBP]
  1981 00000F76 39 44 DE 10                     	CMP	DWORD [16+ESI+EBX*8],EAX
  1982 00000F7A 77 05                           	JA	L283
  1983 00000F7C 43                              	INC	EBX
  1984 00000F7D 39 FB                           	CMP	EBX,EDI
  1985 00000F7F 7C F2                           	JL	L287
  1986 00000F81                                 L283:
  1987 00000F81 85 DB                           	TEST	EBX,EBX
  1988 00000F83 7E 0F                           	JLE	L288
  1989 00000F85 8B 54 DE 0C                     	MOV	EDX,DWORD [12+ESI+EBX*8]
  1990 00000F89 8B 44 DE 08                     	MOV	EAX,DWORD [8+ESI+EBX*8]
  1991 00000F8D 01 D0                           	ADD	EAX,EDX
  1992 00000F8F 3B 45 0C                        	CMP	EAX,DWORD [12+EBP]
  1993 00000F92 74 73                           	JE	L308
  1994 00000F94                                 L288:
  1995 00000F94 39 FB                           	CMP	EBX,EDI
  1996 00000F96 7D 0C                           	JGE	L295
  1997 00000F98 8B 45 0C                        	MOV	EAX,DWORD [12+EBP]
  1998 00000F9B 03 45 10                        	ADD	EAX,DWORD [16+EBP]
  1999 00000F9E 3B 44 DE 10                     	CMP	EAX,DWORD [16+ESI+EBX*8]
  2000 00000FA2 74 53                           	JE	L309
  2001 00000FA4                                 L295:
  2002 00000FA4 81 FF 00000FF9                  	CMP	EDI,4089
  2003 00000FAA 7F 3D                           	JG	L296
  2004 00000FAC 89 F9                           	MOV	ECX,EDI
  2005 00000FAE 39 DF                           	CMP	EDI,EBX
  2006 00000FB0 7E 15                           	JLE	L306
  2007 00000FB2                                 L301:
  2008 00000FB2 8B 44 CE 08                     	MOV	EAX,DWORD [8+ESI+ECX*8]
  2009 00000FB6 8B 54 CE 0C                     	MOV	EDX,DWORD [12+ESI+ECX*8]
  2010 00000FBA 89 44 CE 10                     	MOV	DWORD [16+ESI+ECX*8],EAX
  2011 00000FBE 89 54 CE 14                     	MOV	DWORD [20+ESI+ECX*8],EDX
  2012 00000FC2 49                              	DEC	ECX
  2013 00000FC3 39 D9                           	CMP	ECX,EBX
  2014 00000FC5 7F EB                           	JG	L301
  2015 00000FC7                                 L306:
  2016 00000FC7 8D 47 01                        	LEA	EAX,DWORD [1+EDI]
  2017 00000FCA 89 06                           	MOV	DWORD [ESI],EAX
  2018 00000FCC 39 46 04                        	CMP	DWORD [4+ESI],EAX
  2019 00000FCF 7D 03                           	JGE	L302
  2020 00000FD1 89 46 04                        	MOV	DWORD [4+ESI],EAX
  2021 00000FD4                                 L302:
  2022 00000FD4 8B 45 0C                        	MOV	EAX,DWORD [12+EBP]
  2023 00000FD7 89 44 DE 10                     	MOV	DWORD [16+ESI+EBX*8],EAX
  2024 00000FDB 8B 45 10                        	MOV	EAX,DWORD [16+EBP]
  2025 00000FDE 89 44 DE 14                     	MOV	DWORD [20+ESI+EBX*8],EAX
  2026 00000FE2                                 L307:
  2027 00000FE2 31 C0                           	XOR	EAX,EAX
  2028 00000FE4                                 L281:
  2029 00000FE4 5B                              	POP	EBX
  2030 00000FE5 5E                              	POP	ESI
  2031 00000FE6 5F                              	POP	EDI
  2032 00000FE7 5D                              	POP	EBP
  2033 00000FE8 C3                              	RET
  2034 00000FE9                                 L296:
  2035 00000FE9 8B 45 10                        	MOV	EAX,DWORD [16+EBP]
  2036 00000FEC FF 46 0C                        	INC	DWORD [12+ESI]
  2037 00000FEF 01 46 08                        	ADD	DWORD [8+ESI],EAX
  2038 00000FF2 83 C8 FF                        	OR	EAX,-1
  2039 00000FF5 EB ED                           	JMP	L281
  2040 00000FF7                                 L309:
  2041 00000FF7 8B 45 0C                        	MOV	EAX,DWORD [12+EBP]
  2042 00000FFA 89 44 DE 10                     	MOV	DWORD [16+ESI+EBX*8],EAX
  2043 00000FFE 8B 45 10                        	MOV	EAX,DWORD [16+EBP]
  2044 00001001 01 44 DE 14                     	ADD	DWORD [20+ESI+EBX*8],EAX
  2045 00001005 EB DB                           	JMP	L307
  2046 00001007                                 L308:
  2047 00001007 03 55 10                        	ADD	EDX,DWORD [16+EBP]
  2048 0000100A 89 54 DE 0C                     	MOV	DWORD [12+ESI+EBX*8],EDX
  2049 0000100E 3B 1E                           	CMP	EBX,DWORD [ESI]
  2050 00001010 7D D0                           	JGE	L307
  2051 00001012 8B 45 0C                        	MOV	EAX,DWORD [12+EBP]
  2052 00001015 03 45 10                        	ADD	EAX,DWORD [16+EBP]
  2053 00001018 3B 44 DE 10                     	CMP	EAX,DWORD [16+ESI+EBX*8]
  2054 0000101C 75 C4                           	JNE	L307
  2055 0000101E 03 54 DE 14                     	ADD	EDX,DWORD [20+ESI+EBX*8]
  2056 00001022 89 54 DE 0C                     	MOV	DWORD [12+ESI+EBX*8],EDX
  2057 00001026 8B 06                           	MOV	EAX,DWORD [ESI]
  2058 00001028 48                              	DEC	EAX
  2059 00001029 89 06                           	MOV	DWORD [ESI],EAX
  2060 0000102B 39 C3                           	CMP	EBX,EAX
  2061 0000102D 7D B3                           	JGE	L307
  2062 0000102F 89 C1                           	MOV	ECX,EAX
  2063 00001031                                 L294:
  2064 00001031 8B 44 DE 18                     	MOV	EAX,DWORD [24+ESI+EBX*8]
  2065 00001035 8B 54 DE 1C                     	MOV	EDX,DWORD [28+ESI+EBX*8]
  2066 00001039 89 44 DE 10                     	MOV	DWORD [16+ESI+EBX*8],EAX
  2067 0000103D 89 54 DE 14                     	MOV	DWORD [20+ESI+EBX*8],EDX
  2068 00001041 43                              	INC	EBX
  2069 00001042 39 CB                           	CMP	EBX,ECX
  2070 00001044 7C EB                           	JL	L294
  2071 00001046 EB 9A                           	JMP	L307
  2072 00001048                                 	GLOBAL	_memsegAlloc4K
  2073 00001048                                 _memsegAlloc4K:
  2074 00001048 55                              	PUSH	EBP
  2075 00001049 89 E5                           	MOV	EBP,ESP
  2076 0000104B 8B 45 0C                        	MOV	EAX,DWORD [12+EBP]
  2077 0000104E 05 00000FFF                     	ADD	EAX,4095
  2078 00001053 25 FFFFF000                     	AND	EAX,-4096
  2079 00001058 89 45 0C                        	MOV	DWORD [12+EBP],EAX
  2080 0000105B 5D                              	POP	EBP
  2081 0000105C E9 FFFFFE9E                     	JMP	_memsegAlloc
  2082 00001061                                 	GLOBAL	_memsegFree4K
  2083 00001061                                 _memsegFree4K:
  2084 00001061 55                              	PUSH	EBP
  2085 00001062 89 E5                           	MOV	EBP,ESP
  2086 00001064 8B 45 10                        	MOV	EAX,DWORD [16+EBP]
  2087 00001067 05 00000FFF                     	ADD	EAX,4095
  2088 0000106C 25 FFFFF000                     	AND	EAX,-4096
  2089 00001071 89 45 10                        	MOV	DWORD [16+EBP],EAX
  2090 00001074 5D                              	POP	EBP
  2091 00001075 E9 FFFFFEE8                     	JMP	_memsegFree
  2092 0000107A                                 	GLOBAL	_shtctlInit
  2093 0000107A                                 _shtctlInit:
  2094 0000107A 55                              	PUSH	EBP
  2095 0000107B 89 E5                           	MOV	EBP,ESP
  2096 0000107D 57                              	PUSH	EDI
  2097 0000107E 56                              	PUSH	ESI
  2098 0000107F 53                              	PUSH	EBX
  2099 00001080 8B 75 08                        	MOV	ESI,DWORD [8+EBP]
  2100 00001083 68 00002814                     	PUSH	10260
  2101 00001088 8B 7D 10                        	MOV	EDI,DWORD [16+EBP]
  2102 0000108B 56                              	PUSH	ESI
  2103 0000108C E8 FFFFFFB7                     	CALL	_memsegAlloc4K
  2104 00001091 59                              	POP	ECX
  2105 00001092 89 C3                           	MOV	EBX,EAX
  2106 00001094 58                              	POP	EAX
  2107 00001095 31 C0                           	XOR	EAX,EAX
  2108 00001097 85 DB                           	TEST	EBX,EBX
  2109 00001099 74 4C                           	JE	L312
  2110 0000109B 8B 45 14                        	MOV	EAX,DWORD [20+EBP]
  2111 0000109E 0F AF C7                        	IMUL	EAX,EDI
  2112 000010A1 50                              	PUSH	EAX
  2113 000010A2 56                              	PUSH	ESI
  2114 000010A3 E8 FFFFFFA0                     	CALL	_memsegAlloc4K
  2115 000010A8 85 C0                           	TEST	EAX,EAX
  2116 000010AA 89 43 04                        	MOV	DWORD [4+EBX],EAX
  2117 000010AD 59                              	POP	ECX
  2118 000010AE 5A                              	POP	EDX
  2119 000010AF 74 3E                           	JE	L323
  2120 000010B1 8B 45 0C                        	MOV	EAX,DWORD [12+EBP]
  2121 000010B4 89 7B 08                        	MOV	DWORD [8+EBX],EDI
  2122 000010B7 89 03                           	MOV	DWORD [EBX],EAX
  2123 000010B9 8D 93 000023DC                  	LEA	EDX,DWORD [9180+EBX]
  2124 000010BF 8B 45 14                        	MOV	EAX,DWORD [20+EBP]
  2125 000010C2 89 43 0C                        	MOV	DWORD [12+EBX],EAX
  2126 000010C5 89 D8                           	MOV	EAX,EBX
  2127 000010C7 C7 43 10 FFFFFFFF               	MOV	DWORD [16+EBX],-1
  2128 000010CE                                 L319:
  2129 000010CE C7 80 00000430 00000000         	MOV	DWORD [1072+EAX],0
  2130 000010D8 89 98 00000434                  	MOV	DWORD [1076+EAX],EBX
  2131 000010DE 83 C0 24                        	ADD	EAX,36
  2132 000010E1 39 D0                           	CMP	EAX,EDX
  2133 000010E3 7E E9                           	JLE	L319
  2134 000010E5                                 L322:
  2135 000010E5 89 D8                           	MOV	EAX,EBX
  2136 000010E7                                 L312:
  2137 000010E7 8D 65 F4                        	LEA	ESP,DWORD [-12+EBP]
  2138 000010EA 5B                              	POP	EBX
  2139 000010EB 5E                              	POP	ESI
  2140 000010EC 5F                              	POP	EDI
  2141 000010ED 5D                              	POP	EBP
  2142 000010EE C3                              	RET
  2143 000010EF                                 L323:
  2144 000010EF 68 00002814                     	PUSH	10260
  2145 000010F4 53                              	PUSH	EBX
  2146 000010F5 56                              	PUSH	ESI
  2147 000010F6 E8 FFFFFF66                     	CALL	_memsegFree4K
  2148 000010FB EB E8                           	JMP	L322
  2149 000010FD                                 	GLOBAL	_sheetAlloc
  2150 000010FD                                 _sheetAlloc:
  2151 000010FD 55                              	PUSH	EBP
  2152 000010FE 31 D2                           	XOR	EDX,EDX
  2153 00001100 89 E5                           	MOV	EBP,ESP
  2154 00001102 8B 45 08                        	MOV	EAX,DWORD [8+EBP]
  2155 00001105 05 00000414                     	ADD	EAX,1044
  2156 0000110A                                 L330:
  2157 0000110A 83 78 1C 00                     	CMP	DWORD [28+EAX],0
  2158 0000110E 74 10                           	JE	L333
  2159 00001110 42                              	INC	EDX
  2160 00001111 83 C0 24                        	ADD	EAX,36
  2161 00001114 81 FA 000000FF                  	CMP	EDX,255
  2162 0000111A 7E EE                           	JLE	L330
  2163 0000111C 31 C0                           	XOR	EAX,EAX
  2164 0000111E                                 L324:
  2165 0000111E 5D                              	POP	EBP
  2166 0000111F C3                              	RET
  2167 00001120                                 L333:
  2168 00001120 C7 40 1C 00000001               	MOV	DWORD [28+EAX],1
  2169 00001127 C7 40 18 FFFFFFFF               	MOV	DWORD [24+EAX],-1
  2170 0000112E EB EE                           	JMP	L324
  2171 00001130                                 	GLOBAL	_sheetSetbuf
  2172 00001130                                 _sheetSetbuf:
  2173 00001130 55                              	PUSH	EBP
  2174 00001131 89 E5                           	MOV	EBP,ESP
  2175 00001133 8B 55 08                        	MOV	EDX,DWORD [8+EBP]
  2176 00001136 8B 45 0C                        	MOV	EAX,DWORD [12+EBP]
  2177 00001139 89 02                           	MOV	DWORD [EDX],EAX
  2178 0000113B 8B 45 10                        	MOV	EAX,DWORD [16+EBP]
  2179 0000113E 89 42 04                        	MOV	DWORD [4+EDX],EAX
  2180 00001141 8B 45 14                        	MOV	EAX,DWORD [20+EBP]
  2181 00001144 89 42 08                        	MOV	DWORD [8+EDX],EAX
  2182 00001147 8B 45 18                        	MOV	EAX,DWORD [24+EBP]
  2183 0000114A 89 42 14                        	MOV	DWORD [20+EDX],EAX
  2184 0000114D 5D                              	POP	EBP
  2185 0000114E C3                              	RET
  2186 0000114F                                 	GLOBAL	_sheetRefreshMap
  2187 0000114F                                 _sheetRefreshMap:
  2188 0000114F 55                              	PUSH	EBP
  2189 00001150 89 E5                           	MOV	EBP,ESP
  2190 00001152 57                              	PUSH	EDI
  2191 00001153 56                              	PUSH	ESI
  2192 00001154 53                              	PUSH	EBX
  2193 00001155 83 EC 28                        	SUB	ESP,40
  2194 00001158 8B 45 08                        	MOV	EAX,DWORD [8+EBP]
  2195 0000115B 83 7D 0C 00                     	CMP	DWORD [12+EBP],0
  2196 0000115F 8B 40 04                        	MOV	EAX,DWORD [4+EAX]
  2197 00001162 89 45 D8                        	MOV	DWORD [-40+EBP],EAX
  2198 00001165 0F 88 00000135                  	JS	L366
  2199 0000116B                                 L336:
  2200 0000116B 83 7D 10 00                     	CMP	DWORD [16+EBP],0
  2201 0000116F 0F 88 0000011F                  	JS	L367
  2202 00001175                                 L337:
  2203 00001175 8B 55 08                        	MOV	EDX,DWORD [8+EBP]
  2204 00001178 8B 42 08                        	MOV	EAX,DWORD [8+EDX]
  2205 0000117B 39 45 14                        	CMP	DWORD [20+EBP],EAX
  2206 0000117E 7E 03                           	JLE	L338
  2207 00001180 89 45 14                        	MOV	DWORD [20+EBP],EAX
  2208 00001183                                 L338:
  2209 00001183 8B 75 08                        	MOV	ESI,DWORD [8+EBP]
  2210 00001186 8B 46 0C                        	MOV	EAX,DWORD [12+ESI]
  2211 00001189 39 45 18                        	CMP	DWORD [24+EBP],EAX
  2212 0000118C 7E 03                           	JLE	L339
  2213 0000118E 89 45 18                        	MOV	DWORD [24+EBP],EAX
  2214 00001191                                 L339:
  2215 00001191 8B 45 08                        	MOV	EAX,DWORD [8+EBP]
  2216 00001194 8B 7D 1C                        	MOV	EDI,DWORD [28+EBP]
  2217 00001197 89 7D F0                        	MOV	DWORD [-16+EBP],EDI
  2218 0000119A 3B 78 10                        	CMP	EDI,DWORD [16+EAX]
  2219 0000119D 0F 8F 000000D6                  	JG	L361
  2220 000011A3                                 L359:
  2221 000011A3 8B 75 08                        	MOV	ESI,DWORD [8+EBP]
  2222 000011A6 8B 55 F0                        	MOV	EDX,DWORD [-16+EBP]
  2223 000011A9 8B 5D 10                        	MOV	EBX,DWORD [16+EBP]
  2224 000011AC 8B 4C 96 14                     	MOV	ECX,DWORD [20+ESI+EDX*4]
  2225 000011B0 89 C8                           	MOV	EAX,ECX
  2226 000011B2 29 F0                           	SUB	EAX,ESI
  2227 000011B4 8B 39                           	MOV	EDI,DWORD [ECX]
  2228 000011B6 2D 00000414                     	SUB	EAX,1044
  2229 000011BB 8B 51 10                        	MOV	EDX,DWORD [16+ECX]
  2230 000011BE C1 F8 02                        	SAR	EAX,2
  2231 000011C1 89 7D E0                        	MOV	DWORD [-32+EBP],EDI
  2232 000011C4 69 C0 38E38E39                  	IMUL	EAX,EAX,954437177
  2233 000011CA 8B 7D 18                        	MOV	EDI,DWORD [24+EBP]
  2234 000011CD 29 D3                           	SUB	EBX,EDX
  2235 000011CF 29 D7                           	SUB	EDI,EDX
  2236 000011D1 88 45 DF                        	MOV	BYTE [-33+EBP],AL
  2237 000011D4 8B 75 14                        	MOV	ESI,DWORD [20+EBP]
  2238 000011D7 8B 55 0C                        	MOV	EDX,DWORD [12+EBP]
  2239 000011DA 8B 41 0C                        	MOV	EAX,DWORD [12+ECX]
  2240 000011DD 89 7D D4                        	MOV	DWORD [-44+EBP],EDI
  2241 000011E0 29 C6                           	SUB	ESI,EAX
  2242 000011E2 29 C2                           	SUB	EDX,EAX
  2243 000011E4 89 75 CC                        	MOV	DWORD [-52+EBP],ESI
  2244 000011E7 89 55 E4                        	MOV	DWORD [-28+EBP],EDX
  2245 000011EA 0F 88 00000098                  	JS	L368
  2246 000011F0                                 L344:
  2247 000011F0 85 DB                           	TEST	EBX,EBX
  2248 000011F2 0F 88 00000089                  	JS	L369
  2249 000011F8                                 L345:
  2250 000011F8 8B 41 04                        	MOV	EAX,DWORD [4+ECX]
  2251 000011FB 39 45 CC                        	CMP	DWORD [-52+EBP],EAX
  2252 000011FE 7E 03                           	JLE	L346
  2253 00001200 89 45 CC                        	MOV	DWORD [-52+EBP],EAX
  2254 00001203                                 L346:
  2255 00001203 8B 41 08                        	MOV	EAX,DWORD [8+ECX]
  2256 00001206 39 45 D4                        	CMP	DWORD [-44+EBP],EAX
  2257 00001209 7E 03                           	JLE	L347
  2258 0000120B 89 45 D4                        	MOV	DWORD [-44+EBP],EAX
  2259 0000120E                                 L347:
  2260 0000120E 3B 5D D4                        	CMP	EBX,DWORD [-44+EBP]
  2261 00001211 7D 54                           	JGE	L363
  2262 00001213                                 L358:
  2263 00001213 8B 71 10                        	MOV	ESI,DWORD [16+ECX]
  2264 00001216 8B 55 E4                        	MOV	EDX,DWORD [-28+EBP]
  2265 00001219 01 DE                           	ADD	ESI,EBX
  2266 0000121B 3B 55 CC                        	CMP	EDX,DWORD [-52+EBP]
  2267 0000121E 89 75 E8                        	MOV	DWORD [-24+EBP],ESI
  2268 00001221 7D 3E                           	JGE	L365
  2269 00001223                                 L357:
  2270 00001223 89 D8                           	MOV	EAX,EBX
  2271 00001225 8B 79 0C                        	MOV	EDI,DWORD [12+ECX]
  2272 00001228 0F AF 41 04                     	IMUL	EAX,DWORD [4+ECX]
  2273 0000122C 01 D7                           	ADD	EDI,EDX
  2274 0000122E 8B 75 E0                        	MOV	ESI,DWORD [-32+EBP]
  2275 00001231 01 D0                           	ADD	EAX,EDX
  2276 00001233 89 7D EC                        	MOV	DWORD [-20+EBP],EDI
  2277 00001236 0F B6 34 30                     	MOVZX	ESI,BYTE [EAX+ESI*1]
  2278 0000123A 3B 71 14                        	CMP	ESI,DWORD [20+ECX]
  2279 0000123D 74 1C                           	JE	L354
  2280 0000123F 8B 7D 08                        	MOV	EDI,DWORD [8+EBP]
  2281 00001242 8B 45 E8                        	MOV	EAX,DWORD [-24+EBP]
  2282 00001245 8B 75 D8                        	MOV	ESI,DWORD [-40+EBP]
  2283 00001248 0F AF 47 08                     	IMUL	EAX,DWORD [8+EDI]
  2284 0000124C 03 45 EC                        	ADD	EAX,DWORD [-20+EBP]
  2285 0000124F 89 45 D0                        	MOV	DWORD [-48+EBP],EAX
  2286 00001252 8A 45 DF                        	MOV	AL,BYTE [-33+EBP]
  2287 00001255 8B 7D D0                        	MOV	EDI,DWORD [-48+EBP]
  2288 00001258 88 04 37                        	MOV	BYTE [EDI+ESI*1],AL
  2289 0000125B                                 L354:
  2290 0000125B 42                              	INC	EDX
  2291 0000125C 3B 55 CC                        	CMP	EDX,DWORD [-52+EBP]
  2292 0000125F 7C C2                           	JL	L357
  2293 00001261                                 L365:
  2294 00001261 43                              	INC	EBX
  2295 00001262 3B 5D D4                        	CMP	EBX,DWORD [-44+EBP]
  2296 00001265 7C AC                           	JL	L358
  2297 00001267                                 L363:
  2298 00001267 8B 55 08                        	MOV	EDX,DWORD [8+EBP]
  2299 0000126A FF 45 F0                        	INC	DWORD [-16+EBP]
  2300 0000126D 8B 45 F0                        	MOV	EAX,DWORD [-16+EBP]
  2301 00001270 3B 42 10                        	CMP	EAX,DWORD [16+EDX]
  2302 00001273 0F 8E FFFFFF2A                  	JLE	L359
  2303 00001279                                 L361:
  2304 00001279 83 C4 28                        	ADD	ESP,40
  2305 0000127C 5B                              	POP	EBX
  2306 0000127D 5E                              	POP	ESI
  2307 0000127E 5F                              	POP	EDI
  2308 0000127F 5D                              	POP	EBP
  2309 00001280 C3                              	RET
  2310 00001281                                 L369:
  2311 00001281 31 DB                           	XOR	EBX,EBX
  2312 00001283 E9 FFFFFF70                     	JMP	L345
  2313 00001288                                 L368:
  2314 00001288 C7 45 E4 00000000               	MOV	DWORD [-28+EBP],0
  2315 0000128F E9 FFFFFF5C                     	JMP	L344
  2316 00001294                                 L367:
  2317 00001294 C7 45 10 00000000               	MOV	DWORD [16+EBP],0
  2318 0000129B E9 FFFFFED5                     	JMP	L337
  2319 000012A0                                 L366:
  2320 000012A0 C7 45 0C 00000000               	MOV	DWORD [12+EBP],0
  2321 000012A7 E9 FFFFFEBF                     	JMP	L336
  2322 000012AC                                 	GLOBAL	_sheetUpdown
  2323 000012AC                                 _sheetUpdown:
  2324 000012AC 55                              	PUSH	EBP
  2325 000012AD 89 E5                           	MOV	EBP,ESP
  2326 000012AF 57                              	PUSH	EDI
  2327 000012B0 56                              	PUSH	ESI
  2328 000012B1 8B 7D 08                        	MOV	EDI,DWORD [8+EBP]
  2329 000012B4 53                              	PUSH	EBX
  2330 000012B5 8B 75 0C                        	MOV	ESI,DWORD [12+EBP]
  2331 000012B8 8B 5F 20                        	MOV	EBX,DWORD [32+EDI]
  2332 000012BB 8B 47 18                        	MOV	EAX,DWORD [24+EDI]
  2333 000012BE 8B 53 10                        	MOV	EDX,DWORD [16+EBX]
  2334 000012C1 42                              	INC	EDX
  2335 000012C2 39 D6                           	CMP	ESI,EDX
  2336 000012C4 7E 02                           	JLE	L371
  2337 000012C6 89 D6                           	MOV	ESI,EDX
  2338 000012C8                                 L371:
  2339 000012C8 83 FE FF                        	CMP	ESI,-1
  2340 000012CB 7D 03                           	JGE	L372
  2341 000012CD 83 CE FF                        	OR	ESI,-1
  2342 000012D0                                 L372:
  2343 000012D0 89 77 18                        	MOV	DWORD [24+EDI],ESI
  2344 000012D3 39 F0                           	CMP	EAX,ESI
  2345 000012D5 0F 8E 000000A5                  	JLE	L373
  2346 000012DB 85 F6                           	TEST	ESI,ESI
  2347 000012DD 78 5E                           	JS	L374
  2348 000012DF 89 C1                           	MOV	ECX,EAX
  2349 000012E1                                 L379:
  2350 000012E1 8B 44 8B 10                     	MOV	EAX,DWORD [16+EBX+ECX*4]
  2351 000012E5 89 44 8B 14                     	MOV	DWORD [20+EBX+ECX*4],EAX
  2352 000012E9 89 48 18                        	MOV	DWORD [24+EAX],ECX
  2353 000012EC 49                              	DEC	ECX
  2354 000012ED 39 F1                           	CMP	ECX,ESI
  2355 000012EF 7F F0                           	JG	L379
  2356 000012F1 89 7C B3 14                     	MOV	DWORD [20+EBX+ESI*4],EDI
  2357 000012F5 8D 5E 01                        	LEA	EBX,DWORD [1+ESI]
  2358 000012F8 53                              	PUSH	EBX
  2359 000012F9 8B 4F 10                        	MOV	ECX,DWORD [16+EDI]
  2360 000012FC 89 C8                           	MOV	EAX,ECX
  2361 000012FE 03 47 08                        	ADD	EAX,DWORD [8+EDI]
  2362 00001301 50                              	PUSH	EAX
  2363 00001302 8B 57 0C                        	MOV	EDX,DWORD [12+EDI]
  2364 00001305 89 D0                           	MOV	EAX,EDX
  2365 00001307 03 47 04                        	ADD	EAX,DWORD [4+EDI]
  2366 0000130A 50                              	PUSH	EAX
  2367 0000130B 51                              	PUSH	ECX
  2368 0000130C 52                              	PUSH	EDX
  2369 0000130D FF 77 20                        	PUSH	DWORD [32+EDI]
  2370 00001310 E8 FFFFFE3A                     	CALL	_sheetRefreshMap
  2371 00001315 53                              	PUSH	EBX
  2372 00001316                                 L408:
  2373 00001316 8B 4F 10                        	MOV	ECX,DWORD [16+EDI]
  2374 00001319 89 C8                           	MOV	EAX,ECX
  2375 0000131B 03 47 08                        	ADD	EAX,DWORD [8+EDI]
  2376 0000131E 50                              	PUSH	EAX
  2377 0000131F 8B 57 0C                        	MOV	EDX,DWORD [12+EDI]
  2378 00001322 89 D0                           	MOV	EAX,EDX
  2379 00001324 03 47 04                        	ADD	EAX,DWORD [4+EDI]
  2380 00001327 50                              	PUSH	EAX
  2381 00001328 51                              	PUSH	ECX
  2382 00001329 52                              	PUSH	EDX
  2383 0000132A FF 77 20                        	PUSH	DWORD [32+EDI]
  2384 0000132D E8 000000EF                     	CALL	_sheetRefreshSub
  2385 00001332 83 C4 30                        	ADD	ESP,48
  2386 00001335                                 L370:
  2387 00001335 8D 65 F4                        	LEA	ESP,DWORD [-12+EBP]
  2388 00001338 5B                              	POP	EBX
  2389 00001339 5E                              	POP	ESI
  2390 0000133A 5F                              	POP	EDI
  2391 0000133B 5D                              	POP	EBP
  2392 0000133C C3                              	RET
  2393 0000133D                                 L374:
  2394 0000133D 8B 53 10                        	MOV	EDX,DWORD [16+EBX]
  2395 00001340 39 C2                           	CMP	EDX,EAX
  2396 00001342 7E 17                           	JLE	L381
  2397 00001344 89 C1                           	MOV	ECX,EAX
  2398 00001346 39 D0                           	CMP	EAX,EDX
  2399 00001348 7D 11                           	JGE	L381
  2400 0000134A                                 L386:
  2401 0000134A 8B 44 8B 18                     	MOV	EAX,DWORD [24+EBX+ECX*4]
  2402 0000134E 89 44 8B 14                     	MOV	DWORD [20+EBX+ECX*4],EAX
  2403 00001352 89 48 18                        	MOV	DWORD [24+EAX],ECX
  2404 00001355 41                              	INC	ECX
  2405 00001356 3B 4B 10                        	CMP	ECX,DWORD [16+EBX]
  2406 00001359 7C EF                           	JL	L386
  2407 0000135B                                 L381:
  2408 0000135B FF 4B 10                        	DEC	DWORD [16+EBX]
  2409 0000135E 6A 00                           	PUSH	0
  2410 00001360 8B 4F 10                        	MOV	ECX,DWORD [16+EDI]
  2411 00001363 89 C8                           	MOV	EAX,ECX
  2412 00001365 03 47 08                        	ADD	EAX,DWORD [8+EDI]
  2413 00001368 50                              	PUSH	EAX
  2414 00001369 8B 57 0C                        	MOV	EDX,DWORD [12+EDI]
  2415 0000136C 89 D0                           	MOV	EAX,EDX
  2416 0000136E 03 47 04                        	ADD	EAX,DWORD [4+EDI]
  2417 00001371 50                              	PUSH	EAX
  2418 00001372 51                              	PUSH	ECX
  2419 00001373 52                              	PUSH	EDX
  2420 00001374 FF 77 20                        	PUSH	DWORD [32+EDI]
  2421 00001377 E8 FFFFFDD3                     	CALL	_sheetRefreshMap
  2422 0000137C 6A 00                           	PUSH	0
  2423 0000137E EB 96                           	JMP	L408
  2424 00001380                                 L373:
  2425 00001380 39 F0                           	CMP	EAX,ESI
  2426 00001382 7D B1                           	JGE	L370
  2427 00001384 85 C0                           	TEST	EAX,EAX
  2428 00001386 78 3D                           	JS	L389
  2429 00001388 89 C1                           	MOV	ECX,EAX
  2430 0000138A 39 F0                           	CMP	EAX,ESI
  2431 0000138C 7D 10                           	JGE	L405
  2432 0000138E                                 L394:
  2433 0000138E 8B 44 8B 18                     	MOV	EAX,DWORD [24+EBX+ECX*4]
  2434 00001392 89 44 8B 14                     	MOV	DWORD [20+EBX+ECX*4],EAX
  2435 00001396 89 48 18                        	MOV	DWORD [24+EAX],ECX
  2436 00001399 41                              	INC	ECX
  2437 0000139A 39 F1                           	CMP	ECX,ESI
  2438 0000139C 7C F0                           	JL	L394
  2439 0000139E                                 L405:
  2440 0000139E 89 7C B3 14                     	MOV	DWORD [20+EBX+ESI*4],EDI
  2441 000013A2                                 L395:
  2442 000013A2 56                              	PUSH	ESI
  2443 000013A3 8B 4F 10                        	MOV	ECX,DWORD [16+EDI]
  2444 000013A6 89 C8                           	MOV	EAX,ECX
  2445 000013A8 03 47 08                        	ADD	EAX,DWORD [8+EDI]
  2446 000013AB 50                              	PUSH	EAX
  2447 000013AC 8B 57 0C                        	MOV	EDX,DWORD [12+EDI]
  2448 000013AF 89 D0                           	MOV	EAX,EDX
  2449 000013B1 03 47 04                        	ADD	EAX,DWORD [4+EDI]
  2450 000013B4 50                              	PUSH	EAX
  2451 000013B5 51                              	PUSH	ECX
  2452 000013B6 52                              	PUSH	EDX
  2453 000013B7 FF 77 20                        	PUSH	DWORD [32+EDI]
  2454 000013BA E8 FFFFFD90                     	CALL	_sheetRefreshMap
  2455 000013BF 56                              	PUSH	ESI
  2456 000013C0 E9 FFFFFF51                     	JMP	L408
  2457 000013C5                                 L389:
  2458 000013C5 8B 4B 10                        	MOV	ECX,DWORD [16+EBX]
  2459 000013C8 39 F1                           	CMP	ECX,ESI
  2460 000013CA 7C 13                           	JL	L407
  2461 000013CC                                 L400:
  2462 000013CC 8B 54 8B 14                     	MOV	EDX,DWORD [20+EBX+ECX*4]
  2463 000013D0 8D 41 01                        	LEA	EAX,DWORD [1+ECX]
  2464 000013D3 89 54 8B 18                     	MOV	DWORD [24+EBX+ECX*4],EDX
  2465 000013D7 49                              	DEC	ECX
  2466 000013D8 89 42 18                        	MOV	DWORD [24+EDX],EAX
  2467 000013DB 39 F1                           	CMP	ECX,ESI
  2468 000013DD 7D ED                           	JGE	L400
  2469 000013DF                                 L407:
  2470 000013DF 89 7C B3 14                     	MOV	DWORD [20+EBX+ESI*4],EDI
  2471 000013E3 FF 43 10                        	INC	DWORD [16+EBX]
  2472 000013E6 EB BA                           	JMP	L395
  2473 000013E8                                 	GLOBAL	_sheetRefresh
  2474 000013E8                                 _sheetRefresh:
  2475 000013E8 55                              	PUSH	EBP
  2476 000013E9 89 E5                           	MOV	EBP,ESP
  2477 000013EB 53                              	PUSH	EBX
  2478 000013EC 8B 5D 08                        	MOV	EBX,DWORD [8+EBP]
  2479 000013EF 8B 43 18                        	MOV	EAX,DWORD [24+EBX]
  2480 000013F2 85 C0                           	TEST	EAX,EAX
  2481 000013F4 78 26                           	JS	L409
  2482 000013F6 50                              	PUSH	EAX
  2483 000013F7 8B 4B 10                        	MOV	ECX,DWORD [16+EBX]
  2484 000013FA 89 C8                           	MOV	EAX,ECX
  2485 000013FC 03 4D 10                        	ADD	ECX,DWORD [16+EBP]
  2486 000013FF 03 45 18                        	ADD	EAX,DWORD [24+EBP]
  2487 00001402 50                              	PUSH	EAX
  2488 00001403 8B 53 0C                        	MOV	EDX,DWORD [12+EBX]
  2489 00001406 89 D0                           	MOV	EAX,EDX
  2490 00001408 03 55 0C                        	ADD	EDX,DWORD [12+EBP]
  2491 0000140B 03 45 14                        	ADD	EAX,DWORD [20+EBP]
  2492 0000140E 50                              	PUSH	EAX
  2493 0000140F 51                              	PUSH	ECX
  2494 00001410 52                              	PUSH	EDX
  2495 00001411 FF 73 20                        	PUSH	DWORD [32+EBX]
  2496 00001414 E8 00000008                     	CALL	_sheetRefreshSub
  2497 00001419 83 C4 18                        	ADD	ESP,24
  2498 0000141C                                 L409:
  2499 0000141C 8B 5D FC                        	MOV	EBX,DWORD [-4+EBP]
  2500 0000141F C9                              	LEAVE
  2501 00001420 C3                              	RET
  2502 00001421                                 	GLOBAL	_sheetRefreshSub
  2503 00001421                                 _sheetRefreshSub:
  2504 00001421 55                              	PUSH	EBP
  2505 00001422 89 E5                           	MOV	EBP,ESP
  2506 00001424 57                              	PUSH	EDI
  2507 00001425 56                              	PUSH	ESI
  2508 00001426 53                              	PUSH	EBX
  2509 00001427 83 EC 2C                        	SUB	ESP,44
  2510 0000142A 8B 45 08                        	MOV	EAX,DWORD [8+EBP]
  2511 0000142D 8B 55 08                        	MOV	EDX,DWORD [8+EBP]
  2512 00001430 83 7D 0C 00                     	CMP	DWORD [12+EBP],0
  2513 00001434 8B 00                           	MOV	EAX,DWORD [EAX]
  2514 00001436 8B 52 04                        	MOV	EDX,DWORD [4+EDX]
  2515 00001439 89 45 DC                        	MOV	DWORD [-36+EBP],EAX
  2516 0000143C 89 55 D8                        	MOV	DWORD [-40+EBP],EDX
  2517 0000143F 0F 88 00000137                  	JS	L442
  2518 00001445                                 L412:
  2519 00001445 83 7D 10 00                     	CMP	DWORD [16+EBP],0
  2520 00001449 0F 88 00000121                  	JS	L443
  2521 0000144F                                 L413:
  2522 0000144F 8B 75 08                        	MOV	ESI,DWORD [8+EBP]
  2523 00001452 8B 46 08                        	MOV	EAX,DWORD [8+ESI]
  2524 00001455 39 45 14                        	CMP	DWORD [20+EBP],EAX
  2525 00001458 7E 03                           	JLE	L414
  2526 0000145A 89 45 14                        	MOV	DWORD [20+EBP],EAX
  2527 0000145D                                 L414:
  2528 0000145D 8B 7D 08                        	MOV	EDI,DWORD [8+EBP]
  2529 00001460 8B 47 0C                        	MOV	EAX,DWORD [12+EDI]
  2530 00001463 39 45 18                        	CMP	DWORD [24+EBP],EAX
  2531 00001466 7E 03                           	JLE	L415
  2532 00001468 89 45 18                        	MOV	DWORD [24+EBP],EAX
  2533 0000146B                                 L415:
  2534 0000146B 8B 55 08                        	MOV	EDX,DWORD [8+EBP]
  2535 0000146E 8B 45 1C                        	MOV	EAX,DWORD [28+EBP]
  2536 00001471 89 45 F0                        	MOV	DWORD [-16+EBP],EAX
  2537 00001474 3B 42 10                        	CMP	EAX,DWORD [16+EDX]
  2538 00001477 0F 8F 000000BF                  	JG	L437
  2539 0000147D                                 L435:
  2540 0000147D 8B 7D 08                        	MOV	EDI,DWORD [8+EBP]
  2541 00001480 8B 75 F0                        	MOV	ESI,DWORD [-16+EBP]
  2542 00001483 8B 4D 10                        	MOV	ECX,DWORD [16+EBP]
  2543 00001486 8B 5C B7 14                     	MOV	EBX,DWORD [20+EDI+ESI*4]
  2544 0000148A 8B 75 14                        	MOV	ESI,DWORD [20+EBP]
  2545 0000148D 89 D8                           	MOV	EAX,EBX
  2546 0000148F 29 F8                           	SUB	EAX,EDI
  2547 00001491 8B 53 10                        	MOV	EDX,DWORD [16+EBX]
  2548 00001494 2D 00000414                     	SUB	EAX,1044
  2549 00001499 8B 7D 18                        	MOV	EDI,DWORD [24+EBP]
  2550 0000149C C1 F8 02                        	SAR	EAX,2
  2551 0000149F 29 D7                           	SUB	EDI,EDX
  2552 000014A1 69 C0 38E38E39                  	IMUL	EAX,EAX,954437177
  2553 000014A7 88 45 D7                        	MOV	BYTE [-41+EBP],AL
  2554 000014AA 29 D1                           	SUB	ECX,EDX
  2555 000014AC 8B 03                           	MOV	EAX,DWORD [EBX]
  2556 000014AE 8B 55 0C                        	MOV	EDX,DWORD [12+EBP]
  2557 000014B1 89 45 E0                        	MOV	DWORD [-32+EBP],EAX
  2558 000014B4 89 7D C8                        	MOV	DWORD [-56+EBP],EDI
  2559 000014B7 8B 43 0C                        	MOV	EAX,DWORD [12+EBX]
  2560 000014BA 29 C6                           	SUB	ESI,EAX
  2561 000014BC 29 C2                           	SUB	EDX,EAX
  2562 000014BE 89 75 E4                        	MOV	DWORD [-28+EBP],ESI
  2563 000014C1 89 55 E8                        	MOV	DWORD [-24+EBP],EDX
  2564 000014C4 0F 88 0000009A                  	JS	L444
  2565 000014CA                                 L420:
  2566 000014CA 85 C9                           	TEST	ECX,ECX
  2567 000014CC 0F 88 0000008B                  	JS	L445
  2568 000014D2                                 L421:
  2569 000014D2 8B 43 04                        	MOV	EAX,DWORD [4+EBX]
  2570 000014D5 39 45 E4                        	CMP	DWORD [-28+EBP],EAX
  2571 000014D8 7E 03                           	JLE	L422
  2572 000014DA 89 45 E4                        	MOV	DWORD [-28+EBP],EAX
  2573 000014DD                                 L422:
  2574 000014DD 8B 43 08                        	MOV	EAX,DWORD [8+EBX]
  2575 000014E0 39 45 C8                        	CMP	DWORD [-56+EBP],EAX
  2576 000014E3 7E 03                           	JLE	L423
  2577 000014E5 89 45 C8                        	MOV	DWORD [-56+EBP],EAX
  2578 000014E8                                 L423:
  2579 000014E8 89 CE                           	MOV	ESI,ECX
  2580 000014EA 3B 4D C8                        	CMP	ECX,DWORD [-56+EBP]
  2581 000014ED 7D 3B                           	JGE	L439
  2582 000014EF                                 L434:
  2583 000014EF 8B 7B 10                        	MOV	EDI,DWORD [16+EBX]
  2584 000014F2 8B 4D E8                        	MOV	ECX,DWORD [-24+EBP]
  2585 000014F5 01 F7                           	ADD	EDI,ESI
  2586 000014F7 3B 4D E4                        	CMP	ECX,DWORD [-28+EBP]
  2587 000014FA 89 7D EC                        	MOV	DWORD [-20+EBP],EDI
  2588 000014FD 7D 25                           	JGE	L441
  2589 000014FF                                 L433:
  2590 000014FF 8B 55 08                        	MOV	EDX,DWORD [8+EBP]
  2591 00001502 8B 7D EC                        	MOV	EDI,DWORD [-20+EBP]
  2592 00001505 8B 43 0C                        	MOV	EAX,DWORD [12+EBX]
  2593 00001508 0F AF 7A 08                     	IMUL	EDI,DWORD [8+EDX]
  2594 0000150C 01 C8                           	ADD	EAX,ECX
  2595 0000150E 8A 55 D7                        	MOV	DL,BYTE [-41+EBP]
  2596 00001511 01 F8                           	ADD	EAX,EDI
  2597 00001513 8B 7D D8                        	MOV	EDI,DWORD [-40+EBP]
  2598 00001516 89 45 CC                        	MOV	DWORD [-52+EBP],EAX
  2599 00001519 38 14 38                        	CMP	BYTE [EAX+EDI*1],DL
  2600 0000151C 74 26                           	JE	L446
  2601 0000151E                                 L430:
  2602 0000151E 41                              	INC	ECX
  2603 0000151F 3B 4D E4                        	CMP	ECX,DWORD [-28+EBP]
  2604 00001522 7C DB                           	JL	L433
  2605 00001524                                 L441:
  2606 00001524 46                              	INC	ESI
  2607 00001525 3B 75 C8                        	CMP	ESI,DWORD [-56+EBP]
  2608 00001528 7C C5                           	JL	L434
  2609 0000152A                                 L439:
  2610 0000152A 8B 7D 08                        	MOV	EDI,DWORD [8+EBP]
  2611 0000152D FF 45 F0                        	INC	DWORD [-16+EBP]
  2612 00001530 8B 75 F0                        	MOV	ESI,DWORD [-16+EBP]
  2613 00001533 3B 77 10                        	CMP	ESI,DWORD [16+EDI]
  2614 00001536 0F 8E FFFFFF41                  	JLE	L435
  2615 0000153C                                 L437:
  2616 0000153C 83 C4 2C                        	ADD	ESP,44
  2617 0000153F 5B                              	POP	EBX
  2618 00001540 5E                              	POP	ESI
  2619 00001541 5F                              	POP	EDI
  2620 00001542 5D                              	POP	EBP
  2621 00001543 C3                              	RET
  2622 00001544                                 L446:
  2623 00001544 89 F0                           	MOV	EAX,ESI
  2624 00001546 8B 55 E0                        	MOV	EDX,DWORD [-32+EBP]
  2625 00001549 0F AF 43 04                     	IMUL	EAX,DWORD [4+EBX]
  2626 0000154D 01 C8                           	ADD	EAX,ECX
  2627 0000154F 8B 7D DC                        	MOV	EDI,DWORD [-36+EBP]
  2628 00001552 8A 04 10                        	MOV	AL,BYTE [EAX+EDX*1]
  2629 00001555 8B 55 CC                        	MOV	EDX,DWORD [-52+EBP]
  2630 00001558 88 04 3A                        	MOV	BYTE [EDX+EDI*1],AL
  2631 0000155B EB C1                           	JMP	L430
  2632 0000155D                                 L445:
  2633 0000155D 31 C9                           	XOR	ECX,ECX
  2634 0000155F E9 FFFFFF6E                     	JMP	L421
  2635 00001564                                 L444:
  2636 00001564 C7 45 E8 00000000               	MOV	DWORD [-24+EBP],0
  2637 0000156B E9 FFFFFF5A                     	JMP	L420
  2638 00001570                                 L443:
  2639 00001570 C7 45 10 00000000               	MOV	DWORD [16+EBP],0
  2640 00001577 E9 FFFFFED3                     	JMP	L413
  2641 0000157C                                 L442:
  2642 0000157C C7 45 0C 00000000               	MOV	DWORD [12+EBP],0
  2643 00001583 E9 FFFFFEBD                     	JMP	L412
  2644 00001588                                 	GLOBAL	_sheetSlide
  2645 00001588                                 _sheetSlide:
  2646 00001588 55                              	PUSH	EBP
  2647 00001589 89 E5                           	MOV	EBP,ESP
  2648 0000158B 57                              	PUSH	EDI
  2649 0000158C 56                              	PUSH	ESI
  2650 0000158D 53                              	PUSH	EBX
  2651 0000158E 8B 45 0C                        	MOV	EAX,DWORD [12+EBP]
  2652 00001591 8B 5D 08                        	MOV	EBX,DWORD [8+EBP]
  2653 00001594 8B 7B 0C                        	MOV	EDI,DWORD [12+EBX]
  2654 00001597 8B 73 10                        	MOV	ESI,DWORD [16+EBX]
  2655 0000159A 89 43 0C                        	MOV	DWORD [12+EBX],EAX
  2656 0000159D 8B 45 10                        	MOV	EAX,DWORD [16+EBP]
  2657 000015A0 89 43 10                        	MOV	DWORD [16+EBX],EAX
  2658 000015A3 83 7B 18 00                     	CMP	DWORD [24+EBX],0
  2659 000015A7 78 74                           	JS	L447
  2660 000015A9 6A 00                           	PUSH	0
  2661 000015AB 89 F0                           	MOV	EAX,ESI
  2662 000015AD 03 43 08                        	ADD	EAX,DWORD [8+EBX]
  2663 000015B0 50                              	PUSH	EAX
  2664 000015B1 89 F8                           	MOV	EAX,EDI
  2665 000015B3 03 43 04                        	ADD	EAX,DWORD [4+EBX]
  2666 000015B6 50                              	PUSH	EAX
  2667 000015B7 56                              	PUSH	ESI
  2668 000015B8 57                              	PUSH	EDI
  2669 000015B9 FF 73 20                        	PUSH	DWORD [32+EBX]
  2670 000015BC E8 FFFFFB8E                     	CALL	_sheetRefreshMap
  2671 000015C1 8B 45 10                        	MOV	EAX,DWORD [16+EBP]
  2672 000015C4 FF 73 18                        	PUSH	DWORD [24+EBX]
  2673 000015C7 03 43 08                        	ADD	EAX,DWORD [8+EBX]
  2674 000015CA 50                              	PUSH	EAX
  2675 000015CB 8B 45 0C                        	MOV	EAX,DWORD [12+EBP]
  2676 000015CE 03 43 04                        	ADD	EAX,DWORD [4+EBX]
  2677 000015D1 50                              	PUSH	EAX
  2678 000015D2 FF 75 10                        	PUSH	DWORD [16+EBP]
  2679 000015D5 FF 75 0C                        	PUSH	DWORD [12+EBP]
  2680 000015D8 FF 73 20                        	PUSH	DWORD [32+EBX]
  2681 000015DB E8 FFFFFB6F                     	CALL	_sheetRefreshMap
  2682 000015E0 89 F0                           	MOV	EAX,ESI
  2683 000015E2 83 C4 30                        	ADD	ESP,48
  2684 000015E5 6A 00                           	PUSH	0
  2685 000015E7 03 43 08                        	ADD	EAX,DWORD [8+EBX]
  2686 000015EA 50                              	PUSH	EAX
  2687 000015EB 89 F8                           	MOV	EAX,EDI
  2688 000015ED 03 43 04                        	ADD	EAX,DWORD [4+EBX]
  2689 000015F0 50                              	PUSH	EAX
  2690 000015F1 56                              	PUSH	ESI
  2691 000015F2 57                              	PUSH	EDI
  2692 000015F3 FF 73 20                        	PUSH	DWORD [32+EBX]
  2693 000015F6 E8 FFFFFE26                     	CALL	_sheetRefreshSub
  2694 000015FB 8B 45 10                        	MOV	EAX,DWORD [16+EBP]
  2695 000015FE FF 73 18                        	PUSH	DWORD [24+EBX]
  2696 00001601 03 43 08                        	ADD	EAX,DWORD [8+EBX]
  2697 00001604 50                              	PUSH	EAX
  2698 00001605 8B 45 0C                        	MOV	EAX,DWORD [12+EBP]
  2699 00001608 03 43 04                        	ADD	EAX,DWORD [4+EBX]
  2700 0000160B 50                              	PUSH	EAX
  2701 0000160C FF 75 10                        	PUSH	DWORD [16+EBP]
  2702 0000160F FF 75 0C                        	PUSH	DWORD [12+EBP]
  2703 00001612 FF 73 20                        	PUSH	DWORD [32+EBX]
  2704 00001615 E8 FFFFFE07                     	CALL	_sheetRefreshSub
  2705 0000161A 83 C4 30                        	ADD	ESP,48
  2706 0000161D                                 L447:
  2707 0000161D 8D 65 F4                        	LEA	ESP,DWORD [-12+EBP]
  2708 00001620 5B                              	POP	EBX
  2709 00001621 5E                              	POP	ESI
  2710 00001622 5F                              	POP	EDI
  2711 00001623 5D                              	POP	EBP
  2712 00001624 C3                              	RET
  2713 00001625                                 	GLOBAL	_sheetFree
  2714 00001625                                 _sheetFree:
  2715 00001625 55                              	PUSH	EBP
  2716 00001626 89 E5                           	MOV	EBP,ESP
  2717 00001628 53                              	PUSH	EBX
  2718 00001629 8B 5D 08                        	MOV	EBX,DWORD [8+EBP]
  2719 0000162C 83 7B 18 00                     	CMP	DWORD [24+EBX],0
  2720 00001630 78 0A                           	JS	L450
  2721 00001632 6A FF                           	PUSH	-1
  2722 00001634 53                              	PUSH	EBX
  2723 00001635 E8 FFFFFC72                     	CALL	_sheetUpdown
  2724 0000163A 58                              	POP	EAX
  2725 0000163B 5A                              	POP	EDX
  2726 0000163C                                 L450:
  2727 0000163C C7 43 1C 00000000               	MOV	DWORD [28+EBX],0
  2728 00001643 8B 5D FC                        	MOV	EBX,DWORD [-4+EBP]
  2729 00001646 C9                              	LEAVE
  2730 00001647 C3                              	RET
  2731                                          [SECTION .data]
  2732 00000230                                 LC0:
  2733 00000230 3E 00                           	DB	">",0x00
  2734 00000232                                 LC1:
  2735 00000232 20 00                           	DB	" ",0x00
  2736                                          [SECTION .text]
  2737 00001648                                 	GLOBAL	_consoleMain
  2738 00001648                                 _consoleMain:
  2739 00001648 55                              	PUSH	EBP
  2740 00001649 89 E5                           	MOV	EBP,ESP
  2741 0000164B 57                              	PUSH	EDI
  2742 0000164C 56                              	PUSH	ESI
  2743 0000164D BF 00000010                     	MOV	EDI,16
  2744 00001652 53                              	PUSH	EBX
  2745 00001653 81 EC 00000210                  	SUB	ESP,528
  2746 00001659 E8 FFFFECB1                     	CALL	_processNow
  2747 0000165E C7 85 FFFFFDE4 00000000         	MOV	DWORD [-540+EBP],0
  2748 00001668 50                              	PUSH	EAX
  2749 00001669 89 85 FFFFFDE8                  	MOV	DWORD [-536+EBP],EAX
  2750 0000166F 8D 85 FFFFFDF4                  	LEA	EAX,DWORD [-524+EBP]
  2751 00001675 8B 9D FFFFFDE8                  	MOV	EBX,DWORD [-536+EBP]
  2752 0000167B 50                              	PUSH	EAX
  2753 0000167C 83 C3 10                        	ADD	EBX,16
  2754 0000167F 68 00000080                     	PUSH	128
  2755 00001684 53                              	PUSH	EBX
  2756 00001685 E8 FFFFE976                     	CALL	_QueueInit
  2757 0000168A E8 FFFFEBCB                     	CALL	_timerAlloc
  2758 0000168F 6A 01                           	PUSH	1
  2759 00001691 53                              	PUSH	EBX
  2760 00001692 50                              	PUSH	EAX
  2761 00001693 89 85 FFFFFDEC                  	MOV	DWORD [-532+EBP],EAX
  2762 00001699 E8 FFFFEBF4                     	CALL	_timerInit
  2763 0000169E 6A 32                           	PUSH	50
  2764 000016A0 FF B5 FFFFFDEC                  	PUSH	DWORD [-532+EBP]
  2765 000016A6 E8 FFFFEBFB                     	CALL	_timerSetTime
  2766 000016AB 83 C4 24                        	ADD	ESP,36
  2767 000016AE 6A 01                           	PUSH	1
  2768 000016B0 68 [00000230]                   	PUSH	LC0
  2769 000016B5 6A 00                           	PUSH	0
  2770 000016B7 6A 07                           	PUSH	7
  2771 000016B9 6A 1C                           	PUSH	28
  2772 000016BB 6A 08                           	PUSH	8
  2773 000016BD FF 75 08                        	PUSH	DWORD [8+EBP]
  2774 000016C0 E8 FFFFF641                     	CALL	_putFont8AscSheet
  2775 000016C5 83 C4 1C                        	ADD	ESP,28
  2776 000016C8                                 L452:
  2777 000016C8 E8 [00000000]                   	CALL	_io_cli
  2778 000016CD 8B 9D FFFFFDE8                  	MOV	EBX,DWORD [-536+EBP]
  2779 000016D3 83 C3 10                        	ADD	EBX,16
  2780 000016D6 53                              	PUSH	EBX
  2781 000016D7 E8 FFFFE9D7                     	CALL	_QueueSize
  2782 000016DC 5A                              	POP	EDX
  2783 000016DD 85 C0                           	TEST	EAX,EAX
  2784 000016DF 0F 84 00000103                  	JE	L467
  2785 000016E5 53                              	PUSH	EBX
  2786 000016E6 E8 FFFFE996                     	CALL	_QueuePop
  2787 000016EB 89 C6                           	MOV	ESI,EAX
  2788 000016ED E8 [00000000]                   	CALL	_io_sti
  2789 000016F2 58                              	POP	EAX
  2790 000016F3 83 FE 01                        	CMP	ESI,1
  2791 000016F6 0F 8E 0000009F                  	JLE	L468
  2792 000016FC                                 L457:
  2793 000016FC 8D 86 FFFFFEFF                  	LEA	EAX,DWORD [-257+ESI]
  2794 00001702 3D 000000FE                     	CMP	EAX,254
  2795 00001707 77 3D                           	JA	L460
  2796 00001709 81 FE 00000108                  	CMP	ESI,264
  2797 0000170F 74 6A                           	JE	L469
  2798 00001711 81 FF 000000EF                  	CMP	EDI,239
  2799 00001717 7F 2D                           	JG	L460
  2800 00001719 89 F0                           	MOV	EAX,ESI
  2801 0000171B 6A 01                           	PUSH	1
  2802 0000171D 88 85 FFFFFDF2                  	MOV	BYTE [-526+EBP],AL
  2803 00001723 8D 85 FFFFFDF2                  	LEA	EAX,DWORD [-526+EBP]
  2804 00001729 50                              	PUSH	EAX
  2805 0000172A 6A 00                           	PUSH	0
  2806 0000172C 6A 07                           	PUSH	7
  2807 0000172E 6A 1C                           	PUSH	28
  2808 00001730 57                              	PUSH	EDI
  2809 00001731 83 C7 08                        	ADD	EDI,8
  2810 00001734 FF 75 08                        	PUSH	DWORD [8+EBP]
  2811 00001737 C6 85 FFFFFDF3 00               	MOV	BYTE [-525+EBP],0
  2812 0000173E E8 FFFFF5C3                     	CALL	_putFont8AscSheet
  2813 00001743                                 L466:
  2814 00001743 83 C4 1C                        	ADD	ESP,28
  2815 00001746                                 L460:
  2816 00001746 6A 2B                           	PUSH	43
  2817 00001748 8D 47 07                        	LEA	EAX,DWORD [7+EDI]
  2818 0000174B 50                              	PUSH	EAX
  2819 0000174C 8B 45 08                        	MOV	EAX,DWORD [8+EBP]
  2820 0000174F 6A 1C                           	PUSH	28
  2821 00001751 57                              	PUSH	EDI
  2822 00001752 FF B5 FFFFFDE4                  	PUSH	DWORD [-540+EBP]
  2823 00001758 FF 70 04                        	PUSH	DWORD [4+EAX]
  2824 0000175B FF 30                           	PUSH	DWORD [EAX]
  2825 0000175D E8 FFFFF2F3                     	CALL	_boxFill8
  2826 00001762 8D 47 08                        	LEA	EAX,DWORD [8+EDI]
  2827 00001765 6A 2C                           	PUSH	44
  2828 00001767 50                              	PUSH	EAX
  2829 00001768 6A 1C                           	PUSH	28
  2830 0000176A 57                              	PUSH	EDI
  2831 0000176B FF 75 08                        	PUSH	DWORD [8+EBP]
  2832 0000176E E8 FFFFFC75                     	CALL	_sheetRefresh
  2833 00001773 83 C4 30                        	ADD	ESP,48
  2834 00001776 E9 FFFFFF4D                     	JMP	L452
  2835 0000177B                                 L469:
  2836 0000177B 83 FF 10                        	CMP	EDI,16
  2837 0000177E 7E C6                           	JLE	L460
  2838 00001780 6A 01                           	PUSH	1
  2839 00001782 68 [00000232]                   	PUSH	LC1
  2840 00001787 6A 00                           	PUSH	0
  2841 00001789 6A 07                           	PUSH	7
  2842 0000178B 6A 1C                           	PUSH	28
  2843 0000178D 57                              	PUSH	EDI
  2844 0000178E 83 EF 08                        	SUB	EDI,8
  2845 00001791 FF 75 08                        	PUSH	DWORD [8+EBP]
  2846 00001794 E8 FFFFF56D                     	CALL	_putFont8AscSheet
  2847 00001799 EB A8                           	JMP	L466
  2848 0000179B                                 L468:
  2849 0000179B 85 F6                           	TEST	ESI,ESI
  2850 0000179D 74 2F                           	JE	L458
  2851 0000179F 6A 00                           	PUSH	0
  2852 000017A1 53                              	PUSH	EBX
  2853 000017A2 FF B5 FFFFFDEC                  	PUSH	DWORD [-532+EBP]
  2854 000017A8 E8 FFFFEAE5                     	CALL	_timerInit
  2855 000017AD C7 85 FFFFFDE4 00000007         	MOV	DWORD [-540+EBP],7
  2856 000017B7                                 L465:
  2857 000017B7 83 C4 0C                        	ADD	ESP,12
  2858 000017BA 6A 32                           	PUSH	50
  2859 000017BC FF B5 FFFFFDEC                  	PUSH	DWORD [-532+EBP]
  2860 000017C2 E8 FFFFEADF                     	CALL	_timerSetTime
  2861 000017C7 59                              	POP	ECX
  2862 000017C8 5B                              	POP	EBX
  2863 000017C9 E9 FFFFFF2E                     	JMP	L457
  2864 000017CE                                 L458:
  2865 000017CE 6A 01                           	PUSH	1
  2866 000017D0 53                              	PUSH	EBX
  2867 000017D1 FF B5 FFFFFDEC                  	PUSH	DWORD [-532+EBP]
  2868 000017D7 E8 FFFFEAB6                     	CALL	_timerInit
  2869 000017DC C7 85 FFFFFDE4 00000000         	MOV	DWORD [-540+EBP],0
  2870 000017E6 EB CF                           	JMP	L465
  2871 000017E8                                 L467:
  2872 000017E8 FF B5 FFFFFDE8                  	PUSH	DWORD [-536+EBP]
  2873 000017EE E8 FFFFEEA0                     	CALL	_processSleep
  2874 000017F3 E8 [00000000]                   	CALL	_io_sti
  2875 000017F8 58                              	POP	EAX
  2876 000017F9 E9 FFFFFECA                     	JMP	L452
  2877 000017FE                                 	GLOBAL	_makeTextBox
  2878 000017FE                                 _makeTextBox:
  2879 000017FE 55                              	PUSH	EBP
  2880 000017FF 89 E5                           	MOV	EBP,ESP
  2881 00001801 57                              	PUSH	EDI
  2882 00001802 56                              	PUSH	ESI
  2883 00001803 53                              	PUSH	EBX
  2884 00001804 83 EC 14                        	SUB	ESP,20
  2885 00001807 8B 45 0C                        	MOV	EAX,DWORD [12+EBP]
  2886 0000180A 8B 75 10                        	MOV	ESI,DWORD [16+EBP]
  2887 0000180D 03 45 14                        	ADD	EAX,DWORD [20+EBP]
  2888 00001810 83 EE 03                        	SUB	ESI,3
  2889 00001813 56                              	PUSH	ESI
  2890 00001814 89 45 F0                        	MOV	DWORD [-16+EBP],EAX
  2891 00001817 8B 45 10                        	MOV	EAX,DWORD [16+EBP]
  2892 0000181A 03 45 18                        	ADD	EAX,DWORD [24+EBP]
  2893 0000181D 89 45 EC                        	MOV	DWORD [-20+EBP],EAX
  2894 00001820 8B 45 F0                        	MOV	EAX,DWORD [-16+EBP]
  2895 00001823 40                              	INC	EAX
  2896 00001824 50                              	PUSH	EAX
  2897 00001825 89 45 E8                        	MOV	DWORD [-24+EBP],EAX
  2898 00001828 8B 45 0C                        	MOV	EAX,DWORD [12+EBP]
  2899 0000182B 56                              	PUSH	ESI
  2900 0000182C 83 E8 02                        	SUB	EAX,2
  2901 0000182F 50                              	PUSH	EAX
  2902 00001830 89 45 E4                        	MOV	DWORD [-28+EBP],EAX
  2903 00001833 8B 45 08                        	MOV	EAX,DWORD [8+EBP]
  2904 00001836 6A 0F                           	PUSH	15
  2905 00001838 FF 70 04                        	PUSH	DWORD [4+EAX]
  2906 0000183B FF 30                           	PUSH	DWORD [EAX]
  2907 0000183D E8 FFFFF213                     	CALL	_boxFill8
  2908 00001842 8B 7D 0C                        	MOV	EDI,DWORD [12+EBP]
  2909 00001845 8B 45 EC                        	MOV	EAX,DWORD [-20+EBP]
  2910 00001848 83 EF 03                        	SUB	EDI,3
  2911 0000184B 40                              	INC	EAX
  2912 0000184C 50                              	PUSH	EAX
  2913 0000184D 89 45 E0                        	MOV	DWORD [-32+EBP],EAX
  2914 00001850 57                              	PUSH	EDI
  2915 00001851 8B 45 08                        	MOV	EAX,DWORD [8+EBP]
  2916 00001854 56                              	PUSH	ESI
  2917 00001855 57                              	PUSH	EDI
  2918 00001856 6A 0F                           	PUSH	15
  2919 00001858 FF 70 04                        	PUSH	DWORD [4+EAX]
  2920 0000185B FF 30                           	PUSH	DWORD [EAX]
  2921 0000185D E8 FFFFF1F3                     	CALL	_boxFill8
  2922 00001862 8B 45 08                        	MOV	EAX,DWORD [8+EBP]
  2923 00001865 83 C4 38                        	ADD	ESP,56
  2924 00001868 8B 5D EC                        	MOV	EBX,DWORD [-20+EBP]
  2925 0000186B 83 C3 02                        	ADD	EBX,2
  2926 0000186E 53                              	PUSH	EBX
  2927 0000186F FF 75 E8                        	PUSH	DWORD [-24+EBP]
  2928 00001872 53                              	PUSH	EBX
  2929 00001873 57                              	PUSH	EDI
  2930 00001874 6A 07                           	PUSH	7
  2931 00001876 FF 70 04                        	PUSH	DWORD [4+EAX]
  2932 00001879 FF 30                           	PUSH	DWORD [EAX]
  2933 0000187B E8 FFFFF1D5                     	CALL	_boxFill8
  2934 00001880 8B 45 F0                        	MOV	EAX,DWORD [-16+EBP]
  2935 00001883 53                              	PUSH	EBX
  2936 00001884 83 C0 02                        	ADD	EAX,2
  2937 00001887 50                              	PUSH	EAX
  2938 00001888 56                              	PUSH	ESI
  2939 00001889 50                              	PUSH	EAX
  2940 0000188A 8B 45 08                        	MOV	EAX,DWORD [8+EBP]
  2941 0000188D 6A 07                           	PUSH	7
  2942 0000188F FF 70 04                        	PUSH	DWORD [4+EAX]
  2943 00001892 FF 30                           	PUSH	DWORD [EAX]
  2944 00001894 E8 FFFFF1BC                     	CALL	_boxFill8
  2945 00001899 8B 45 08                        	MOV	EAX,DWORD [8+EBP]
  2946 0000189C 83 C4 38                        	ADD	ESP,56
  2947 0000189F 8B 5D 10                        	MOV	EBX,DWORD [16+EBP]
  2948 000018A2 83 EB 02                        	SUB	EBX,2
  2949 000018A5 8B 7D 0C                        	MOV	EDI,DWORD [12+EBP]
  2950 000018A8 53                              	PUSH	EBX
  2951 000018A9 4F                              	DEC	EDI
  2952 000018AA FF 75 F0                        	PUSH	DWORD [-16+EBP]
  2953 000018AD 53                              	PUSH	EBX
  2954 000018AE 57                              	PUSH	EDI
  2955 000018AF 6A 00                           	PUSH	0
  2956 000018B1 FF 70 04                        	PUSH	DWORD [4+EAX]
  2957 000018B4 FF 30                           	PUSH	DWORD [EAX]
  2958 000018B6 E8 FFFFF19A                     	CALL	_boxFill8
  2959 000018BB 8B 45 08                        	MOV	EAX,DWORD [8+EBP]
  2960 000018BE FF 75 EC                        	PUSH	DWORD [-20+EBP]
  2961 000018C1 FF 75 E4                        	PUSH	DWORD [-28+EBP]
  2962 000018C4 53                              	PUSH	EBX
  2963 000018C5 FF 75 E4                        	PUSH	DWORD [-28+EBP]
  2964 000018C8 6A 00                           	PUSH	0
  2965 000018CA FF 70 04                        	PUSH	DWORD [4+EAX]
  2966 000018CD FF 30                           	PUSH	DWORD [EAX]
  2967 000018CF E8 FFFFF181                     	CALL	_boxFill8
  2968 000018D4 8B 45 08                        	MOV	EAX,DWORD [8+EBP]
  2969 000018D7 83 C4 38                        	ADD	ESP,56
  2970 000018DA FF 75 E0                        	PUSH	DWORD [-32+EBP]
  2971 000018DD FF 75 F0                        	PUSH	DWORD [-16+EBP]
  2972 000018E0 FF 75 E0                        	PUSH	DWORD [-32+EBP]
  2973 000018E3 FF 75 E4                        	PUSH	DWORD [-28+EBP]
  2974 000018E6 6A 08                           	PUSH	8
  2975 000018E8 FF 70 04                        	PUSH	DWORD [4+EAX]
  2976 000018EB FF 30                           	PUSH	DWORD [EAX]
  2977 000018ED E8 FFFFF163                     	CALL	_boxFill8
  2978 000018F2 8B 45 08                        	MOV	EAX,DWORD [8+EBP]
  2979 000018F5 FF 75 E0                        	PUSH	DWORD [-32+EBP]
  2980 000018F8 FF 75 E8                        	PUSH	DWORD [-24+EBP]
  2981 000018FB 53                              	PUSH	EBX
  2982 000018FC FF 75 E8                        	PUSH	DWORD [-24+EBP]
  2983 000018FF 6A 08                           	PUSH	8
  2984 00001901 FF 70 04                        	PUSH	DWORD [4+EAX]
  2985 00001904 FF 30                           	PUSH	DWORD [EAX]
  2986 00001906 E8 FFFFF14A                     	CALL	_boxFill8
  2987 0000190B 8B 45 10                        	MOV	EAX,DWORD [16+EBP]
  2988 0000190E 83 C4 38                        	ADD	ESP,56
  2989 00001911 48                              	DEC	EAX
  2990 00001912 FF 75 EC                        	PUSH	DWORD [-20+EBP]
  2991 00001915 FF 75 F0                        	PUSH	DWORD [-16+EBP]
  2992 00001918 50                              	PUSH	EAX
  2993 00001919 57                              	PUSH	EDI
  2994 0000191A 0F B6 45 1C                     	MOVZX	EAX,BYTE [28+EBP]
  2995 0000191E 50                              	PUSH	EAX
  2996 0000191F 8B 45 08                        	MOV	EAX,DWORD [8+EBP]
  2997 00001922 FF 70 04                        	PUSH	DWORD [4+EAX]
  2998 00001925 FF 30                           	PUSH	DWORD [EAX]
  2999 00001927 E8 FFFFF129                     	CALL	_boxFill8
  3000 0000192C 8D 65 F4                        	LEA	ESP,DWORD [-12+EBP]
  3001 0000192F 5B                              	POP	EBX
  3002 00001930 5E                              	POP	ESI
  3003 00001931 5F                              	POP	EDI
  3004 00001932 5D                              	POP	EBP
  3005 00001933 C3                              	RET
  3006                                          [SECTION .data]
  3007 00000234                                 _closeBtn.2:
  3008 00000234 4F 4F 4F 4F 4F 4F 4F 4F 4F 4F   	DB	"OOOOOOOOOOOOOOO@"
       0000023E 4F 4F 4F 4F 4F 40 
  3009 00000244 4F 51 51 51 51 51 51 51 51 51   	DB	"OQQQQQQQQQQQQQ$@"
       0000024E 51 51 51 51 24 40 
  3010 00000254 4F 51 51 51 51 51 51 51 51 51   	DB	"OQQQQQQQQQQQQQ$@"
       0000025E 51 51 51 51 24 40 
  3011 00000264 4F 51 51 51 40 40 51 51 51 51   	DB	"OQQQ@@QQQQ@@QQ$@"
       0000026E 40 40 51 51 24 40 
  3012 00000274 4F 51 51 51 51 40 40 51 51 40   	DB	"OQQQQ@@QQ@@QQQ$@"
       0000027E 40 51 51 51 24 40 
  3013 00000284 4F 51 51 51 51 51 40 40 40 40   	DB	"OQQQQQ@@@@QQQQ$@"
       0000028E 51 51 51 51 24 40 
  3014 00000294 4F 51 51 51 51 51 51 40 40 51   	DB	"OQQQQQQ@@QQQQQ$@"
       0000029E 51 51 51 51 24 40 
  3015 000002A4 4F 51 51 51 51 51 40 40 40 40   	DB	"OQQQQQ@@@@QQQQ$@"
       000002AE 51 51 51 51 24 40 
  3016 000002B4 4F 51 51 51 51 40 40 51 51 40   	DB	"OQQQQ@@QQ@@QQQ$@"
       000002BE 40 51 51 51 24 40 
  3017 000002C4 4F 51 51 51 40 40 51 51 51 51   	DB	"OQQQ@@QQQQ@@QQ$@"
       000002CE 40 40 51 51 24 40 
  3018 000002D4 4F 51 51 51 51 51 51 51 51 51   	DB	"OQQQQQQQQQQQQQ$@"
       000002DE 51 51 51 51 24 40 
  3019 000002E4 4F 51 51 51 51 51 51 51 51 51   	DB	"OQQQQQQQQQQQQQ$@"
       000002EE 51 51 51 51 24 40 
  3020 000002F4 4F 24 24 24 24 24 24 24 24 24   	DB	"O$$$$$$$$$$$$$$@"
       000002FE 24 24 24 24 24 40 
  3021 00000304 40 40 40 40 40 40 40 40 40 40   	DB	"@@@@@@@@@@@@@@@@"
       0000030E 40 40 40 40 40 40 
  3022                                          [SECTION .text]
  3023 00001934                                 	GLOBAL	_makeWindowTitle
  3024 00001934                                 _makeWindowTitle:
  3025 00001934 55                              	PUSH	EBP
  3026 00001935 89 E5                           	MOV	EBP,ESP
  3027 00001937 57                              	PUSH	EDI
  3028 00001938 56                              	PUSH	ESI
  3029 00001939 53                              	PUSH	EBX
  3030 0000193A 51                              	PUSH	ECX
  3031 0000193B 80 7D 14 00                     	CMP	BYTE [20+EBP],0
  3032 0000193F 0F 84 00000097                  	JE	L472
  3033 00001945 B3 07                           	MOV	BL,7
  3034 00001947 B2 0C                           	MOV	DL,12
  3035 00001949                                 L473:
  3036 00001949 8B 45 0C                        	MOV	EAX,DWORD [12+EBP]
  3037 0000194C 6A 14                           	PUSH	20
  3038 0000194E 83 E8 04                        	SUB	EAX,4
  3039 00001951 31 FF                           	XOR	EDI,EDI
  3040 00001953 50                              	PUSH	EAX
  3041 00001954 6A 03                           	PUSH	3
  3042 00001956 6A 03                           	PUSH	3
  3043 00001958 0F B6 C2                        	MOVZX	EAX,DL
  3044 0000195B 50                              	PUSH	EAX
  3045 0000195C FF 75 0C                        	PUSH	DWORD [12+EBP]
  3046 0000195F FF 75 08                        	PUSH	DWORD [8+EBP]
  3047 00001962 E8 FFFFF0EE                     	CALL	_boxFill8
  3048 00001967 FF 75 10                        	PUSH	DWORD [16+EBP]
  3049 0000196A 0F BE C3                        	MOVSX	EAX,BL
  3050 0000196D 50                              	PUSH	EAX
  3051 0000196E 6A 04                           	PUSH	4
  3052 00001970 6A 18                           	PUSH	24
  3053 00001972 FF 75 0C                        	PUSH	DWORD [12+EBP]
  3054 00001975 FF 75 08                        	PUSH	DWORD [8+EBP]
  3055 00001978 E8 FFFFF33A                     	CALL	_putFont8_asc
  3056 0000197D 83 C4 34                        	ADD	ESP,52
  3057 00001980 6B 5D 0C 05                     	IMUL	EBX,DWORD [12+EBP],5
  3058 00001984 C7 45 F0 00000000               	MOV	DWORD [-16+EBP],0
  3059 0000198B                                 L489:
  3060 0000198B 8B 45 0C                        	MOV	EAX,DWORD [12+EBP]
  3061 0000198E 8B 55 08                        	MOV	EDX,DWORD [8+EBP]
  3062 00001991 01 D8                           	ADD	EAX,EBX
  3063 00001993 31 F6                           	XOR	ESI,ESI
  3064 00001995 8D 4C 02 EB                     	LEA	ECX,DWORD [-21+EDX+EAX*1]
  3065 00001999                                 L488:
  3066 00001999 8A 94 3E [00000234]             	MOV	DL,BYTE [_closeBtn.2+ESI+EDI*1]
  3067 000019A0 80 FA 40                        	CMP	DL,64
  3068 000019A3 74 33                           	JE	L494
  3069 000019A5 80 FA 24                        	CMP	DL,36
  3070 000019A8 74 2A                           	JE	L495
  3071 000019AA 80 FA 51                        	CMP	DL,81
  3072 000019AD B2 08                           	MOV	DL,8
  3073 000019AF 0F 95 C0                        	SETNE	AL
  3074 000019B2 28 C2                           	SUB	DL,AL
  3075 000019B4                                 L483:
  3076 000019B4 46                              	INC	ESI
  3077 000019B5 88 11                           	MOV	BYTE [ECX],DL
  3078 000019B7 41                              	INC	ECX
  3079 000019B8 83 FE 0F                        	CMP	ESI,15
  3080 000019BB 7E DC                           	JLE	L488
  3081 000019BD FF 45 F0                        	INC	DWORD [-16+EBP]
  3082 000019C0 83 C7 10                        	ADD	EDI,16
  3083 000019C3 03 5D 0C                        	ADD	EBX,DWORD [12+EBP]
  3084 000019C6 83 7D F0 0D                     	CMP	DWORD [-16+EBP],13
  3085 000019CA 7E BF                           	JLE	L489
  3086 000019CC 8D 65 F4                        	LEA	ESP,DWORD [-12+EBP]
  3087 000019CF 5B                              	POP	EBX
  3088 000019D0 5E                              	POP	ESI
  3089 000019D1 5F                              	POP	EDI
  3090 000019D2 5D                              	POP	EBP
  3091 000019D3 C3                              	RET
  3092 000019D4                                 L495:
  3093 000019D4 B2 0F                           	MOV	DL,15
  3094 000019D6 EB DC                           	JMP	L483
  3095 000019D8                                 L494:
  3096 000019D8 31 D2                           	XOR	EDX,EDX
  3097 000019DA EB D8                           	JMP	L483
  3098 000019DC                                 L472:
  3099 000019DC B3 08                           	MOV	BL,8
  3100 000019DE B2 0F                           	MOV	DL,15
  3101 000019E0 E9 FFFFFF64                     	JMP	L473
  3102 000019E5                                 	GLOBAL	_makeWindow
  3103 000019E5                                 _makeWindow:
  3104 000019E5 55                              	PUSH	EBP
  3105 000019E6 89 E5                           	MOV	EBP,ESP
  3106 000019E8 57                              	PUSH	EDI
  3107 000019E9 56                              	PUSH	ESI
  3108 000019EA 53                              	PUSH	EBX
  3109 000019EB 83 EC 18                        	SUB	ESP,24
  3110 000019EE 8B 45 10                        	MOV	EAX,DWORD [16+EBP]
  3111 000019F1 8B 5D 0C                        	MOV	EBX,DWORD [12+EBP]
  3112 000019F4 89 45 F0                        	MOV	DWORD [-16+EBP],EAX
  3113 000019F7 8B 75 08                        	MOV	ESI,DWORD [8+EBP]
  3114 000019FA 8B 45 14                        	MOV	EAX,DWORD [20+EBP]
  3115 000019FD 89 45 EC                        	MOV	DWORD [-20+EBP],EAX
  3116 00001A00 0F BE 45 18                     	MOVSX	EAX,BYTE [24+EBP]
  3117 00001A04 89 45 E8                        	MOV	DWORD [-24+EBP],EAX
  3118 00001A07 8D 43 FF                        	LEA	EAX,DWORD [-1+EBX]
  3119 00001A0A 6A 00                           	PUSH	0
  3120 00001A0C 89 45 E4                        	MOV	DWORD [-28+EBP],EAX
  3121 00001A0F 50                              	PUSH	EAX
  3122 00001A10 6A 00                           	PUSH	0
  3123 00001A12 6A 00                           	PUSH	0
  3124 00001A14 6A 08                           	PUSH	8
  3125 00001A16 53                              	PUSH	EBX
  3126 00001A17 56                              	PUSH	ESI
  3127 00001A18 E8 FFFFF038                     	CALL	_boxFill8
  3128 00001A1D 8D 43 FE                        	LEA	EAX,DWORD [-2+EBX]
  3129 00001A20 6A 01                           	PUSH	1
  3130 00001A22 89 45 E0                        	MOV	DWORD [-32+EBP],EAX
  3131 00001A25 50                              	PUSH	EAX
  3132 00001A26 6A 01                           	PUSH	1
  3133 00001A28 6A 01                           	PUSH	1
  3134 00001A2A 6A 07                           	PUSH	7
  3135 00001A2C 53                              	PUSH	EBX
  3136 00001A2D 56                              	PUSH	ESI
  3137 00001A2E E8 FFFFF022                     	CALL	_boxFill8
  3138 00001A33 8B 45 F0                        	MOV	EAX,DWORD [-16+EBP]
  3139 00001A36 83 C4 38                        	ADD	ESP,56
  3140 00001A39 48                              	DEC	EAX
  3141 00001A3A 89 45 DC                        	MOV	DWORD [-36+EBP],EAX
  3142 00001A3D 50                              	PUSH	EAX
  3143 00001A3E 6A 00                           	PUSH	0
  3144 00001A40 6A 00                           	PUSH	0
  3145 00001A42 6A 00                           	PUSH	0
  3146 00001A44 6A 08                           	PUSH	8
  3147 00001A46 53                              	PUSH	EBX
  3148 00001A47 56                              	PUSH	ESI
  3149 00001A48 E8 FFFFF008                     	CALL	_boxFill8
  3150 00001A4D 8B 7D F0                        	MOV	EDI,DWORD [-16+EBP]
  3151 00001A50 83 EF 02                        	SUB	EDI,2
  3152 00001A53 57                              	PUSH	EDI
  3153 00001A54 6A 01                           	PUSH	1
  3154 00001A56 6A 01                           	PUSH	1
  3155 00001A58 6A 01                           	PUSH	1
  3156 00001A5A 6A 07                           	PUSH	7
  3157 00001A5C 53                              	PUSH	EBX
  3158 00001A5D 56                              	PUSH	ESI
  3159 00001A5E E8 FFFFEFF2                     	CALL	_boxFill8
  3160 00001A63 83 C4 38                        	ADD	ESP,56
  3161 00001A66 57                              	PUSH	EDI
  3162 00001A67 FF 75 E0                        	PUSH	DWORD [-32+EBP]
  3163 00001A6A 6A 01                           	PUSH	1
  3164 00001A6C FF 75 E0                        	PUSH	DWORD [-32+EBP]
  3165 00001A6F 6A 0F                           	PUSH	15
  3166 00001A71 53                              	PUSH	EBX
  3167 00001A72 56                              	PUSH	ESI
  3168 00001A73 E8 FFFFEFDD                     	CALL	_boxFill8
  3169 00001A78 FF 75 DC                        	PUSH	DWORD [-36+EBP]
  3170 00001A7B FF 75 E4                        	PUSH	DWORD [-28+EBP]
  3171 00001A7E 6A 00                           	PUSH	0
  3172 00001A80 FF 75 E4                        	PUSH	DWORD [-28+EBP]
  3173 00001A83 6A 00                           	PUSH	0
  3174 00001A85 53                              	PUSH	EBX
  3175 00001A86 56                              	PUSH	ESI
  3176 00001A87 E8 FFFFEFC9                     	CALL	_boxFill8
  3177 00001A8C 8B 45 F0                        	MOV	EAX,DWORD [-16+EBP]
  3178 00001A8F 83 C4 38                        	ADD	ESP,56
  3179 00001A92 83 E8 03                        	SUB	EAX,3
  3180 00001A95 50                              	PUSH	EAX
  3181 00001A96 8D 43 FD                        	LEA	EAX,DWORD [-3+EBX]
  3182 00001A99 50                              	PUSH	EAX
  3183 00001A9A 6A 02                           	PUSH	2
  3184 00001A9C 6A 02                           	PUSH	2
  3185 00001A9E 6A 08                           	PUSH	8
  3186 00001AA0 53                              	PUSH	EBX
  3187 00001AA1 56                              	PUSH	ESI
  3188 00001AA2 E8 FFFFEFAE                     	CALL	_boxFill8
  3189 00001AA7 57                              	PUSH	EDI
  3190 00001AA8 FF 75 E0                        	PUSH	DWORD [-32+EBP]
  3191 00001AAB 57                              	PUSH	EDI
  3192 00001AAC 6A 01                           	PUSH	1
  3193 00001AAE 6A 0F                           	PUSH	15
  3194 00001AB0 53                              	PUSH	EBX
  3195 00001AB1 56                              	PUSH	ESI
  3196 00001AB2 E8 FFFFEF9E                     	CALL	_boxFill8
  3197 00001AB7 83 C4 38                        	ADD	ESP,56
  3198 00001ABA FF 75 DC                        	PUSH	DWORD [-36+EBP]
  3199 00001ABD FF 75 E4                        	PUSH	DWORD [-28+EBP]
  3200 00001AC0 FF 75 DC                        	PUSH	DWORD [-36+EBP]
  3201 00001AC3 6A 00                           	PUSH	0
  3202 00001AC5 6A 00                           	PUSH	0
  3203 00001AC7 53                              	PUSH	EBX
  3204 00001AC8 56                              	PUSH	ESI
  3205 00001AC9 E8 FFFFEF87                     	CALL	_boxFill8
  3206 00001ACE 89 75 08                        	MOV	DWORD [8+EBP],ESI
  3207 00001AD1 8B 45 E8                        	MOV	EAX,DWORD [-24+EBP]
  3208 00001AD4 89 5D 0C                        	MOV	DWORD [12+EBP],EBX
  3209 00001AD7 89 45 14                        	MOV	DWORD [20+EBP],EAX
  3210 00001ADA 83 C4 1C                        	ADD	ESP,28
  3211 00001ADD 8B 45 EC                        	MOV	EAX,DWORD [-20+EBP]
  3212 00001AE0 89 45 10                        	MOV	DWORD [16+EBP],EAX
  3213 00001AE3 8D 65 F4                        	LEA	ESP,DWORD [-12+EBP]
  3214 00001AE6 5B                              	POP	EBX
  3215 00001AE7 5E                              	POP	ESI
  3216 00001AE8 5F                              	POP	EDI
  3217 00001AE9 5D                              	POP	EBP
  3218 00001AEA E9 FFFFFE45                     	JMP	_makeWindowTitle
  3219                                          [SECTION .data]
  3220 00000314                                 LC2:
  3221 00000314 63 6F 6E 73 6F 6C 65 00         	DB	"console",0x00
  3222 0000031C                                 LC3:
  3223 0000031C 70 72 6F 63 65 73 73 41 00      	DB	"processA",0x00
  3224 00000325                                 LC4:
  3225 00000325 57 65 6C 63 6F 6D 65 20 74 6F   	DB	"Welcome to DickOS",0x00
       0000032F 20 44 69 63 6B 4F 53 00 
  3226 00000337                                 LC5:
  3227 00000337 28 25 33 64 2C 20 25 33 64 29   	DB	"(%3d, %3d)",0x00
       00000341 00 
  3228 00000342                                 LC6:
  3229 00000342 6D 65 6D 6F 72 79 20 25 64 4D   	DB	"memory %dMB free : %dKB",0x00
       0000034C 42 20 66 72 65 65 20 3A 20 25 
       00000356 64 4B 42 00 
  3230 0000035A                                 LC8:
  3231 0000035A 5B 6C 63 72 20 25 34 64 20 25   	DB	"[lcr %4d %4d]",0x00
       00000364 34 64 5D 00 
  3232 00000368                                 LC7:
  3233 00000368 25 30 32 58 00                  	DB	"%02X",0x00
  3234                                          [SECTION .text]
  3235 00001AEF                                 	GLOBAL	_Main
  3236 00001AEF                                 _Main:
  3237 00001AEF 55                              	PUSH	EBP
  3238 00001AF0 89 E5                           	MOV	EBP,ESP
  3239 00001AF2 57                              	PUSH	EDI
  3240 00001AF3 56                              	PUSH	ESI
  3241 00001AF4 53                              	PUSH	EBX
  3242 00001AF5 8D 9D FFFFFC14                  	LEA	EBX,DWORD [-1004+EBP]
  3243 00001AFB 81 EC 00000444                  	SUB	ESP,1092
  3244 00001B01 C7 85 FFFFFBE0 00000000         	MOV	DWORD [-1056+EBP],0
  3245 00001B0B C7 85 FFFFFBDC 00000000         	MOV	DWORD [-1060+EBP],0
  3246 00001B15 C7 85 FFFFFBD4 FFFFFFFF         	MOV	DWORD [-1068+EBP],-1
  3247 00001B1F A0 00000FF1                     	MOV	AL,BYTE [4081]
  3248 00001B24 C0 F8 04                        	SAR	AL,4
  3249 00001B27 89 C2                           	MOV	EDX,EAX
  3250 00001B29 83 E2 07                        	AND	EDX,7
  3251 00001B2C 89 95 FFFFFBD8                  	MOV	DWORD [-1064+EBP],EDX
  3252 00001B32 E8 FFFFED8F                     	CALL	_initGdtit
  3253 00001B37 E8 FFFFEB95                     	CALL	_init_pic
  3254 00001B3C E8 [00000000]                   	CALL	_io_sti
  3255 00001B41 8D 85 FFFFFDC4                  	LEA	EAX,DWORD [-572+EBP]
  3256 00001B47 6A 00                           	PUSH	0
  3257 00001B49 50                              	PUSH	EAX
  3258 00001B4A 68 00000080                     	PUSH	128
  3259 00001B4F 53                              	PUSH	EBX
  3260 00001B50 E8 FFFFE4AB                     	CALL	_QueueInit
  3261 00001B55 E8 FFFFE691                     	CALL	_initPit
  3262 00001B5A 68 00000100                     	PUSH	256
  3263 00001B5F 53                              	PUSH	EBX
  3264 00001B60 E8 FFFFE56E                     	CALL	_initKeyboard
  3265 00001B65 8D 85 FFFFFD34                  	LEA	EAX,DWORD [-716+EBP]
  3266 00001B6B 50                              	PUSH	EAX
  3267 00001B6C 68 00000200                     	PUSH	512
  3268 00001B71 53                              	PUSH	EBX
  3269 00001B72 E8 FFFFE598                     	CALL	_enableMouse
  3270 00001B77 83 C4 24                        	ADD	ESP,36
  3271 00001B7A 68 000000F8                     	PUSH	248
  3272 00001B7F 6A 21                           	PUSH	33
  3273 00001B81 E8 [00000000]                   	CALL	_io_out8
  3274 00001B86 68 000000EF                     	PUSH	239
  3275 00001B8B 68 000000A1                     	PUSH	161
  3276 00001B90 E8 [00000000]                   	CALL	_io_out8
  3277 00001B95 8D 85 FFFFFD44                  	LEA	EAX,DWORD [-700+EBP]
  3278 00001B9B 6A 00                           	PUSH	0
  3279 00001B9D 50                              	PUSH	EAX
  3280 00001B9E 8D 85 FFFFFBF4                  	LEA	EAX,DWORD [-1036+EBP]
  3281 00001BA4 6A 20                           	PUSH	32
  3282 00001BA6 50                              	PUSH	EAX
  3283 00001BA7 E8 FFFFE454                     	CALL	_QueueInit
  3284 00001BAC 83 C4 20                        	ADD	ESP,32
  3285 00001BAF E8 FFFFE6A6                     	CALL	_timerAlloc
  3286 00001BB4 6A 01                           	PUSH	1
  3287 00001BB6 53                              	PUSH	EBX
  3288 00001BB7 89 85 FFFFFBBC                  	MOV	DWORD [-1092+EBP],EAX
  3289 00001BBD 50                              	PUSH	EAX
  3290 00001BBE E8 FFFFE6CF                     	CALL	_timerInit
  3291 00001BC3 6A 32                           	PUSH	50
  3292 00001BC5 FF B5 FFFFFBBC                  	PUSH	DWORD [-1092+EBP]
  3293 00001BCB E8 FFFFE6D6                     	CALL	_timerSetTime
  3294 00001BD0 68 BFFFFFFF                     	PUSH	-1073741825
  3295 00001BD5 68 00400000                     	PUSH	4194304
  3296 00001BDA E8 FFFFF261                     	CALL	_memtest
  3297 00001BDF 68 003C0000                     	PUSH	3932160
  3298 00001BE4 89 C3                           	MOV	EBX,EAX
  3299 00001BE6 E8 FFFFF2F1                     	CALL	_memsegInit
  3300 00001BEB 83 C4 20                        	ADD	ESP,32
  3301 00001BEE 68 0009E000                     	PUSH	647168
  3302 00001BF3 68 00001000                     	PUSH	4096
  3303 00001BF8 68 003C0000                     	PUSH	3932160
  3304 00001BFD E8 FFFFF360                     	CALL	_memsegFree
  3305 00001C02 8D 83 FFC00000                  	LEA	EAX,DWORD [-4194304+EBX]
  3306 00001C08 50                              	PUSH	EAX
  3307 00001C09 68 00400000                     	PUSH	4194304
  3308 00001C0E 68 003C0000                     	PUSH	3932160
  3309 00001C13 E8 FFFFF34A                     	CALL	_memsegFree
  3310 00001C18 E8 FFFFEE25                     	CALL	_init_palette
  3311 00001C1D 0F BF 05 00000FF6               	MOVSX	EAX,WORD [4086]
  3312 00001C24 50                              	PUSH	EAX
  3313 00001C25 0F BF 05 00000FF4               	MOVSX	EAX,WORD [4084]
  3314 00001C2C 50                              	PUSH	EAX
  3315 00001C2D FF 35 00000FF8                  	PUSH	DWORD [4088]
  3316 00001C33 68 003C0000                     	PUSH	3932160
  3317 00001C38 E8 FFFFF43D                     	CALL	_shtctlInit
  3318 00001C3D 83 C4 28                        	ADD	ESP,40
  3319 00001C40 89 C6                           	MOV	ESI,EAX
  3320 00001C42 68 003C0000                     	PUSH	3932160
  3321 00001C47 E8 FFFFE793                     	CALL	_processInit
  3322 00001C4C 6A 00                           	PUSH	0
  3323 00001C4E 6A 01                           	PUSH	1
  3324 00001C50 50                              	PUSH	EAX
  3325 00001C51 89 85 FFFFFBB8                  	MOV	DWORD [-1096+EBP],EAX
  3326 00001C57 89 85 FFFFFC2C                  	MOV	DWORD [-980+EBP],EAX
  3327 00001C5D E8 FFFFE961                     	CALL	_processRun
  3328 00001C62 56                              	PUSH	ESI
  3329 00001C63 E8 FFFFF495                     	CALL	_sheetAlloc
  3330 00001C68 0F BF 15 00000FF6               	MOVSX	EDX,WORD [4086]
  3331 00001C6F 89 85 FFFFFBD0                  	MOV	DWORD [-1072+EBP],EAX
  3332 00001C75 0F BF 05 00000FF4               	MOVSX	EAX,WORD [4084]
  3333 00001C7C 0F AF C2                        	IMUL	EAX,EDX
  3334 00001C7F 50                              	PUSH	EAX
  3335 00001C80 68 003C0000                     	PUSH	3932160
  3336 00001C85 E8 FFFFF3BE                     	CALL	_memsegAlloc4K
  3337 00001C8A 6A FF                           	PUSH	-1
  3338 00001C8C 89 C3                           	MOV	EBX,EAX
  3339 00001C8E 0F BF 05 00000FF6               	MOVSX	EAX,WORD [4086]
  3340 00001C95 50                              	PUSH	EAX
  3341 00001C96 0F BF 05 00000FF4               	MOVSX	EAX,WORD [4084]
  3342 00001C9D 50                              	PUSH	EAX
  3343 00001C9E 53                              	PUSH	EBX
  3344 00001C9F FF B5 FFFFFBD0                  	PUSH	DWORD [-1072+EBP]
  3345 00001CA5 E8 FFFFF486                     	CALL	_sheetSetbuf
  3346 00001CAA 83 C4 30                        	ADD	ESP,48
  3347 00001CAD 0F BF 05 00000FF6               	MOVSX	EAX,WORD [4086]
  3348 00001CB4 50                              	PUSH	EAX
  3349 00001CB5 0F BF 05 00000FF4               	MOVSX	EAX,WORD [4084]
  3350 00001CBC 50                              	PUSH	EAX
  3351 00001CBD 53                              	PUSH	EBX
  3352 00001CBE 8D 9D FFFFFC34                  	LEA	EBX,DWORD [-972+EBP]
  3353 00001CC4 E8 FFFFEDDD                     	CALL	_init_GUI
  3354 00001CC9 56                              	PUSH	ESI
  3355 00001CCA E8 FFFFF42E                     	CALL	_sheetAlloc
  3356 00001CCF 68 0000A500                     	PUSH	42240
  3357 00001CD4 68 003C0000                     	PUSH	3932160
  3358 00001CD9 89 85 FFFFFBC8                  	MOV	DWORD [-1080+EBP],EAX
  3359 00001CDF E8 FFFFF364                     	CALL	_memsegAlloc4K
  3360 00001CE4 6A FF                           	PUSH	-1
  3361 00001CE6 68 000000A5                     	PUSH	165
  3362 00001CEB 89 85 FFFFFBC0                  	MOV	DWORD [-1088+EBP],EAX
  3363 00001CF1 68 00000100                     	PUSH	256
  3364 00001CF6 50                              	PUSH	EAX
  3365 00001CF7 FF B5 FFFFFBC8                  	PUSH	DWORD [-1080+EBP]
  3366 00001CFD E8 FFFFF42E                     	CALL	_sheetSetbuf
  3367 00001D02 83 C4 2C                        	ADD	ESP,44
  3368 00001D05 6A 00                           	PUSH	0
  3369 00001D07 68 [00000314]                   	PUSH	LC2
  3370 00001D0C 68 000000A5                     	PUSH	165
  3371 00001D11 68 00000100                     	PUSH	256
  3372 00001D16 FF B5 FFFFFBC0                  	PUSH	DWORD [-1088+EBP]
  3373 00001D1C E8 FFFFFCC4                     	CALL	_makeWindow
  3374 00001D21 6A 00                           	PUSH	0
  3375 00001D23 68 00000080                     	PUSH	128
  3376 00001D28 68 000000F0                     	PUSH	240
  3377 00001D2D 6A 1C                           	PUSH	28
  3378 00001D2F 6A 08                           	PUSH	8
  3379 00001D31 FF B5 FFFFFBC8                  	PUSH	DWORD [-1080+EBP]
  3380 00001D37 E8 FFFFFAC2                     	CALL	_makeTextBox
  3381 00001D3C 83 C4 2C                        	ADD	ESP,44
  3382 00001D3F E8 FFFFE7D2                     	CALL	_processAlloc
  3383 00001D44 68 00010000                     	PUSH	65536
  3384 00001D49 68 003C0000                     	PUSH	3932160
  3385 00001D4E 89 85 FFFFFBB4                  	MOV	DWORD [-1100+EBP],EAX
  3386 00001D54 E8 FFFFF2EF                     	CALL	_memsegAlloc4K
  3387 00001D59 8B 95 FFFFFBB4                  	MOV	EDX,DWORD [-1100+EBP]
  3388 00001D5F 05 0000FFF8                     	ADD	EAX,65528
  3389 00001D64 89 42 64                        	MOV	DWORD [100+EDX],EAX
  3390 00001D67 8B 95 FFFFFBC8                  	MOV	EDX,DWORD [-1080+EBP]
  3391 00001D6D 89 50 04                        	MOV	DWORD [4+EAX],EDX
  3392 00001D70 8B 85 FFFFFBB4                  	MOV	EAX,DWORD [-1100+EBP]
  3393 00001D76 C7 40 4C [00001648]             	MOV	DWORD [76+EAX],_consoleMain
  3394 00001D7D C7 40 74 00000008               	MOV	DWORD [116+EAX],8
  3395 00001D84 C7 40 78 00000010               	MOV	DWORD [120+EAX],16
  3396 00001D8B C7 40 7C 00000008               	MOV	DWORD [124+EAX],8
  3397 00001D92 C7 80 00000080 00000008         	MOV	DWORD [128+EAX],8
  3398 00001D9C C7 80 00000084 00000008         	MOV	DWORD [132+EAX],8
  3399 00001DA6 C7 80 00000088 00000008         	MOV	DWORD [136+EAX],8
  3400 00001DB0 6A 02                           	PUSH	2
  3401 00001DB2 6A 02                           	PUSH	2
  3402 00001DB4 50                              	PUSH	EAX
  3403 00001DB5 E8 FFFFE809                     	CALL	_processRun
  3404 00001DBA 56                              	PUSH	ESI
  3405 00001DBB E8 FFFFF33D                     	CALL	_sheetAlloc
  3406 00001DC0 68 00002080                     	PUSH	8320
  3407 00001DC5 68 003C0000                     	PUSH	3932160
  3408 00001DCA 89 C7                           	MOV	EDI,EAX
  3409 00001DCC E8 FFFFF277                     	CALL	_memsegAlloc4K
  3410 00001DD1 83 C4 20                        	ADD	ESP,32
  3411 00001DD4 6A FF                           	PUSH	-1
  3412 00001DD6 89 85 FFFFFBC4                  	MOV	DWORD [-1084+EBP],EAX
  3413 00001DDC 6A 34                           	PUSH	52
  3414 00001DDE 68 00000090                     	PUSH	144
  3415 00001DE3 50                              	PUSH	EAX
  3416 00001DE4 57                              	PUSH	EDI
  3417 00001DE5 E8 FFFFF346                     	CALL	_sheetSetbuf
  3418 00001DEA 6A 01                           	PUSH	1
  3419 00001DEC 68 [0000031C]                   	PUSH	LC3
  3420 00001DF1 6A 34                           	PUSH	52
  3421 00001DF3 68 00000090                     	PUSH	144
  3422 00001DF8 FF B5 FFFFFBC4                  	PUSH	DWORD [-1084+EBP]
  3423 00001DFE E8 FFFFFBE2                     	CALL	_makeWindow
  3424 00001E03 83 C4 28                        	ADD	ESP,40
  3425 00001E06 6A 07                           	PUSH	7
  3426 00001E08 6A 10                           	PUSH	16
  3427 00001E0A 68 00000080                     	PUSH	128
  3428 00001E0F 6A 1C                           	PUSH	28
  3429 00001E11 6A 08                           	PUSH	8
  3430 00001E13 57                              	PUSH	EDI
  3431 00001E14 E8 FFFFF9E5                     	CALL	_makeTextBox
  3432 00001E19 56                              	PUSH	ESI
  3433 00001E1A C7 85 FFFFFBE8 00000008         	MOV	DWORD [-1048+EBP],8
  3434 00001E24 C7 85 FFFFFBE4 00000007         	MOV	DWORD [-1052+EBP],7
  3435 00001E2E E8 FFFFF2CA                     	CALL	_sheetAlloc
  3436 00001E33 6A 0E                           	PUSH	14
  3437 00001E35 6A 10                           	PUSH	16
  3438 00001E37 6A 10                           	PUSH	16
  3439 00001E39 89 85 FFFFFBCC                  	MOV	DWORD [-1076+EBP],EAX
  3440 00001E3F 53                              	PUSH	EBX
  3441 00001E40 50                              	PUSH	EAX
  3442 00001E41 E8 FFFFF2EA                     	CALL	_sheetSetbuf
  3443 00001E46 83 C4 30                        	ADD	ESP,48
  3444 00001E49 6A 0E                           	PUSH	14
  3445 00001E4B 53                              	PUSH	EBX
  3446 00001E4C BB 00000002                     	MOV	EBX,2
  3447 00001E51 E8 FFFFEF37                     	CALL	_initMouseCursor8
  3448 00001E56 0F BF 05 00000FF4               	MOVSX	EAX,WORD [4084]
  3449 00001E5D 8D 48 F0                        	LEA	ECX,DWORD [-16+EAX]
  3450 00001E60 89 C8                           	MOV	EAX,ECX
  3451 00001E62 99                              	CDQ
  3452 00001E63 F7 FB                           	IDIV	EBX
  3453 00001E65 89 85 FFFFFBF0                  	MOV	DWORD [-1040+EBP],EAX
  3454 00001E6B 0F BF 05 00000FF6               	MOVSX	EAX,WORD [4086]
  3455 00001E72 6A 00                           	PUSH	0
  3456 00001E74 8D 48 D4                        	LEA	ECX,DWORD [-44+EAX]
  3457 00001E77 6A 00                           	PUSH	0
  3458 00001E79 89 C8                           	MOV	EAX,ECX
  3459 00001E7B 99                              	CDQ
  3460 00001E7C F7 FB                           	IDIV	EBX
  3461 00001E7E FF B5 FFFFFBD0                  	PUSH	DWORD [-1072+EBP]
  3462 00001E84 89 85 FFFFFBEC                  	MOV	DWORD [-1044+EBP],EAX
  3463 00001E8A 8D 5D C4                        	LEA	EBX,DWORD [-60+EBP]
  3464 00001E8D E8 FFFFF6F6                     	CALL	_sheetSlide
  3465 00001E92 6A 40                           	PUSH	64
  3466 00001E94 68 000000A8                     	PUSH	168
  3467 00001E99 FF B5 FFFFFBC8                  	PUSH	DWORD [-1080+EBP]
  3468 00001E9F E8 FFFFF6E4                     	CALL	_sheetSlide
  3469 00001EA4 83 C4 20                        	ADD	ESP,32
  3470 00001EA7 6A 40                           	PUSH	64
  3471 00001EA9 6A 08                           	PUSH	8
  3472 00001EAB 57                              	PUSH	EDI
  3473 00001EAC E8 FFFFF6D7                     	CALL	_sheetSlide
  3474 00001EB1 FF B5 FFFFFBEC                  	PUSH	DWORD [-1044+EBP]
  3475 00001EB7 FF B5 FFFFFBF0                  	PUSH	DWORD [-1040+EBP]
  3476 00001EBD FF B5 FFFFFBCC                  	PUSH	DWORD [-1076+EBP]
  3477 00001EC3 E8 FFFFF6C0                     	CALL	_sheetSlide
  3478 00001EC8 6A 00                           	PUSH	0
  3479 00001ECA FF B5 FFFFFBD0                  	PUSH	DWORD [-1072+EBP]
  3480 00001ED0 E8 FFFFF3D7                     	CALL	_sheetUpdown
  3481 00001ED5 83 C4 20                        	ADD	ESP,32
  3482 00001ED8 6A 01                           	PUSH	1
  3483 00001EDA FF B5 FFFFFBC8                  	PUSH	DWORD [-1080+EBP]
  3484 00001EE0 E8 FFFFF3C7                     	CALL	_sheetUpdown
  3485 00001EE5 6A 02                           	PUSH	2
  3486 00001EE7 57                              	PUSH	EDI
  3487 00001EE8 E8 FFFFF3BF                     	CALL	_sheetUpdown
  3488 00001EED 6A 03                           	PUSH	3
  3489 00001EEF FF B5 FFFFFBCC                  	PUSH	DWORD [-1076+EBP]
  3490 00001EF5 E8 FFFFF3B2                     	CALL	_sheetUpdown
  3491 00001EFA 6A 11                           	PUSH	17
  3492 00001EFC 68 [00000325]                   	PUSH	LC4
  3493 00001F01 6A 0E                           	PUSH	14
  3494 00001F03 6A 07                           	PUSH	7
  3495 00001F05 6A 20                           	PUSH	32
  3496 00001F07 6A 00                           	PUSH	0
  3497 00001F09 FF B5 FFFFFBD0                  	PUSH	DWORD [-1072+EBP]
  3498 00001F0F E8 FFFFEDF2                     	CALL	_putFont8AscSheet
  3499 00001F14 83 C4 34                        	ADD	ESP,52
  3500 00001F17 FF B5 FFFFFBEC                  	PUSH	DWORD [-1044+EBP]
  3501 00001F1D FF B5 FFFFFBF0                  	PUSH	DWORD [-1040+EBP]
  3502 00001F23 68 [00000337]                   	PUSH	LC5
  3503 00001F28 53                              	PUSH	EBX
  3504 00001F29 E8 [00000000]                   	CALL	_sprintf
  3505 00001F2E 6A 0A                           	PUSH	10
  3506 00001F30 53                              	PUSH	EBX
  3507 00001F31 6A 0E                           	PUSH	14
  3508 00001F33 6A 07                           	PUSH	7
  3509 00001F35 6A 00                           	PUSH	0
  3510 00001F37 6A 00                           	PUSH	0
  3511 00001F39 FF B5 FFFFFBD0                  	PUSH	DWORD [-1072+EBP]
  3512 00001F3F E8 FFFFEDC2                     	CALL	_putFont8AscSheet
  3513 00001F44 83 C4 2C                        	ADD	ESP,44
  3514 00001F47 68 003C0000                     	PUSH	3932160
  3515 00001F4C E8 FFFFEF6E                     	CALL	_memsegTotal
  3516 00001F51 C1 E8 0A                        	SHR	EAX,10
  3517 00001F54 89 04 24                        	MOV	DWORD [ESP],EAX
  3518 00001F57 68 BFFFFFFF                     	PUSH	-1073741825
  3519 00001F5C 68 00400000                     	PUSH	4194304
  3520 00001F61 E8 FFFFEEDA                     	CALL	_memtest
  3521 00001F66 59                              	POP	ECX
  3522 00001F67 C1 E8 14                        	SHR	EAX,20
  3523 00001F6A 5E                              	POP	ESI
  3524 00001F6B 50                              	PUSH	EAX
  3525 00001F6C 68 [00000342]                   	PUSH	LC6
  3526 00001F71 53                              	PUSH	EBX
  3527 00001F72 E8 [00000000]                   	CALL	_sprintf
  3528 00001F77 6A 1A                           	PUSH	26
  3529 00001F79 53                              	PUSH	EBX
  3530 00001F7A 6A 0E                           	PUSH	14
  3531 00001F7C 6A 07                           	PUSH	7
  3532 00001F7E 6A 30                           	PUSH	48
  3533 00001F80 6A 00                           	PUSH	0
  3534 00001F82 FF B5 FFFFFBD0                  	PUSH	DWORD [-1072+EBP]
  3535 00001F88 E8 FFFFED79                     	CALL	_putFont8AscSheet
  3536 00001F8D 8D 95 FFFFFBF4                  	LEA	EDX,DWORD [-1036+EBP]
  3537 00001F93 83 C4 2C                        	ADD	ESP,44
  3538 00001F96 68 000000ED                     	PUSH	237
  3539 00001F9B 52                              	PUSH	EDX
  3540 00001F9C E8 FFFFE090                     	CALL	_QueuePush
  3541 00001FA1 8D 85 FFFFFBF4                  	LEA	EAX,DWORD [-1036+EBP]
  3542 00001FA7 FF B5 FFFFFBD8                  	PUSH	DWORD [-1064+EBP]
  3543 00001FAD 50                              	PUSH	EAX
  3544 00001FAE E8 FFFFE07E                     	CALL	_QueuePush
  3545 00001FB3 83 C4 10                        	ADD	ESP,16
  3546 00001FB6                                 L498:
  3547 00001FB6 8D 9D FFFFFBF4                  	LEA	EBX,DWORD [-1036+EBP]
  3548 00001FBC 53                              	PUSH	EBX
  3549 00001FBD E8 FFFFE0F1                     	CALL	_QueueSize
  3550 00001FC2 5A                              	POP	EDX
  3551 00001FC3 85 C0                           	TEST	EAX,EAX
  3552 00001FC5 7E 0D                           	JLE	L501
  3553 00001FC7 83 BD FFFFFBD4 00               	CMP	DWORD [-1068+EBP],0
  3554 00001FCE 0F 88 000005DD                  	JS	L551
  3555 00001FD4                                 L501:
  3556 00001FD4 8D 9D FFFFFC14                  	LEA	EBX,DWORD [-1004+EBP]
  3557 00001FDA E8 [00000000]                   	CALL	_io_cli
  3558 00001FDF 53                              	PUSH	EBX
  3559 00001FE0 E8 FFFFE0CE                     	CALL	_QueueSize
  3560 00001FE5 5E                              	POP	ESI
  3561 00001FE6 85 C0                           	TEST	EAX,EAX
  3562 00001FE8 0F 84 000005AD                  	JE	L552
  3563 00001FEE 53                              	PUSH	EBX
  3564 00001FEF E8 FFFFE08D                     	CALL	_QueuePop
  3565 00001FF4 89 C6                           	MOV	ESI,EAX
  3566 00001FF6 E8 [00000000]                   	CALL	_io_sti
  3567 00001FFB 59                              	POP	ECX
  3568 00001FFC 8D 86 FFFFFF00                  	LEA	EAX,DWORD [-256+ESI]
  3569 00002002 3D 000000FF                     	CMP	EAX,255
  3570 00002007 0F 86 000001FD                  	JBE	L553
  3571 0000200D 8D 86 FFFFFE00                  	LEA	EAX,DWORD [-512+ESI]
  3572 00002013 3D 000000FF                     	CMP	EAX,255
  3573 00002018 0F 86 00000093                  	JBE	L554
  3574 0000201E 83 FE 01                        	CMP	ESI,1
  3575 00002021 7F 93                           	JG	L498
  3576 00002023 4E                              	DEC	ESI
  3577 00002024 74 71                           	JE	L555
  3578 00002026 6A 01                           	PUSH	1
  3579 00002028 53                              	PUSH	EBX
  3580 00002029 FF B5 FFFFFBBC                  	PUSH	DWORD [-1092+EBP]
  3581 0000202F E8 FFFFE25E                     	CALL	_timerInit
  3582 00002034 C7 85 FFFFFBE4 00000007         	MOV	DWORD [-1052+EBP],7
  3583 0000203E                                 L550:
  3584 0000203E 83 C4 0C                        	ADD	ESP,12
  3585 00002041 8B 85 FFFFFBE8                  	MOV	EAX,DWORD [-1048+EBP]
  3586 00002047 83 C0 07                        	ADD	EAX,7
  3587 0000204A 6A 2B                           	PUSH	43
  3588 0000204C 50                              	PUSH	EAX
  3589 0000204D 6A 1C                           	PUSH	28
  3590 0000204F FF B5 FFFFFBE8                  	PUSH	DWORD [-1048+EBP]
  3591 00002055 FF B5 FFFFFBE4                  	PUSH	DWORD [-1052+EBP]
  3592 0000205B FF 77 04                        	PUSH	DWORD [4+EDI]
  3593 0000205E FF 37                           	PUSH	DWORD [EDI]
  3594 00002060 E8 FFFFE9F0                     	CALL	_boxFill8
  3595 00002065 6A 32                           	PUSH	50
  3596 00002067 FF B5 FFFFFBBC                  	PUSH	DWORD [-1092+EBP]
  3597 0000206D E8 FFFFE234                     	CALL	_timerSetTime
  3598 00002072 8B 85 FFFFFBE8                  	MOV	EAX,DWORD [-1048+EBP]
  3599 00002078 83 C4 24                        	ADD	ESP,36
  3600 0000207B 83 C0 08                        	ADD	EAX,8
  3601 0000207E 6A 2C                           	PUSH	44
  3602 00002080 50                              	PUSH	EAX
  3603 00002081 6A 1C                           	PUSH	28
  3604 00002083 FF B5 FFFFFBE8                  	PUSH	DWORD [-1048+EBP]
  3605 00002089 57                              	PUSH	EDI
  3606 0000208A E8 FFFFF359                     	CALL	_sheetRefresh
  3607 0000208F 83 C4 14                        	ADD	ESP,20
  3608 00002092 E9 FFFFFF1F                     	JMP	L498
  3609 00002097                                 L555:
  3610 00002097 6A 00                           	PUSH	0
  3611 00002099 53                              	PUSH	EBX
  3612 0000209A FF B5 FFFFFBBC                  	PUSH	DWORD [-1092+EBP]
  3613 000020A0 E8 FFFFE1ED                     	CALL	_timerInit
  3614 000020A5 C7 85 FFFFFBE4 00000000         	MOV	DWORD [-1052+EBP],0
  3615 000020AF EB 8D                           	JMP	L550
  3616 000020B1                                 L554:
  3617 000020B1 89 F2                           	MOV	EDX,ESI
  3618 000020B3 0F B6 C2                        	MOVZX	EAX,DL
  3619 000020B6 50                              	PUSH	EAX
  3620 000020B7 8D 85 FFFFFD34                  	LEA	EAX,DWORD [-716+EBP]
  3621 000020BD 50                              	PUSH	EAX
  3622 000020BE E8 FFFFE08A                     	CALL	_mouseDecode
  3623 000020C3 5B                              	POP	EBX
  3624 000020C4 5E                              	POP	ESI
  3625 000020C5 85 C0                           	TEST	EAX,EAX
  3626 000020C7 0F 84 FFFFFEE9                  	JE	L498
  3627 000020CD FF B5 FFFFFD3C                  	PUSH	DWORD [-708+EBP]
  3628 000020D3 FF B5 FFFFFD38                  	PUSH	DWORD [-712+EBP]
  3629 000020D9 68 [0000035A]                   	PUSH	LC8
  3630 000020DE 8D 5D C4                        	LEA	EBX,DWORD [-60+EBP]
  3631 000020E1 53                              	PUSH	EBX
  3632 000020E2 E8 [00000000]                   	CALL	_sprintf
  3633 000020E7 83 C4 10                        	ADD	ESP,16
  3634 000020EA F7 85 FFFFFD40 00000001         	TEST	DWORD [-704+EBP],1
  3635 000020F4 74 21                           	JE	L536
  3636 000020F6 8B 85 FFFFFBEC                  	MOV	EAX,DWORD [-1044+EBP]
  3637 000020FC 83 E8 08                        	SUB	EAX,8
  3638 000020FF 50                              	PUSH	EAX
  3639 00002100 8B 85 FFFFFBF0                  	MOV	EAX,DWORD [-1040+EBP]
  3640 00002106 83 E8 50                        	SUB	EAX,80
  3641 00002109 50                              	PUSH	EAX
  3642 0000210A 57                              	PUSH	EDI
  3643 0000210B C6 45 C5 4C                     	MOV	BYTE [-59+EBP],76
  3644 0000210F E8 FFFFF474                     	CALL	_sheetSlide
  3645 00002114 83 C4 0C                        	ADD	ESP,12
  3646 00002117                                 L536:
  3647 00002117 8B 85 FFFFFD40                  	MOV	EAX,DWORD [-704+EBP]
  3648 0000211D A9 00000002                     	TEST	EAX,2
  3649 00002122 74 04                           	JE	L537
  3650 00002124 C6 45 C7 52                     	MOV	BYTE [-57+EBP],82
  3651 00002128                                 L537:
  3652 00002128 83 E0 04                        	AND	EAX,4
  3653 0000212B 74 04                           	JE	L538
  3654 0000212D C6 45 C6 43                     	MOV	BYTE [-58+EBP],67
  3655 00002131                                 L538:
  3656 00002131 6A 0F                           	PUSH	15
  3657 00002133 53                              	PUSH	EBX
  3658 00002134 6A 0E                           	PUSH	14
  3659 00002136 6A 07                           	PUSH	7
  3660 00002138 6A 10                           	PUSH	16
  3661 0000213A 6A 20                           	PUSH	32
  3662 0000213C FF B5 FFFFFBD0                  	PUSH	DWORD [-1072+EBP]
  3663 00002142 E8 FFFFEBBF                     	CALL	_putFont8AscSheet
  3664 00002147 8B 95 FFFFFD38                  	MOV	EDX,DWORD [-712+EBP]
  3665 0000214D 8B 85 FFFFFD3C                  	MOV	EAX,DWORD [-708+EBP]
  3666 00002153 83 C4 1C                        	ADD	ESP,28
  3667 00002156 01 85 FFFFFBEC                  	ADD	DWORD [-1044+EBP],EAX
  3668 0000215C 01 95 FFFFFBF0                  	ADD	DWORD [-1040+EBP],EDX
  3669 00002162 0F 88 00000093                  	JS	L556
  3670 00002168                                 L539:
  3671 00002168 83 BD FFFFFBEC 00               	CMP	DWORD [-1044+EBP],0
  3672 0000216F 78 7B                           	JS	L557
  3673 00002171                                 L540:
  3674 00002171 0F BF 05 00000FF4               	MOVSX	EAX,WORD [4084]
  3675 00002178 48                              	DEC	EAX
  3676 00002179 39 85 FFFFFBF0                  	CMP	DWORD [-1040+EBP],EAX
  3677 0000217F 7E 06                           	JLE	L541
  3678 00002181 89 85 FFFFFBF0                  	MOV	DWORD [-1040+EBP],EAX
  3679 00002187                                 L541:
  3680 00002187 0F BF 05 00000FF6               	MOVSX	EAX,WORD [4086]
  3681 0000218E 48                              	DEC	EAX
  3682 0000218F 39 85 FFFFFBEC                  	CMP	DWORD [-1044+EBP],EAX
  3683 00002195 7E 06                           	JLE	L542
  3684 00002197 89 85 FFFFFBEC                  	MOV	DWORD [-1044+EBP],EAX
  3685 0000219D                                 L542:
  3686 0000219D FF B5 FFFFFBEC                  	PUSH	DWORD [-1044+EBP]
  3687 000021A3 FF B5 FFFFFBF0                  	PUSH	DWORD [-1040+EBP]
  3688 000021A9 68 [00000337]                   	PUSH	LC5
  3689 000021AE 53                              	PUSH	EBX
  3690 000021AF E8 [00000000]                   	CALL	_sprintf
  3691 000021B4 6A 0A                           	PUSH	10
  3692 000021B6 53                              	PUSH	EBX
  3693 000021B7 6A 0E                           	PUSH	14
  3694 000021B9 6A 07                           	PUSH	7
  3695 000021BB 6A 00                           	PUSH	0
  3696 000021BD 6A 00                           	PUSH	0
  3697 000021BF FF B5 FFFFFBD0                  	PUSH	DWORD [-1072+EBP]
  3698 000021C5 E8 FFFFEB3C                     	CALL	_putFont8AscSheet
  3699 000021CA 83 C4 2C                        	ADD	ESP,44
  3700 000021CD FF B5 FFFFFBEC                  	PUSH	DWORD [-1044+EBP]
  3701 000021D3 FF B5 FFFFFBF0                  	PUSH	DWORD [-1040+EBP]
  3702 000021D9 FF B5 FFFFFBCC                  	PUSH	DWORD [-1076+EBP]
  3703 000021DF E8 FFFFF3A4                     	CALL	_sheetSlide
  3704 000021E4 83 C4 0C                        	ADD	ESP,12
  3705 000021E7 E9 FFFFFDCA                     	JMP	L498
  3706 000021EC                                 L557:
  3707 000021EC C7 85 FFFFFBEC 00000000         	MOV	DWORD [-1044+EBP],0
  3708 000021F6 E9 FFFFFF76                     	JMP	L540
  3709 000021FB                                 L556:
  3710 000021FB C7 85 FFFFFBF0 00000000         	MOV	DWORD [-1040+EBP],0
  3711 00002205 E9 FFFFFF5E                     	JMP	L539
  3712 0000220A                                 L553:
  3713 0000220A 50                              	PUSH	EAX
  3714 0000220B 8D 5D C4                        	LEA	EBX,DWORD [-60+EBP]
  3715 0000220E 68 [00000368]                   	PUSH	LC7
  3716 00002213 53                              	PUSH	EBX
  3717 00002214 E8 [00000000]                   	CALL	_sprintf
  3718 00002219 6A 02                           	PUSH	2
  3719 0000221B 53                              	PUSH	EBX
  3720 0000221C 6A 0E                           	PUSH	14
  3721 0000221E 6A 07                           	PUSH	7
  3722 00002220 6A 10                           	PUSH	16
  3723 00002222 6A 00                           	PUSH	0
  3724 00002224 FF B5 FFFFFBD0                  	PUSH	DWORD [-1072+EBP]
  3725 0000222A E8 FFFFEAD7                     	CALL	_putFont8AscSheet
  3726 0000222F 83 C4 28                        	ADD	ESP,40
  3727 00002232 81 FE 0000017F                  	CMP	ESI,383
  3728 00002238 0F 8F 00000354                  	JG	L505
  3729 0000223E 83 BD FFFFFBE0 00               	CMP	DWORD [-1056+EBP],0
  3730 00002245 0F 85 0000033C                  	JNE	L506
  3731 0000224B 8A 86 [FFFFFF00]                	MOV	AL,BYTE [_keyboardTable0-256+ESI]
  3732 00002251                                 L548:
  3733 00002251 88 45 C4                        	MOV	BYTE [-60+EBP],AL
  3734 00002254                                 L508:
  3735 00002254 8A 55 C4                        	MOV	DL,BYTE [-60+EBP]
  3736 00002257 8D 42 BF                        	LEA	EAX,DWORD [-65+EDX]
  3737 0000225A 3C 19                           	CMP	AL,25
  3738 0000225C 77 1D                           	JA	L509
  3739 0000225E F7 85 FFFFFBD8 00000004         	TEST	DWORD [-1064+EBP],4
  3740 00002268 0F 85 0000030A                  	JNE	L547
  3741 0000226E 83 BD FFFFFBE0 00               	CMP	DWORD [-1056+EBP],0
  3742 00002275 0F 84 000002F2                  	JE	L511
  3743 0000227B                                 L509:
  3744 0000227B 8A 45 C4                        	MOV	AL,BYTE [-60+EBP]
  3745 0000227E 84 C0                           	TEST	AL,AL
  3746 00002280 74 3C                           	JE	L513
  3747 00002282 83 BD FFFFFBDC 00               	CMP	DWORD [-1060+EBP],0
  3748 00002289 0F 85 000002BF                  	JNE	L514
  3749 0000228F 83 BD FFFFFBE8 7F               	CMP	DWORD [-1048+EBP],127
  3750 00002296 7F 26                           	JG	L513
  3751 00002298 6A 01                           	PUSH	1
  3752 0000229A 8D 45 C4                        	LEA	EAX,DWORD [-60+EBP]
  3753 0000229D 50                              	PUSH	EAX
  3754 0000229E 6A 07                           	PUSH	7
  3755 000022A0 6A 00                           	PUSH	0
  3756 000022A2 6A 1C                           	PUSH	28
  3757 000022A4 FF B5 FFFFFBE8                  	PUSH	DWORD [-1048+EBP]
  3758 000022AA 57                              	PUSH	EDI
  3759 000022AB C6 45 C5 00                     	MOV	BYTE [-59+EBP],0
  3760 000022AF E8 FFFFEA52                     	CALL	_putFont8AscSheet
  3761 000022B4 83 C4 1C                        	ADD	ESP,28
  3762 000022B7 83 85 FFFFFBE8 08               	ADD	DWORD [-1048+EBP],8
  3763 000022BE                                 L513:
  3764 000022BE 81 FE 0000010E                  	CMP	ESI,270
  3765 000022C4 0F 84 0000022B                  	JE	L558
  3766 000022CA                                 L517:
  3767 000022CA 81 FE 0000010F                  	CMP	ESI,271
  3768 000022D0 0F 84 0000017C                  	JE	L559
  3769 000022D6                                 L521:
  3770 000022D6 81 FE 0000012A                  	CMP	ESI,298
  3771 000022DC 0F 84 00000164                  	JE	L560
  3772 000022E2                                 L524:
  3773 000022E2 81 FE 00000136                  	CMP	ESI,310
  3774 000022E8 0F 84 0000014C                  	JE	L561
  3775 000022EE                                 L525:
  3776 000022EE 81 FE 000001AA                  	CMP	ESI,426
  3777 000022F4 0F 84 00000134                  	JE	L562
  3778 000022FA                                 L526:
  3779 000022FA 81 FE 000001B6                  	CMP	ESI,438
  3780 00002300 0F 84 0000011C                  	JE	L563
  3781 00002306                                 L527:
  3782 00002306 81 FE 0000013A                  	CMP	ESI,314
  3783 0000230C 0F 84 000000E4                  	JE	L564
  3784 00002312                                 L528:
  3785 00002312 81 FE 00000145                  	CMP	ESI,325
  3786 00002318 0F 84 000000AC                  	JE	L565
  3787 0000231E                                 L529:
  3788 0000231E 81 FE 00000146                  	CMP	ESI,326
  3789 00002324 74 78                           	JE	L566
  3790 00002326                                 L530:
  3791 00002326 81 FE 000001FA                  	CMP	ESI,506
  3792 0000232C 74 64                           	JE	L567
  3793 0000232E                                 L531:
  3794 0000232E 81 FE 000001FE                  	CMP	ESI,510
  3795 00002334 74 46                           	JE	L568
  3796 00002336                                 L532:
  3797 00002336 8B 85 FFFFFBE8                  	MOV	EAX,DWORD [-1048+EBP]
  3798 0000233C 6A 2B                           	PUSH	43
  3799 0000233E 83 C0 07                        	ADD	EAX,7
  3800 00002341 50                              	PUSH	EAX
  3801 00002342 6A 1C                           	PUSH	28
  3802 00002344 FF B5 FFFFFBE8                  	PUSH	DWORD [-1048+EBP]
  3803 0000234A FF B5 FFFFFBE4                  	PUSH	DWORD [-1052+EBP]
  3804 00002350 FF 77 04                        	PUSH	DWORD [4+EDI]
  3805 00002353 FF 37                           	PUSH	DWORD [EDI]
  3806 00002355 E8 FFFFE6FB                     	CALL	_boxFill8
  3807 0000235A 8B 85 FFFFFBE8                  	MOV	EAX,DWORD [-1048+EBP]
  3808 00002360 6A 2C                           	PUSH	44
  3809 00002362 83 C0 08                        	ADD	EAX,8
  3810 00002365 50                              	PUSH	EAX
  3811 00002366 6A 1C                           	PUSH	28
  3812 00002368 FF B5 FFFFFBE8                  	PUSH	DWORD [-1048+EBP]
  3813 0000236E 57                              	PUSH	EDI
  3814 0000236F E8 FFFFF074                     	CALL	_sheetRefresh
  3815 00002374 83 C4 30                        	ADD	ESP,48
  3816 00002377 E9 FFFFFC3A                     	JMP	L498
  3817 0000237C                                 L568:
  3818 0000237C E8 FFFFDD40                     	CALL	_waitKeyboardControllerReady
  3819 00002381 FF B5 FFFFFBD4                  	PUSH	DWORD [-1068+EBP]
  3820 00002387 6A 60                           	PUSH	96
  3821 00002389 E8 [00000000]                   	CALL	_io_out8
  3822 0000238E 58                              	POP	EAX
  3823 0000238F 5A                              	POP	EDX
  3824 00002390 EB A4                           	JMP	L532
  3825 00002392                                 L567:
  3826 00002392 C7 85 FFFFFBD4 FFFFFFFF         	MOV	DWORD [-1068+EBP],-1
  3827 0000239C EB 90                           	JMP	L531
  3828 0000239E                                 L566:
  3829 0000239E 68 000000ED                     	PUSH	237
  3830 000023A3 8D 9D FFFFFBF4                  	LEA	EBX,DWORD [-1036+EBP]
  3831 000023A9 53                              	PUSH	EBX
  3832 000023AA 83 B5 FFFFFBD8 01               	XOR	DWORD [-1064+EBP],1
  3833 000023B1 E8 FFFFDC7B                     	CALL	_QueuePush
  3834 000023B6 FF B5 FFFFFBD8                  	PUSH	DWORD [-1064+EBP]
  3835 000023BC 53                              	PUSH	EBX
  3836 000023BD E8 FFFFDC6F                     	CALL	_QueuePush
  3837 000023C2 83 C4 10                        	ADD	ESP,16
  3838 000023C5 E9 FFFFFF5C                     	JMP	L530
  3839 000023CA                                 L565:
  3840 000023CA 68 000000ED                     	PUSH	237
  3841 000023CF 8D 9D FFFFFBF4                  	LEA	EBX,DWORD [-1036+EBP]
  3842 000023D5 53                              	PUSH	EBX
  3843 000023D6 83 B5 FFFFFBD8 02               	XOR	DWORD [-1064+EBP],2
  3844 000023DD E8 FFFFDC4F                     	CALL	_QueuePush
  3845 000023E2 FF B5 FFFFFBD8                  	PUSH	DWORD [-1064+EBP]
  3846 000023E8 53                              	PUSH	EBX
  3847 000023E9 E8 FFFFDC43                     	CALL	_QueuePush
  3848 000023EE 83 C4 10                        	ADD	ESP,16
  3849 000023F1 E9 FFFFFF28                     	JMP	L529
  3850 000023F6                                 L564:
  3851 000023F6 68 000000ED                     	PUSH	237
  3852 000023FB 8D 9D FFFFFBF4                  	LEA	EBX,DWORD [-1036+EBP]
  3853 00002401 53                              	PUSH	EBX
  3854 00002402 83 B5 FFFFFBD8 04               	XOR	DWORD [-1064+EBP],4
  3855 00002409 E8 FFFFDC23                     	CALL	_QueuePush
  3856 0000240E FF B5 FFFFFBD8                  	PUSH	DWORD [-1064+EBP]
  3857 00002414 53                              	PUSH	EBX
  3858 00002415 E8 FFFFDC17                     	CALL	_QueuePush
  3859 0000241A 83 C4 10                        	ADD	ESP,16
  3860 0000241D E9 FFFFFEF0                     	JMP	L528
  3861 00002422                                 L563:
  3862 00002422 83 A5 FFFFFBE0 FD               	AND	DWORD [-1056+EBP],-3
  3863 00002429 E9 FFFFFED8                     	JMP	L527
  3864 0000242E                                 L562:
  3865 0000242E 83 A5 FFFFFBE0 FE               	AND	DWORD [-1056+EBP],-2
  3866 00002435 E9 FFFFFEC0                     	JMP	L526
  3867 0000243A                                 L561:
  3868 0000243A 83 8D FFFFFBE0 02               	OR	DWORD [-1056+EBP],2
  3869 00002441 E9 FFFFFEA8                     	JMP	L525
  3870 00002446                                 L560:
  3871 00002446 83 8D FFFFFBE0 01               	OR	DWORD [-1056+EBP],1
  3872 0000244D E9 FFFFFE90                     	JMP	L524
  3873 00002452                                 L559:
  3874 00002452 83 BD FFFFFBDC 00               	CMP	DWORD [-1060+EBP],0
  3875 00002459 75 69                           	JNE	L522
  3876 0000245B 6A 00                           	PUSH	0
  3877 0000245D 68 [0000031C]                   	PUSH	LC3
  3878 00002462 FF 77 04                        	PUSH	DWORD [4+EDI]
  3879 00002465 FF B5 FFFFFBC4                  	PUSH	DWORD [-1084+EBP]
  3880 0000246B C7 85 FFFFFBDC 00000001         	MOV	DWORD [-1060+EBP],1
  3881 00002475 E8 FFFFF4BA                     	CALL	_makeWindowTitle
  3882 0000247A 8B 95 FFFFFBC8                  	MOV	EDX,DWORD [-1080+EBP]
  3883 00002480 6A 01                           	PUSH	1
  3884 00002482 68 [00000314]                   	PUSH	LC2
  3885 00002487 FF 72 04                        	PUSH	DWORD [4+EDX]
  3886 0000248A                                 L549:
  3887 0000248A FF B5 FFFFFBC0                  	PUSH	DWORD [-1088+EBP]
  3888 00002490 E8 FFFFF49F                     	CALL	_makeWindowTitle
  3889 00002495 83 C4 20                        	ADD	ESP,32
  3890 00002498 6A 15                           	PUSH	21
  3891 0000249A FF 77 04                        	PUSH	DWORD [4+EDI]
  3892 0000249D 6A 00                           	PUSH	0
  3893 0000249F 6A 00                           	PUSH	0
  3894 000024A1 57                              	PUSH	EDI
  3895 000024A2 E8 FFFFEF41                     	CALL	_sheetRefresh
  3896 000024A7 8B 95 FFFFFBC8                  	MOV	EDX,DWORD [-1080+EBP]
  3897 000024AD 6A 15                           	PUSH	21
  3898 000024AF FF 72 04                        	PUSH	DWORD [4+EDX]
  3899 000024B2 6A 00                           	PUSH	0
  3900 000024B4 6A 00                           	PUSH	0
  3901 000024B6 52                              	PUSH	EDX
  3902 000024B7 E8 FFFFEF2C                     	CALL	_sheetRefresh
  3903 000024BC 83 C4 28                        	ADD	ESP,40
  3904 000024BF E9 FFFFFE12                     	JMP	L521
  3905 000024C4                                 L522:
  3906 000024C4 6A 01                           	PUSH	1
  3907 000024C6 68 [0000031C]                   	PUSH	LC3
  3908 000024CB FF 77 04                        	PUSH	DWORD [4+EDI]
  3909 000024CE FF B5 FFFFFBC4                  	PUSH	DWORD [-1084+EBP]
  3910 000024D4 C7 85 FFFFFBDC 00000000         	MOV	DWORD [-1060+EBP],0
  3911 000024DE E8 FFFFF451                     	CALL	_makeWindowTitle
  3912 000024E3 8B 85 FFFFFBC8                  	MOV	EAX,DWORD [-1080+EBP]
  3913 000024E9 6A 00                           	PUSH	0
  3914 000024EB 68 [00000314]                   	PUSH	LC2
  3915 000024F0 FF 70 04                        	PUSH	DWORD [4+EAX]
  3916 000024F3 EB 95                           	JMP	L549
  3917 000024F5                                 L558:
  3918 000024F5 83 BD FFFFFBDC 00               	CMP	DWORD [-1060+EBP],0
  3919 000024FC 75 35                           	JNE	L518
  3920 000024FE 83 BD FFFFFBE8 08               	CMP	DWORD [-1048+EBP],8
  3921 00002505 0F 8E FFFFFDBF                  	JLE	L517
  3922 0000250B 6A 01                           	PUSH	1
  3923 0000250D 68 [00000232]                   	PUSH	LC1
  3924 00002512 6A 07                           	PUSH	7
  3925 00002514 6A 00                           	PUSH	0
  3926 00002516 6A 1C                           	PUSH	28
  3927 00002518 FF B5 FFFFFBE8                  	PUSH	DWORD [-1048+EBP]
  3928 0000251E 57                              	PUSH	EDI
  3929 0000251F E8 FFFFE7E2                     	CALL	_putFont8AscSheet
  3930 00002524 83 C4 1C                        	ADD	ESP,28
  3931 00002527 83 AD FFFFFBE8 08               	SUB	DWORD [-1048+EBP],8
  3932 0000252E E9 FFFFFD97                     	JMP	L517
  3933 00002533                                 L518:
  3934 00002533 8B 85 FFFFFBB4                  	MOV	EAX,DWORD [-1100+EBP]
  3935 00002539 68 00000108                     	PUSH	264
  3936 0000253E 83 C0 10                        	ADD	EAX,16
  3937 00002541 50                              	PUSH	EAX
  3938 00002542 E8 FFFFDAEA                     	CALL	_QueuePush
  3939 00002547 59                              	POP	ECX
  3940 00002548 5B                              	POP	EBX
  3941 00002549 E9 FFFFFD7C                     	JMP	L517
  3942 0000254E                                 L514:
  3943 0000254E 0F BE C0                        	MOVSX	EAX,AL
  3944 00002551 05 00000100                     	ADD	EAX,256
  3945 00002556 50                              	PUSH	EAX
  3946 00002557 8B 85 FFFFFBB4                  	MOV	EAX,DWORD [-1100+EBP]
  3947 0000255D 83 C0 10                        	ADD	EAX,16
  3948 00002560 50                              	PUSH	EAX
  3949 00002561 E8 FFFFDACB                     	CALL	_QueuePush
  3950 00002566 58                              	POP	EAX
  3951 00002567 5A                              	POP	EDX
  3952 00002568 E9 FFFFFD51                     	JMP	L513
  3953 0000256D                                 L511:
  3954 0000256D 8D 42 20                        	LEA	EAX,DWORD [32+EDX]
  3955 00002570 88 45 C4                        	MOV	BYTE [-60+EBP],AL
  3956 00002573 E9 FFFFFD03                     	JMP	L509
  3957 00002578                                 L547:
  3958 00002578 83 BD FFFFFBE0 00               	CMP	DWORD [-1056+EBP],0
  3959 0000257F 0F 84 FFFFFCF6                  	JE	L509
  3960 00002585 EB E6                           	JMP	L511
  3961 00002587                                 L506:
  3962 00002587 8A 86 [FFFFFF80]                	MOV	AL,BYTE [_keyboardTable1-256+ESI]
  3963 0000258D E9 FFFFFCBF                     	JMP	L548
  3964 00002592                                 L505:
  3965 00002592 C6 45 C4 00                     	MOV	BYTE [-60+EBP],0
  3966 00002596 E9 FFFFFCB9                     	JMP	L508
  3967 0000259B                                 L552:
  3968 0000259B FF B5 FFFFFBB8                  	PUSH	DWORD [-1096+EBP]
  3969 000025A1 E8 FFFFE0ED                     	CALL	_processSleep
  3970 000025A6 E8 [00000000]                   	CALL	_io_sti
  3971 000025AB 5B                              	POP	EBX
  3972 000025AC E9 FFFFFA05                     	JMP	L498
  3973 000025B1                                 L551:
  3974 000025B1 53                              	PUSH	EBX
  3975 000025B2 E8 FFFFDACA                     	CALL	_QueuePop
  3976 000025B7 89 85 FFFFFBD4                  	MOV	DWORD [-1068+EBP],EAX
  3977 000025BD E8 FFFFDAFF                     	CALL	_waitKeyboardControllerReady
  3978 000025C2 FF B5 FFFFFBD4                  	PUSH	DWORD [-1068+EBP]
  3979 000025C8 6A 60                           	PUSH	96
  3980 000025CA E8 [00000000]                   	CALL	_io_out8
  3981 000025CF 83 C4 0C                        	ADD	ESP,12
  3982 000025D2 E9 FFFFF9FD                     	JMP	L501
  3983 000025D7                                 	GLOBAL	_keybuf
  3984                                          [SECTION .data]
  3985 0000036D 00 00 00                        	ALIGNB	4
  3986 00000370                                 _keybuf:
  3987 00000370 00 00 00 00                     	RESB	4
  3988 00000374                                 	GLOBAL	_keyData0
  3989                                          [SECTION .data]
  3990 00000374                                 	ALIGNB	4
  3991 00000374                                 _keyData0:
  3992 00000374 00 00 00 00                     	RESB	4
  3993 00000378                                 	GLOBAL	_mousebuf
  3994                                          [SECTION .data]
  3995 00000378                                 	ALIGNB	4
  3996 00000378                                 _mousebuf:
  3997 00000378 00 00 00 00                     	RESB	4
  3998 0000037C                                 	GLOBAL	_mouseData0
  3999                                          [SECTION .data]
  4000 0000037C                                 	ALIGNB	4
  4001 0000037C                                 _mouseData0:
  4002 0000037C 00 00 00 00                     	RESB	4
  4003 00000380                                 	GLOBAL	_timerctl
  4004                                          [SECTION .data]
  4005 00000380                                 	ALIGNB	16
  4006 00000380                                 _timerctl:
  4007 00000380 00 00 00 00 00 00 00 00 00 00   	RESB	10012
       0000038A 00 00 00 00 00 00 00 00 00 00 
       00000394 00 00 00 00 00 00 00 00 00 00 
       0000039E 00 00 00 00 00 00 00 00 00 00 
       000003A8 00 00 00 00 00 00 00 00 00 00 
       000003B2 00 00 00 00 00 00 00 00 00 00 
       000003BC 00 00 00 00 00 00 00 00 00 00 
       000003C6 00 00 00 00 00 00 00 00 00 00 
       000003D0 00 00 00 00 00 00 00 00 00 00 
       000003DA 00 00 00 00 00 00 00 00 00 00 
       000003E4 00 00 00 00 00 00 00 00 00 00 
       000003EE 00 00 00 00 00 00 00 00 00 00 
       000003F8 00 00 00 00 00 00 00 00 00 00 
       00000402 00 00 00 00 00 00 00 00 00 00 
       0000040C 00 00 00 00 00 00 00 00 00 00 
       00000416 00 00 00 00 00 00 00 00 00 00 
       00000420 00 00 00 00 00 00 00 00 00 00 
       0000042A 00 00 00 00 00 00 00 00 00 00 
       00000434 00 00 00 00 00 00 00 00 00 00 
       0000043E 00 00 00 00 00 00 00 00 00 00 
       00000448 00 00 00 00 00 00 00 00 00 00 
       00000452 00 00 00 00 00 00 00 00 00 00 
       0000045C 00 00 00 00 00 00 00 00 00 00 
       00000466 00 00 00 00 00 00 00 00 00 00 
       00000470 00 00 00 00 00 00 00 00 00 00 
       0000047A 00 00 00 00 00 00 00 00 00 00 
       00000484 00 00 00 00 00 00 00 00 00 00 
       0000048E 00 00 00 00 00 00 00 00 00 00 
       00000498 00 00 00 00 00 00 00 00 00 00 
       000004A2 00 00 00 00 00 00 00 00 00 00 
       000004AC 00 00 00 00 00 00 00 00 00 00 
       000004B6 00 00 00 00 00 00 00 00 00 00 
       000004C0 00 00 00 00 00 00 00 00 00 00 
       000004CA 00 00 00 00 00 00 00 00 00 00 
       000004D4 00 00 00 00 00 00 00 00 00 00 
       000004DE 00 00 00 00 00 00 00 00 00 00 
       000004E8 00 00 00 00 00 00 00 00 00 00 
       000004F2 00 00 00 00 00 00 00 00 00 00 
       000004FC 00 00 00 00 00 00 00 00 00 00 
       00000506 00 00 00 00 00 00 00 00 00 00 
       00000510 00 00 00 00 00 00 00 00 00 00 
       0000051A 00 00 00 00 00 00 00 00 00 00 
       00000524 00 00 00 00 00 00 00 00 00 00 
       0000052E 00 00 00 00 00 00 00 00 00 00 
       00000538 00 00 00 00 00 00 00 00 00 00 
       00000542 00 00 00 00 00 00 00 00 00 00 
       0000054C 00 00 00 00 00 00 00 00 00 00 
       00000556 00 00 00 00 00 00 00 00 00 00 
       00000560 00 00 00 00 00 00 00 00 00 00 
       0000056A 00 00 00 00 00 00 00 00 00 00 
       00000574 00 00 00 00 00 00 00 00 00 00 
       0000057E 00 00 00 00 00 00 00 00 00 00 
       00000588 00 00 00 00 00 00 00 00 00 00 
       00000592 00 00 00 00 00 00 00 00 00 00 
       0000059C 00 00 00 00 00 00 00 00 00 00 
       000005A6 00 00 00 00 00 00 00 00 00 00 
       000005B0 00 00 00 00 00 00 00 00 00 00 
       000005BA 00 00 00 00 00 00 00 00 00 00 
       000005C4 00 00 00 00 00 00 00 00 00 00 
       000005CE 00 00 00 00 00 00 00 00 00 00 
       000005D8 00 00 00 00 00 00 00 00 00 00 
       000005E2 00 00 00 00 00 00 00 00 00 00 
       000005EC 00 00 00 00 00 00 00 00 00 00 
       000005F6 00 00 00 00 00 00 00 00 00 00 
       00000600 00 00 00 00 00 00 00 00 00 00 
       0000060A 00 00 00 00 00 00 00 00 00 00 
       00000614 00 00 00 00 00 00 00 00 00 00 
       0000061E 00 00 00 00 00 00 00 00 00 00 
       00000628 00 00 00 00 00 00 00 00 00 00 
       00000632 00 00 00 00 00 00 00 00 00 00 
       0000063C 00 00 00 00 00 00 00 00 00 00 
       00000646 00 00 00 00 00 00 00 00 00 00 
       00000650 00 00 00 00 00 00 00 00 00 00 
       0000065A 00 00 00 00 00 00 00 00 00 00 
       00000664 00 00 00 00 00 00 00 00 00 00 
       0000066E 00 00 00 00 00 00 00 00 00 00 
       00000678 00 00 00 00 00 00 00 00 00 00 
       00000682 00 00 00 00 00 00 00 00 00 00 
       0000068C 00 00 00 00 00 00 00 00 00 00 
       00000696 00 00 00 00 00 00 00 00 00 00 
       000006A0 00 00 00 00 00 00 00 00 00 00 
       000006AA 00 00 00 00 00 00 00 00 00 00 
       000006B4 00 00 00 00 00 00 00 00 00 00 
       000006BE 00 00 00 00 00 00 00 00 00 00 
       000006C8 00 00 00 00 00 00 00 00 00 00 
       000006D2 00 00 00 00 00 00 00 00 00 00 
       000006DC 00 00 00 00 00 00 00 00 00 00 
       000006E6 00 00 00 00 00 00 00 00 00 00 
       000006F0 00 00 00 00 00 00 00 00 00 00 
       000006FA 00 00 00 00 00 00 00 00 00 00 
       00000704 00 00 00 00 00 00 00 00 00 00 
       0000070E 00 00 00 00 00 00 00 00 00 00 
       00000718 00 00 00 00 00 00 00 00 00 00 
       00000722 00 00 00 00 00 00 00 00 00 00 
       0000072C 00 00 00 00 00 00 00 00 00 00 
       00000736 00 00 00 00 00 00 00 00 00 00 
       00000740 00 00 00 00 00 00 00 00 00 00 
       0000074A 00 00 00 00 00 00 00 00 00 00 
       00000754 00 00 00 00 00 00 00 00 00 00 
       0000075E 00 00 00 00 00 00 00 00 00 00 
       00000768 00 00 00 00 00 00 00 00 00 00 
       00000772 00 00 00 00 00 00 00 00 00 00 
       0000077C 00 00 00 00 00 00 00 00 00 00 
       00000786 00 00 00 00 00 00 00 00 00 00 
       00000790 00 00 00 00 00 00 00 00 00 00 
       0000079A 00 00 00 00 00 00 00 00 00 00 
       000007A4 00 00 00 00 00 00 00 00 00 00 
       000007AE 00 00 00 00 00 00 00 00 00 00 
       000007B8 00 00 00 00 00 00 00 00 00 00 
       000007C2 00 00 00 00 00 00 00 00 00 00 
       000007CC 00 00 00 00 00 00 00 00 00 00 
       000007D6 00 00 00 00 00 00 00 00 00 00 
       000007E0 00 00 00 00 00 00 00 00 00 00 
       000007EA 00 00 00 00 00 00 00 00 00 00 
       000007F4 00 00 00 00 00 00 00 00 00 00 
       000007FE 00 00 00 00 00 00 00 00 00 00 
       00000808 00 00 00 00 00 00 00 00 00 00 
       00000812 00 00 00 00 00 00 00 00 00 00 
       0000081C 00 00 00 00 00 00 00 00 00 00 
       00000826 00 00 00 00 00 00 00 00 00 00 
       00000830 00 00 00 00 00 00 00 00 00 00 
       0000083A 00 00 00 00 00 00 00 00 00 00 
       00000844 00 00 00 00 00 00 00 00 00 00 
       0000084E 00 00 00 00 00 00 00 00 00 00 
       00000858 00 00 00 00 00 00 00 00 00 00 
       00000862 00 00 00 00 00 00 00 00 00 00 
       0000086C 00 00 00 00 00 00 00 00 00 00 
       00000876 00 00 00 00 00 00 00 00 00 00 
       00000880 00 00 00 00 00 00 00 00 00 00 
       0000088A 00 00 00 00 00 00 00 00 00 00 
       00000894 00 00 00 00 00 00 00 00 00 00 
       0000089E 00 00 00 00 00 00 00 00 00 00 
       000008A8 00 00 00 00 00 00 00 00 00 00 
       000008B2 00 00 00 00 00 00 00 00 00 00 
       000008BC 00 00 00 00 00 00 00 00 00 00 
       000008C6 00 00 00 00 00 00 00 00 00 00 
       000008D0 00 00 00 00 00 00 00 00 00 00 
       000008DA 00 00 00 00 00 00 00 00 00 00 
       000008E4 00 00 00 00 00 00 00 00 00 00 
       000008EE 00 00 00 00 00 00 00 00 00 00 
       000008F8 00 00 00 00 00 00 00 00 00 00 
       00000902 00 00 00 00 00 00 00 00 00 00 
       0000090C 00 00 00 00 00 00 00 00 00 00 
       00000916 00 00 00 00 00 00 00 00 00 00 
       00000920 00 00 00 00 00 00 00 00 00 00 
       0000092A 00 00 00 00 00 00 00 00 00 00 
       00000934 00 00 00 00 00 00 00 00 00 00 
       0000093E 00 00 00 00 00 00 00 00 00 00 
       00000948 00 00 00 00 00 00 00 00 00 00 
       00000952 00 00 00 00 00 00 00 00 00 00 
       0000095C 00 00 00 00 00 00 00 00 00 00 
       00000966 00 00 00 00 00 00 00 00 00 00 
       00000970 00 00 00 00 00 00 00 00 00 00 
       0000097A 00 00 00 00 00 00 00 00 00 00 
       00000984 00 00 00 00 00 00 00 00 00 00 
       0000098E 00 00 00 00 00 00 00 00 00 00 
       00000998 00 00 00 00 00 00 00 00 00 00 
       000009A2 00 00 00 00 00 00 00 00 00 00 
       000009AC 00 00 00 00 00 00 00 00 00 00 
       000009B6 00 00 00 00 00 00 00 00 00 00 
       000009C0 00 00 00 00 00 00 00 00 00 00 
       000009CA 00 00 00 00 00 00 00 00 00 00 
       000009D4 00 00 00 00 00 00 00 00 00 00 
       000009DE 00 00 00 00 00 00 00 00 00 00 
       000009E8 00 00 00 00 00 00 00 00 00 00 
       000009F2 00 00 00 00 00 00 00 00 00 00 
       000009FC 00 00 00 00 00 00 00 00 00 00 
       00000A06 00 00 00 00 00 00 00 00 00 00 
       00000A10 00 00 00 00 00 00 00 00 00 00 
       00000A1A 00 00 00 00 00 00 00 00 00 00 
       00000A24 00 00 00 00 00 00 00 00 00 00 
       00000A2E 00 00 00 00 00 00 00 00 00 00 
       00000A38 00 00 00 00 00 00 00 00 00 00 
       00000A42 00 00 00 00 00 00 00 00 00 00 
       00000A4C 00 00 00 00 00 00 00 00 00 00 
       00000A56 00 00 00 00 00 00 00 00 00 00 
       00000A60 00 00 00 00 00 00 00 00 00 00 
       00000A6A 00 00 00 00 00 00 00 00 00 00 
       00000A74 00 00 00 00 00 00 00 00 00 00 
       00000A7E 00 00 00 00 00 00 00 00 00 00 
       00000A88 00 00 00 00 00 00 00 00 00 00 
       00000A92 00 00 00 00 00 00 00 00 00 00 
       00000A9C 00 00 00 00 00 00 00 00 00 00 
       00000AA6 00 00 00 00 00 00 00 00 00 00 
       00000AB0 00 00 00 00 00 00 00 00 00 00 
       00000ABA 00 00 00 00 00 00 00 00 00 00 
       00000AC4 00 00 00 00 00 00 00 00 00 00 
       00000ACE 00 00 00 00 00 00 00 00 00 00 
       00000AD8 00 00 00 00 00 00 00 00 00 00 
       00000AE2 00 00 00 00 00 00 00 00 00 00 
       00000AEC 00 00 00 00 00 00 00 00 00 00 
       00000AF6 00 00 00 00 00 00 00 00 00 00 
       00000B00 00 00 00 00 00 00 00 00 00 00 
       00000B0A 00 00 00 00 00 00 00 00 00 00 
       00000B14 00 00 00 00 00 00 00 00 00 00 
       00000B1E 00 00 00 00 00 00 00 00 00 00 
       00000B28 00 00 00 00 00 00 00 00 00 00 
       00000B32 00 00 00 00 00 00 00 00 00 00 
       00000B3C 00 00 00 00 00 00 00 00 00 00 
       00000B46 00 00 00 00 00 00 00 00 00 00 
       00000B50 00 00 00 00 00 00 00 00 00 00 
       00000B5A 00 00 00 00 00 00 00 00 00 00 
       00000B64 00 00 00 00 00 00 00 00 00 00 
       00000B6E 00 00 00 00 00 00 00 00 00 00 
       00000B78 00 00 00 00 00 00 00 00 00 00 
       00000B82 00 00 00 00 00 00 00 00 00 00 
       00000B8C 00 00 00 00 00 00 00 00 00 00 
       00000B96 00 00 00 00 00 00 00 00 00 00 
       00000BA0 00 00 00 00 00 00 00 00 00 00 
       00000BAA 00 00 00 00 00 00 00 00 00 00 
       00000BB4 00 00 00 00 00 00 00 00 00 00 
       00000BBE 00 00 00 00 00 00 00 00 00 00 
       00000BC8 00 00 00 00 00 00 00 00 00 00 
       00000BD2 00 00 00 00 00 00 00 00 00 00 
       00000BDC 00 00 00 00 00 00 00 00 00 00 
       00000BE6 00 00 00 00 00 00 00 00 00 00 
       00000BF0 00 00 00 00 00 00 00 00 00 00 
       00000BFA 00 00 00 00 00 00 00 00 00 00 
       00000C04 00 00 00 00 00 00 00 00 00 00 
       00000C0E 00 00 00 00 00 00 00 00 00 00 
       00000C18 00 00 00 00 00 00 00 00 00 00 
       00000C22 00 00 00 00 00 00 00 00 00 00 
       00000C2C 00 00 00 00 00 00 00 00 00 00 
       00000C36 00 00 00 00 00 00 00 00 00 00 
       00000C40 00 00 00 00 00 00 00 00 00 00 
       00000C4A 00 00 00 00 00 00 00 00 00 00 
       00000C54 00 00 00 00 00 00 00 00 00 00 
       00000C5E 00 00 00 00 00 00 00 00 00 00 
       00000C68 00 00 00 00 00 00 00 00 00 00 
       00000C72 00 00 00 00 00 00 00 00 00 00 
       00000C7C 00 00 00 00 00 00 00 00 00 00 
       00000C86 00 00 00 00 00 00 00 00 00 00 
       00000C90 00 00 00 00 00 00 00 00 00 00 
       00000C9A 00 00 00 00 00 00 00 00 00 00 
       00000CA4 00 00 00 00 00 00 00 00 00 00 
       00000CAE 00 00 00 00 00 00 00 00 00 00 
       00000CB8 00 00 00 00 00 00 00 00 00 00 
       00000CC2 00 00 00 00 00 00 00 00 00 00 
       00000CCC 00 00 00 00 00 00 00 00 00 00 
       00000CD6 00 00 00 00 00 00 00 00 00 00 
       00000CE0 00 00 00 00 00 00 00 00 00 00 
       00000CEA 00 00 00 00 00 00 00 00 00 00 
       00000CF4 00 00 00 00 00 00 00 00 00 00 
       00000CFE 00 00 00 00 00 00 00 00 00 00 
       00000D08 00 00 00 00 00 00 00 00 00 00 
       00000D12 00 00 00 00 00 00 00 00 00 00 
       00000D1C 00 00 00 00 00 00 00 00 00 00 
       00000D26 00 00 00 00 00 00 00 00 00 00 
       00000D30 00 00 00 00 00 00 00 00 00 00 
       00000D3A 00 00 00 00 00 00 00 00 00 00 
       00000D44 00 00 00 00 00 00 00 00 00 00 
       00000D4E 00 00 00 00 00 00 00 00 00 00 
       00000D58 00 00 00 00 00 00 00 00 00 00 
       00000D62 00 00 00 00 00 00 00 00 00 00 
       00000D6C 00 00 00 00 00 00 00 00 00 00 
       00000D76 00 00 00 00 00 00 00 00 00 00 
       00000D80 00 00 00 00 00 00 00 00 00 00 
       00000D8A 00 00 00 00 00 00 00 00 00 00 
       00000D94 00 00 00 00 00 00 00 00 00 00 
       00000D9E 00 00 00 00 00 00 00 00 00 00 
       00000DA8 00 00 00 00 00 00 00 00 00 00 
       00000DB2 00 00 00 00 00 00 00 00 00 00 
       00000DBC 00 00 00 00 00 00 00 00 00 00 
       00000DC6 00 00 00 00 00 00 00 00 00 00 
       00000DD0 00 00 00 00 00 00 00 00 00 00 
       00000DDA 00 00 00 00 00 00 00 00 00 00 
       00000DE4 00 00 00 00 00 00 00 00 00 00 
       00000DEE 00 00 00 00 00 00 00 00 00 00 
       00000DF8 00 00 00 00 00 00 00 00 00 00 
       00000E02 00 00 00 00 00 00 00 00 00 00 
       00000E0C 00 00 00 00 00 00 00 00 00 00 
       00000E16 00 00 00 00 00 00 00 00 00 00 
       00000E20 00 00 00 00 00 00 00 00 00 00 
       00000E2A 00 00 00 00 00 00 00 00 00 00 
       00000E34 00 00 00 00 00 00 00 00 00 00 
       00000E3E 00 00 00 00 00 00 00 00 00 00 
       00000E48 00 00 00 00 00 00 00 00 00 00 
       00000E52 00 00 00 00 00 00 00 00 00 00 
       00000E5C 00 00 00 00 00 00 00 00 00 00 
       00000E66 00 00 00 00 00 00 00 00 00 00 
       00000E70 00 00 00 00 00 00 00 00 00 00 
       00000E7A 00 00 00 00 00 00 00 00 00 00 
       00000E84 00 00 00 00 00 00 00 00 00 00 
       00000E8E 00 00 00 00 00 00 00 00 00 00 
       00000E98 00 00 00 00 00 00 00 00 00 00 
       00000EA2 00 00 00 00 00 00 00 00 00 00 
       00000EAC 00 00 00 00 00 00 00 00 00 00 
       00000EB6 00 00 00 00 00 00 00 00 00 00 
       00000EC0 00 00 00 00 00 00 00 00 00 00 
       00000ECA 00 00 00 00 00 00 00 00 00 00 
       00000ED4 00 00 00 00 00 00 00 00 00 00 
       00000EDE 00 00 00 00 00 00 00 00 00 00 
       00000EE8 00 00 00 00 00 00 00 00 00 00 
       00000EF2 00 00 00 00 00 00 00 00 00 00 
       00000EFC 00 00 00 00 00 00 00 00 00 00 
       00000F06 00 00 00 00 00 00 00 00 00 00 
       00000F10 00 00 00 00 00 00 00 00 00 00 
       00000F1A 00 00 00 00 00 00 00 00 00 00 
       00000F24 00 00 00 00 00 00 00 00 00 00 
       00000F2E 00 00 00 00 00 00 00 00 00 00 
       00000F38 00 00 00 00 00 00 00 00 00 00 
       00000F42 00 00 00 00 00 00 00 00 00 00 
       00000F4C 00 00 00 00 00 00 00 00 00 00 
       00000F56 00 00 00 00 00 00 00 00 00 00 
       00000F60 00 00 00 00 00 00 00 00 00 00 
       00000F6A 00 00 00 00 00 00 00 00 00 00 
       00000F74 00 00 00 00 00 00 00 00 00 00 
       00000F7E 00 00 00 00 00 00 00 00 00 00 
       00000F88 00 00 00 00 00 00 00 00 00 00 
       00000F92 00 00 00 00 00 00 00 00 00 00 
       00000F9C 00 00 00 00 00 00 00 00 00 00 
       00000FA6 00 00 00 00 00 00 00 00 00 00 
       00000FB0 00 00 00 00 00 00 00 00 00 00 
       00000FBA 00 00 00 00 00 00 00 00 00 00 
       00000FC4 00 00 00 00 00 00 00 00 00 00 
       00000FCE 00 00 00 00 00 00 00 00 00 00 
       00000FD8 00 00 00 00 00 00 00 00 00 00 
       00000FE2 00 00 00 00 00 00 00 00 00 00 
       00000FEC 00 00 00 00 00 00 00 00 00 00 
       00000FF6 00 00 00 00 00 00 00 00 00 00 
       00001000 00 00 00 00 00 00 00 00 00 00 
       0000100A 00 00 00 00 00 00 00 00 00 00 
       00001014 00 00 00 00 00 00 00 00 00 00 
       0000101E 00 00 00 00 00 00 00 00 00 00 
       00001028 00 00 00 00 00 00 00 00 00 00 
       00001032 00 00 00 00 00 00 00 00 00 00 
       0000103C 00 00 00 00 00 00 00 00 00 00 
       00001046 00 00 00 00 00 00 00 00 00 00 
       00001050 00 00 00 00 00 00 00 00 00 00 
       0000105A 00 00 00 00 00 00 00 00 00 00 
       00001064 00 00 00 00 00 00 00 00 00 00 
       0000106E 00 00 00 00 00 00 00 00 00 00 
       00001078 00 00 00 00 00 00 00 00 00 00 
       00001082 00 00 00 00 00 00 00 00 00 00 
       0000108C 00 00 00 00 00 00 00 00 00 00 
       00001096 00 00 00 00 00 00 00 00 00 00 
       000010A0 00 00 00 00 00 00 00 00 00 00 
       000010AA 00 00 00 00 00 00 00 00 00 00 
       000010B4 00 00 00 00 00 00 00 00 00 00 
       000010BE 00 00 00 00 00 00 00 00 00 00 
       000010C8 00 00 00 00 00 00 00 00 00 00 
       000010D2 00 00 00 00 00 00 00 00 00 00 
       000010DC 00 00 00 00 00 00 00 00 00 00 
       000010E6 00 00 00 00 00 00 00 00 00 00 
       000010F0 00 00 00 00 00 00 00 00 00 00 
       000010FA 00 00 00 00 00 00 00 00 00 00 
       00001104 00 00 00 00 00 00 00 00 00 00 
       0000110E 00 00 00 00 00 00 00 00 00 00 
       00001118 00 00 00 00 00 00 00 00 00 00 
       00001122 00 00 00 00 00 00 00 00 00 00 
       0000112C 00 00 00 00 00 00 00 00 00 00 
       00001136 00 00 00 00 00 00 00 00 00 00 
       00001140 00 00 00 00 00 00 00 00 00 00 
       0000114A 00 00 00 00 00 00 00 00 00 00 
       00001154 00 00 00 00 00 00 00 00 00 00 
       0000115E 00 00 00 00 00 00 00 00 00 00 
       00001168 00 00 00 00 00 00 00 00 00 00 
       00001172 00 00 00 00 00 00 00 00 00 00 
       0000117C 00 00 00 00 00 00 00 00 00 00 
       00001186 00 00 00 00 00 00 00 00 00 00 
       00001190 00 00 00 00 00 00 00 00 00 00 
       0000119A 00 00 00 00 00 00 00 00 00 00 
       000011A4 00 00 00 00 00 00 00 00 00 00 
       000011AE 00 00 00 00 00 00 00 00 00 00 
       000011B8 00 00 00 00 00 00 00 00 00 00 
       000011C2 00 00 00 00 00 00 00 00 00 00 
       000011CC 00 00 00 00 00 00 00 00 00 00 
       000011D6 00 00 00 00 00 00 00 00 00 00 
       000011E0 00 00 00 00 00 00 00 00 00 00 
       000011EA 00 00 00 00 00 00 00 00 00 00 
       000011F4 00 00 00 00 00 00 00 00 00 00 
       000011FE 00 00 00 00 00 00 00 00 00 00 
       00001208 00 00 00 00 00 00 00 00 00 00 
       00001212 00 00 00 00 00 00 00 00 00 00 
       0000121C 00 00 00 00 00 00 00 00 00 00 
       00001226 00 00 00 00 00 00 00 00 00 00 
       00001230 00 00 00 00 00 00 00 00 00 00 
       0000123A 00 00 00 00 00 00 00 00 00 00 
       00001244 00 00 00 00 00 00 00 00 00 00 
       0000124E 00 00 00 00 00 00 00 00 00 00 
       00001258 00 00 00 00 00 00 00 00 00 00 
       00001262 00 00 00 00 00 00 00 00 00 00 
       0000126C 00 00 00 00 00 00 00 00 00 00 
       00001276 00 00 00 00 00 00 00 00 00 00 
       00001280 00 00 00 00 00 00 00 00 00 00 
       0000128A 00 00 00 00 00 00 00 00 00 00 
       00001294 00 00 00 00 00 00 00 00 00 00 
       0000129E 00 00 00 00 00 00 00 00 00 00 
       000012A8 00 00 00 00 00 00 00 00 00 00 
       000012B2 00 00 00 00 00 00 00 00 00 00 
       000012BC 00 00 00 00 00 00 00 00 00 00 
       000012C6 00 00 00 00 00 00 00 00 00 00 
       000012D0 00 00 00 00 00 00 00 00 00 00 
       000012DA 00 00 00 00 00 00 00 00 00 00 
       000012E4 00 00 00 00 00 00 00 00 00 00 
       000012EE 00 00 00 00 00 00 00 00 00 00 
       000012F8 00 00 00 00 00 00 00 00 00 00 
       00001302 00 00 00 00 00 00 00 00 00 00 
       0000130C 00 00 00 00 00 00 00 00 00 00 
       00001316 00 00 00 00 00 00 00 00 00 00 
       00001320 00 00 00 00 00 00 00 00 00 00 
       0000132A 00 00 00 00 00 00 00 00 00 00 
       00001334 00 00 00 00 00 00 00 00 00 00 
       0000133E 00 00 00 00 00 00 00 00 00 00 
       00001348 00 00 00 00 00 00 00 00 00 00 
       00001352 00 00 00 00 00 00 00 00 00 00 
       0000135C 00 00 00 00 00 00 00 00 00 00 
       00001366 00 00 00 00 00 00 00 00 00 00 
       00001370 00 00 00 00 00 00 00 00 00 00 
       0000137A 00 00 00 00 00 00 00 00 00 00 
       00001384 00 00 00 00 00 00 00 00 00 00 
       0000138E 00 00 00 00 00 00 00 00 00 00 
       00001398 00 00 00 00 00 00 00 00 00 00 
       000013A2 00 00 00 00 00 00 00 00 00 00 
       000013AC 00 00 00 00 00 00 00 00 00 00 
       000013B6 00 00 00 00 00 00 00 00 00 00 
       000013C0 00 00 00 00 00 00 00 00 00 00 
       000013CA 00 00 00 00 00 00 00 00 00 00 
       000013D4 00 00 00 00 00 00 00 00 00 00 
       000013DE 00 00 00 00 00 00 00 00 00 00 
       000013E8 00 00 00 00 00 00 00 00 00 00 
       000013F2 00 00 00 00 00 00 00 00 00 00 
       000013FC 00 00 00 00 00 00 00 00 00 00 
       00001406 00 00 00 00 00 00 00 00 00 00 
       00001410 00 00 00 00 00 00 00 00 00 00 
       0000141A 00 00 00 00 00 00 00 00 00 00 
       00001424 00 00 00 00 00 00 00 00 00 00 
       0000142E 00 00 00 00 00 00 00 00 00 00 
       00001438 00 00 00 00 00 00 00 00 00 00 
       00001442 00 00 00 00 00 00 00 00 00 00 
       0000144C 00 00 00 00 00 00 00 00 00 00 
       00001456 00 00 00 00 00 00 00 00 00 00 
       00001460 00 00 00 00 00 00 00 00 00 00 
       0000146A 00 00 00 00 00 00 00 00 00 00 
       00001474 00 00 00 00 00 00 00 00 00 00 
       0000147E 00 00 00 00 00 00 00 00 00 00 
       00001488 00 00 00 00 00 00 00 00 00 00 
       00001492 00 00 00 00 00 00 00 00 00 00 
       0000149C 00 00 00 00 00 00 00 00 00 00 
       000014A6 00 00 00 00 00 00 00 00 00 00 
       000014B0 00 00 00 00 00 00 00 00 00 00 
       000014BA 00 00 00 00 00 00 00 00 00 00 
       000014C4 00 00 00 00 00 00 00 00 00 00 
       000014CE 00 00 00 00 00 00 00 00 00 00 
       000014D8 00 00 00 00 00 00 00 00 00 00 
       000014E2 00 00 00 00 00 00 00 00 00 00 
       000014EC 00 00 00 00 00 00 00 00 00 00 
       000014F6 00 00 00 00 00 00 00 00 00 00 
       00001500 00 00 00 00 00 00 00 00 00 00 
       0000150A 00 00 00 00 00 00 00 00 00 00 
       00001514 00 00 00 00 00 00 00 00 00 00 
       0000151E 00 00 00 00 00 00 00 00 00 00 
       00001528 00 00 00 00 00 00 00 00 00 00 
       00001532 00 00 00 00 00 00 00 00 00 00 
       0000153C 00 00 00 00 00 00 00 00 00 00 
       00001546 00 00 00 00 00 00 00 00 00 00 
       00001550 00 00 00 00 00 00 00 00 00 00 
       0000155A 00 00 00 00 00 00 00 00 00 00 
       00001564 00 00 00 00 00 00 00 00 00 00 
       0000156E 00 00 00 00 00 00 00 00 00 00 
       00001578 00 00 00 00 00 00 00 00 00 00 
       00001582 00 00 00 00 00 00 00 00 00 00 
       0000158C 00 00 00 00 00 00 00 00 00 00 
       00001596 00 00 00 00 00 00 00 00 00 00 
       000015A0 00 00 00 00 00 00 00 00 00 00 
       000015AA 00 00 00 00 00 00 00 00 00 00 
       000015B4 00 00 00 00 00 00 00 00 00 00 
       000015BE 00 00 00 00 00 00 00 00 00 00 
       000015C8 00 00 00 00 00 00 00 00 00 00 
       000015D2 00 00 00 00 00 00 00 00 00 00 
       000015DC 00 00 00 00 00 00 00 00 00 00 
       000015E6 00 00 00 00 00 00 00 00 00 00 
       000015F0 00 00 00 00 00 00 00 00 00 00 
       000015FA 00 00 00 00 00 00 00 00 00 00 
       00001604 00 00 00 00 00 00 00 00 00 00 
       0000160E 00 00 00 00 00 00 00 00 00 00 
       00001618 00 00 00 00 00 00 00 00 00 00 
       00001622 00 00 00 00 00 00 00 00 00 00 
       0000162C 00 00 00 00 00 00 00 00 00 00 
       00001636 00 00 00 00 00 00 00 00 00 00 
       00001640 00 00 00 00 00 00 00 00 00 00 
       0000164A 00 00 00 00 00 00 00 00 00 00 
       00001654 00 00 00 00 00 00 00 00 00 00 
       0000165E 00 00 00 00 00 00 00 00 00 00 
       00001668 00 00 00 00 00 00 00 00 00 00 
       00001672 00 00 00 00 00 00 00 00 00 00 
       0000167C 00 00 00 00 00 00 00 00 00 00 
       00001686 00 00 00 00 00 00 00 00 00 00 
       00001690 00 00 00 00 00 00 00 00 00 00 
       0000169A 00 00 00 00 00 00 00 00 00 00 
       000016A4 00 00 00 00 00 00 00 00 00 00 
       000016AE 00 00 00 00 00 00 00 00 00 00 
       000016B8 00 00 00 00 00 00 00 00 00 00 
       000016C2 00 00 00 00 00 00 00 00 00 00 
       000016CC 00 00 00 00 00 00 00 00 00 00 
       000016D6 00 00 00 00 00 00 00 00 00 00 
       000016E0 00 00 00 00 00 00 00 00 00 00 
       000016EA 00 00 00 00 00 00 00 00 00 00 
       000016F4 00 00 00 00 00 00 00 00 00 00 
       000016FE 00 00 00 00 00 00 00 00 00 00 
       00001708 00 00 00 00 00 00 00 00 00 00 
       00001712 00 00 00 00 00 00 00 00 00 00 
       0000171C 00 00 00 00 00 00 00 00 00 00 
       00001726 00 00 00 00 00 00 00 00 00 00 
       00001730 00 00 00 00 00 00 00 00 00 00 
       0000173A 00 00 00 00 00 00 00 00 00 00 
       00001744 00 00 00 00 00 00 00 00 00 00 
       0000174E 00 00 00 00 00 00 00 00 00 00 
       00001758 00 00 00 00 00 00 00 00 00 00 
       00001762 00 00 00 00 00 00 00 00 00 00 
       0000176C 00 00 00 00 00 00 00 00 00 00 
       00001776 00 00 00 00 00 00 00 00 00 00 
       00001780 00 00 00 00 00 00 00 00 00 00 
       0000178A 00 00 00 00 00 00 00 00 00 00 
       00001794 00 00 00 00 00 00 00 00 00 00 
       0000179E 00 00 00 00 00 00 00 00 00 00 
       000017A8 00 00 00 00 00 00 00 00 00 00 
       000017B2 00 00 00 00 00 00 00 00 00 00 
       000017BC 00 00 00 00 00 00 00 00 00 00 
       000017C6 00 00 00 00 00 00 00 00 00 00 
       000017D0 00 00 00 00 00 00 00 00 00 00 
       000017DA 00 00 00 00 00 00 00 00 00 00 
       000017E4 00 00 00 00 00 00 00 00 00 00 
       000017EE 00 00 00 00 00 00 00 00 00 00 
       000017F8 00 00 00 00 00 00 00 00 00 00 
       00001802 00 00 00 00 00 00 00 00 00 00 
       0000180C 00 00 00 00 00 00 00 00 00 00 
       00001816 00 00 00 00 00 00 00 00 00 00 
       00001820 00 00 00 00 00 00 00 00 00 00 
       0000182A 00 00 00 00 00 00 00 00 00 00 
       00001834 00 00 00 00 00 00 00 00 00 00 
       0000183E 00 00 00 00 00 00 00 00 00 00 
       00001848 00 00 00 00 00 00 00 00 00 00 
       00001852 00 00 00 00 00 00 00 00 00 00 
       0000185C 00 00 00 00 00 00 00 00 00 00 
       00001866 00 00 00 00 00 00 00 00 00 00 
       00001870 00 00 00 00 00 00 00 00 00 00 
       0000187A 00 00 00 00 00 00 00 00 00 00 
       00001884 00 00 00 00 00 00 00 00 00 00 
       0000188E 00 00 00 00 00 00 00 00 00 00 
       00001898 00 00 00 00 00 00 00 00 00 00 
       000018A2 00 00 00 00 00 00 00 00 00 00 
       000018AC 00 00 00 00 00 00 00 00 00 00 
       000018B6 00 00 00 00 00 00 00 00 00 00 
       000018C0 00 00 00 00 00 00 00 00 00 00 
       000018CA 00 00 00 00 00 00 00 00 00 00 
       000018D4 00 00 00 00 00 00 00 00 00 00 
       000018DE 00 00 00 00 00 00 00 00 00 00 
       000018E8 00 00 00 00 00 00 00 00 00 00 
       000018F2 00 00 00 00 00 00 00 00 00 00 
       000018FC 00 00 00 00 00 00 00 00 00 00 
       00001906 00 00 00 00 00 00 00 00 00 00 
       00001910 00 00 00 00 00 00 00 00 00 00 
       0000191A 00 00 00 00 00 00 00 00 00 00 
       00001924 00 00 00 00 00 00 00 00 00 00 
       0000192E 00 00 00 00 00 00 00 00 00 00 
       00001938 00 00 00 00 00 00 00 00 00 00 
       00001942 00 00 00 00 00 00 00 00 00 00 
       0000194C 00 00 00 00 00 00 00 00 00 00 
       00001956 00 00 00 00 00 00 00 00 00 00 
       00001960 00 00 00 00 00 00 00 00 00 00 
       0000196A 00 00 00 00 00 00 00 00 00 00 
       00001974 00 00 00 00 00 00 00 00 00 00 
       0000197E 00 00 00 00 00 00 00 00 00 00 
       00001988 00 00 00 00 00 00 00 00 00 00 
       00001992 00 00 00 00 00 00 00 00 00 00 
       0000199C 00 00 00 00 00 00 00 00 00 00 
       000019A6 00 00 00 00 00 00 00 00 00 00 
       000019B0 00 00 00 00 00 00 00 00 00 00 
       000019BA 00 00 00 00 00 00 00 00 00 00 
       000019C4 00 00 00 00 00 00 00 00 00 00 
       000019CE 00 00 00 00 00 00 00 00 00 00 
       000019D8 00 00 00 00 00 00 00 00 00 00 
       000019E2 00 00 00 00 00 00 00 00 00 00 
       000019EC 00 00 00 00 00 00 00 00 00 00 
       000019F6 00 00 00 00 00 00 00 00 00 00 
       00001A00 00 00 00 00 00 00 00 00 00 00 
       00001A0A 00 00 00 00 00 00 00 00 00 00 
       00001A14 00 00 00 00 00 00 00 00 00 00 
       00001A1E 00 00 00 00 00 00 00 00 00 00 
       00001A28 00 00 00 00 00 00 00 00 00 00 
       00001A32 00 00 00 00 00 00 00 00 00 00 
       00001A3C 00 00 00 00 00 00 00 00 00 00 
       00001A46 00 00 00 00 00 00 00 00 00 00 
       00001A50 00 00 00 00 00 00 00 00 00 00 
       00001A5A 00 00 00 00 00 00 00 00 00 00 
       00001A64 00 00 00 00 00 00 00 00 00 00 
       00001A6E 00 00 00 00 00 00 00 00 00 00 
       00001A78 00 00 00 00 00 00 00 00 00 00 
       00001A82 00 00 00 00 00 00 00 00 00 00 
       00001A8C 00 00 00 00 00 00 00 00 00 00 
       00001A96 00 00 00 00 00 00 00 00 00 00 
       00001AA0 00 00 00 00 00 00 00 00 00 00 
       00001AAA 00 00 00 00 00 00 00 00 00 00 
       00001AB4 00 00 00 00 00 00 00 00 00 00 
       00001ABE 00 00 00 00 00 00 00 00 00 00 
       00001AC8 00 00 00 00 00 00 00 00 00 00 
       00001AD2 00 00 00 00 00 00 00 00 00 00 
       00001ADC 00 00 00 00 00 00 00 00 00 00 
       00001AE6 00 00 00 00 00 00 00 00 00 00 
       00001AF0 00 00 00 00 00 00 00 00 00 00 
       00001AFA 00 00 00 00 00 00 00 00 00 00 
       00001B04 00 00 00 00 00 00 00 00 00 00 
       00001B0E 00 00 00 00 00 00 00 00 00 00 
       00001B18 00 00 00 00 00 00 00 00 00 00 
       00001B22 00 00 00 00 00 00 00 00 00 00 
       00001B2C 00 00 00 00 00 00 00 00 00 00 
       00001B36 00 00 00 00 00 00 00 00 00 00 
       00001B40 00 00 00 00 00 00 00 00 00 00 
       00001B4A 00 00 00 00 00 00 00 00 00 00 
       00001B54 00 00 00 00 00 00 00 00 00 00 
       00001B5E 00 00 00 00 00 00 00 00 00 00 
       00001B68 00 00 00 00 00 00 00 00 00 00 
       00001B72 00 00 00 00 00 00 00 00 00 00 
       00001B7C 00 00 00 00 00 00 00 00 00 00 
       00001B86 00 00 00 00 00 00 00 00 00 00 
       00001B90 00 00 00 00 00 00 00 00 00 00 
       00001B9A 00 00 00 00 00 00 00 00 00 00 
       00001BA4 00 00 00 00 00 00 00 00 00 00 
       00001BAE 00 00 00 00 00 00 00 00 00 00 
       00001BB8 00 00 00 00 00 00 00 00 00 00 
       00001BC2 00 00 00 00 00 00 00 00 00 00 
       00001BCC 00 00 00 00 00 00 00 00 00 00 
       00001BD6 00 00 00 00 00 00 00 00 00 00 
       00001BE0 00 00 00 00 00 00 00 00 00 00 
       00001BEA 00 00 00 00 00 00 00 00 00 00 
       00001BF4 00 00 00 00 00 00 00 00 00 00 
       00001BFE 00 00 00 00 00 00 00 00 00 00 
       00001C08 00 00 00 00 00 00 00 00 00 00 
       00001C12 00 00 00 00 00 00 00 00 00 00 
       00001C1C 00 00 00 00 00 00 00 00 00 00 
       00001C26 00 00 00 00 00 00 00 00 00 00 
       00001C30 00 00 00 00 00 00 00 00 00 00 
       00001C3A 00 00 00 00 00 00 00 00 00 00 
       00001C44 00 00 00 00 00 00 00 00 00 00 
       00001C4E 00 00 00 00 00 00 00 00 00 00 
       00001C58 00 00 00 00 00 00 00 00 00 00 
       00001C62 00 00 00 00 00 00 00 00 00 00 
       00001C6C 00 00 00 00 00 00 00 00 00 00 
       00001C76 00 00 00 00 00 00 00 00 00 00 
       00001C80 00 00 00 00 00 00 00 00 00 00 
       00001C8A 00 00 00 00 00 00 00 00 00 00 
       00001C94 00 00 00 00 00 00 00 00 00 00 
       00001C9E 00 00 00 00 00 00 00 00 00 00 
       00001CA8 00 00 00 00 00 00 00 00 00 00 
       00001CB2 00 00 00 00 00 00 00 00 00 00 
       00001CBC 00 00 00 00 00 00 00 00 00 00 
       00001CC6 00 00 00 00 00 00 00 00 00 00 
       00001CD0 00 00 00 00 00 00 00 00 00 00 
       00001CDA 00 00 00 00 00 00 00 00 00 00 
       00001CE4 00 00 00 00 00 00 00 00 00 00 
       00001CEE 00 00 00 00 00 00 00 00 00 00 
       00001CF8 00 00 00 00 00 00 00 00 00 00 
       00001D02 00 00 00 00 00 00 00 00 00 00 
       00001D0C 00 00 00 00 00 00 00 00 00 00 
       00001D16 00 00 00 00 00 00 00 00 00 00 
       00001D20 00 00 00 00 00 00 00 00 00 00 
       00001D2A 00 00 00 00 00 00 00 00 00 00 
       00001D34 00 00 00 00 00 00 00 00 00 00 
       00001D3E 00 00 00 00 00 00 00 00 00 00 
       00001D48 00 00 00 00 00 00 00 00 00 00 
       00001D52 00 00 00 00 00 00 00 00 00 00 
       00001D5C 00 00 00 00 00 00 00 00 00 00 
       00001D66 00 00 00 00 00 00 00 00 00 00 
       00001D70 00 00 00 00 00 00 00 00 00 00 
       00001D7A 00 00 00 00 00 00 00 00 00 00 
       00001D84 00 00 00 00 00 00 00 00 00 00 
       00001D8E 00 00 00 00 00 00 00 00 00 00 
       00001D98 00 00 00 00 00 00 00 00 00 00 
       00001DA2 00 00 00 00 00 00 00 00 00 00 
       00001DAC 00 00 00 00 00 00 00 00 00 00 
       00001DB6 00 00 00 00 00 00 00 00 00 00 
       00001DC0 00 00 00 00 00 00 00 00 00 00 
       00001DCA 00 00 00 00 00 00 00 00 00 00 
       00001DD4 00 00 00 00 00 00 00 00 00 00 
       00001DDE 00 00 00 00 00 00 00 00 00 00 
       00001DE8 00 00 00 00 00 00 00 00 00 00 
       00001DF2 00 00 00 00 00 00 00 00 00 00 
       00001DFC 00 00 00 00 00 00 00 00 00 00 
       00001E06 00 00 00 00 00 00 00 00 00 00 
       00001E10 00 00 00 00 00 00 00 00 00 00 
       00001E1A 00 00 00 00 00 00 00 00 00 00 
       00001E24 00 00 00 00 00 00 00 00 00 00 
       00001E2E 00 00 00 00 00 00 00 00 00 00 
       00001E38 00 00 00 00 00 00 00 00 00 00 
       00001E42 00 00 00 00 00 00 00 00 00 00 
       00001E4C 00 00 00 00 00 00 00 00 00 00 
       00001E56 00 00 00 00 00 00 00 00 00 00 
       00001E60 00 00 00 00 00 00 00 00 00 00 
       00001E6A 00 00 00 00 00 00 00 00 00 00 
       00001E74 00 00 00 00 00 00 00 00 00 00 
       00001E7E 00 00 00 00 00 00 00 00 00 00 
       00001E88 00 00 00 00 00 00 00 00 00 00 
       00001E92 00 00 00 00 00 00 00 00 00 00 
       00001E9C 00 00 00 00 00 00 00 00 00 00 
       00001EA6 00 00 00 00 00 00 00 00 00 00 
       00001EB0 00 00 00 00 00 00 00 00 00 00 
       00001EBA 00 00 00 00 00 00 00 00 00 00 
       00001EC4 00 00 00 00 00 00 00 00 00 00 
       00001ECE 00 00 00 00 00 00 00 00 00 00 
       00001ED8 00 00 00 00 00 00 00 00 00 00 
       00001EE2 00 00 00 00 00 00 00 00 00 00 
       00001EEC 00 00 00 00 00 00 00 00 00 00 
       00001EF6 00 00 00 00 00 00 00 00 00 00 
       00001F00 00 00 00 00 00 00 00 00 00 00 
       00001F0A 00 00 00 00 00 00 00 00 00 00 
       00001F14 00 00 00 00 00 00 00 00 00 00 
       00001F1E 00 00 00 00 00 00 00 00 00 00 
       00001F28 00 00 00 00 00 00 00 00 00 00 
       00001F32 00 00 00 00 00 00 00 00 00 00 
       00001F3C 00 00 00 00 00 00 00 00 00 00 
       00001F46 00 00 00 00 00 00 00 00 00 00 
       00001F50 00 00 00 00 00 00 00 00 00 00 
       00001F5A 00 00 00 00 00 00 00 00 00 00 
       00001F64 00 00 00 00 00 00 00 00 00 00 
       00001F6E 00 00 00 00 00 00 00 00 00 00 
       00001F78 00 00 00 00 00 00 00 00 00 00 
       00001F82 00 00 00 00 00 00 00 00 00 00 
       00001F8C 00 00 00 00 00 00 00 00 00 00 
       00001F96 00 00 00 00 00 00 00 00 00 00 
       00001FA0 00 00 00 00 00 00 00 00 00 00 
       00001FAA 00 00 00 00 00 00 00 00 00 00 
       00001FB4 00 00 00 00 00 00 00 00 00 00 
       00001FBE 00 00 00 00 00 00 00 00 00 00 
       00001FC8 00 00 00 00 00 00 00 00 00 00 
       00001FD2 00 00 00 00 00 00 00 00 00 00 
       00001FDC 00 00 00 00 00 00 00 00 00 00 
       00001FE6 00 00 00 00 00 00 00 00 00 00 
       00001FF0 00 00 00 00 00 00 00 00 00 00 
       00001FFA 00 00 00 00 00 00 00 00 00 00 
       00002004 00 00 00 00 00 00 00 00 00 00 
       0000200E 00 00 00 00 00 00 00 00 00 00 
       00002018 00 00 00 00 00 00 00 00 00 00 
       00002022 00 00 00 00 00 00 00 00 00 00 
       0000202C 00 00 00 00 00 00 00 00 00 00 
       00002036 00 00 00 00 00 00 00 00 00 00 
       00002040 00 00 00 00 00 00 00 00 00 00 
       0000204A 00 00 00 00 00 00 00 00 00 00 
       00002054 00 00 00 00 00 00 00 00 00 00 
       0000205E 00 00 00 00 00 00 00 00 00 00 
       00002068 00 00 00 00 00 00 00 00 00 00 
       00002072 00 00 00 00 00 00 00 00 00 00 
       0000207C 00 00 00 00 00 00 00 00 00 00 
       00002086 00 00 00 00 00 00 00 00 00 00 
       00002090 00 00 00 00 00 00 00 00 00 00 
       0000209A 00 00 00 00 00 00 00 00 00 00 
       000020A4 00 00 00 00 00 00 00 00 00 00 
       000020AE 00 00 00 00 00 00 00 00 00 00 
       000020B8 00 00 00 00 00 00 00 00 00 00 
       000020C2 00 00 00 00 00 00 00 00 00 00 
       000020CC 00 00 00 00 00 00 00 00 00 00 
       000020D6 00 00 00 00 00 00 00 00 00 00 
       000020E0 00 00 00 00 00 00 00 00 00 00 
       000020EA 00 00 00 00 00 00 00 00 00 00 
       000020F4 00 00 00 00 00 00 00 00 00 00 
       000020FE 00 00 00 00 00 00 00 00 00 00 
       00002108 00 00 00 00 00 00 00 00 00 00 
       00002112 00 00 00 00 00 00 00 00 00 00 
       0000211C 00 00 00 00 00 00 00 00 00 00 
       00002126 00 00 00 00 00 00 00 00 00 00 
       00002130 00 00 00 00 00 00 00 00 00 00 
       0000213A 00 00 00 00 00 00 00 00 00 00 
       00002144 00 00 00 00 00 00 00 00 00 00 
       0000214E 00 00 00 00 00 00 00 00 00 00 
       00002158 00 00 00 00 00 00 00 00 00 00 
       00002162 00 00 00 00 00 00 00 00 00 00 
       0000216C 00 00 00 00 00 00 00 00 00 00 
       00002176 00 00 00 00 00 00 00 00 00 00 
       00002180 00 00 00 00 00 00 00 00 00 00 
       0000218A 00 00 00 00 00 00 00 00 00 00 
       00002194 00 00 00 00 00 00 00 00 00 00 
       0000219E 00 00 00 00 00 00 00 00 00 00 
       000021A8 00 00 00 00 00 00 00 00 00 00 
       000021B2 00 00 00 00 00 00 00 00 00 00 
       000021BC 00 00 00 00 00 00 00 00 00 00 
       000021C6 00 00 00 00 00 00 00 00 00 00 
       000021D0 00 00 00 00 00 00 00 00 00 00 
       000021DA 00 00 00 00 00 00 00 00 00 00 
       000021E4 00 00 00 00 00 00 00 00 00 00 
       000021EE 00 00 00 00 00 00 00 00 00 00 
       000021F8 00 00 00 00 00 00 00 00 00 00 
       00002202 00 00 00 00 00 00 00 00 00 00 
       0000220C 00 00 00 00 00 00 00 00 00 00 
       00002216 00 00 00 00 00 00 00 00 00 00 
       00002220 00 00 00 00 00 00 00 00 00 00 
       0000222A 00 00 00 00 00 00 00 00 00 00 
       00002234 00 00 00 00 00 00 00 00 00 00 
       0000223E 00 00 00 00 00 00 00 00 00 00 
       00002248 00 00 00 00 00 00 00 00 00 00 
       00002252 00 00 00 00 00 00 00 00 00 00 
       0000225C 00 00 00 00 00 00 00 00 00 00 
       00002266 00 00 00 00 00 00 00 00 00 00 
       00002270 00 00 00 00 00 00 00 00 00 00 
       0000227A 00 00 00 00 00 00 00 00 00 00 
       00002284 00 00 00 00 00 00 00 00 00 00 
       0000228E 00 00 00 00 00 00 00 00 00 00 
       00002298 00 00 00 00 00 00 00 00 00 00 
       000022A2 00 00 00 00 00 00 00 00 00 00 
       000022AC 00 00 00 00 00 00 00 00 00 00 
       000022B6 00 00 00 00 00 00 00 00 00 00 
       000022C0 00 00 00 00 00 00 00 00 00 00 
       000022CA 00 00 00 00 00 00 00 00 00 00 
       000022D4 00 00 00 00 00 00 00 00 00 00 
       000022DE 00 00 00 00 00 00 00 00 00 00 
       000022E8 00 00 00 00 00 00 00 00 00 00 
       000022F2 00 00 00 00 00 00 00 00 00 00 
       000022FC 00 00 00 00 00 00 00 00 00 00 
       00002306 00 00 00 00 00 00 00 00 00 00 
       00002310 00 00 00 00 00 00 00 00 00 00 
       0000231A 00 00 00 00 00 00 00 00 00 00 
       00002324 00 00 00 00 00 00 00 00 00 00 
       0000232E 00 00 00 00 00 00 00 00 00 00 
       00002338 00 00 00 00 00 00 00 00 00 00 
       00002342 00 00 00 00 00 00 00 00 00 00 
       0000234C 00 00 00 00 00 00 00 00 00 00 
       00002356 00 00 00 00 00 00 00 00 00 00 
       00002360 00 00 00 00 00 00 00 00 00 00 
       0000236A 00 00 00 00 00 00 00 00 00 00 
       00002374 00 00 00 00 00 00 00 00 00 00 
       0000237E 00 00 00 00 00 00 00 00 00 00 
       00002388 00 00 00 00 00 00 00 00 00 00 
       00002392 00 00 00 00 00 00 00 00 00 00 
       0000239C 00 00 00 00 00 00 00 00 00 00 
       000023A6 00 00 00 00 00 00 00 00 00 00 
       000023B0 00 00 00 00 00 00 00 00 00 00 
       000023BA 00 00 00 00 00 00 00 00 00 00 
       000023C4 00 00 00 00 00 00 00 00 00 00 
       000023CE 00 00 00 00 00 00 00 00 00 00 
       000023D8 00 00 00 00 00 00 00 00 00 00 
       000023E2 00 00 00 00 00 00 00 00 00 00 
       000023EC 00 00 00 00 00 00 00 00 00 00 
       000023F6 00 00 00 00 00 00 00 00 00 00 
       00002400 00 00 00 00 00 00 00 00 00 00 
       0000240A 00 00 00 00 00 00 00 00 00 00 
       00002414 00 00 00 00 00 00 00 00 00 00 
       0000241E 00 00 00 00 00 00 00 00 00 00 
       00002428 00 00 00 00 00 00 00 00 00 00 
       00002432 00 00 00 00 00 00 00 00 00 00 
       0000243C 00 00 00 00 00 00 00 00 00 00 
       00002446 00 00 00 00 00 00 00 00 00 00 
       00002450 00 00 00 00 00 00 00 00 00 00 
       0000245A 00 00 00 00 00 00 00 00 00 00 
       00002464 00 00 00 00 00 00 00 00 00 00 
       0000246E 00 00 00 00 00 00 00 00 00 00 
       00002478 00 00 00 00 00 00 00 00 00 00 
       00002482 00 00 00 00 00 00 00 00 00 00 
       0000248C 00 00 00 00 00 00 00 00 00 00 
       00002496 00 00 00 00 00 00 00 00 00 00 
       000024A0 00 00 00 00 00 00 00 00 00 00 
       000024AA 00 00 00 00 00 00 00 00 00 00 
       000024B4 00 00 00 00 00 00 00 00 00 00 
       000024BE 00 00 00 00 00 00 00 00 00 00 
       000024C8 00 00 00 00 00 00 00 00 00 00 
       000024D2 00 00 00 00 00 00 00 00 00 00 
       000024DC 00 00 00 00 00 00 00 00 00 00 
       000024E6 00 00 00 00 00 00 00 00 00 00 
       000024F0 00 00 00 00 00 00 00 00 00 00 
       000024FA 00 00 00 00 00 00 00 00 00 00 
       00002504 00 00 00 00 00 00 00 00 00 00 
       0000250E 00 00 00 00 00 00 00 00 00 00 
       00002518 00 00 00 00 00 00 00 00 00 00 
       00002522 00 00 00 00 00 00 00 00 00 00 
       0000252C 00 00 00 00 00 00 00 00 00 00 
       00002536 00 00 00 00 00 00 00 00 00 00 
       00002540 00 00 00 00 00 00 00 00 00 00 
       0000254A 00 00 00 00 00 00 00 00 00 00 
       00002554 00 00 00 00 00 00 00 00 00 00 
       0000255E 00 00 00 00 00 00 00 00 00 00 
       00002568 00 00 00 00 00 00 00 00 00 00 
       00002572 00 00 00 00 00 00 00 00 00 00 
       0000257C 00 00 00 00 00 00 00 00 00 00 
       00002586 00 00 00 00 00 00 00 00 00 00 
       00002590 00 00 00 00 00 00 00 00 00 00 
       0000259A 00 00 00 00 00 00 00 00 00 00 
       000025A4 00 00 00 00 00 00 00 00 00 00 
       000025AE 00 00 00 00 00 00 00 00 00 00 
       000025B8 00 00 00 00 00 00 00 00 00 00 
       000025C2 00 00 00 00 00 00 00 00 00 00 
       000025CC 00 00 00 00 00 00 00 00 00 00 
       000025D6 00 00 00 00 00 00 00 00 00 00 
       000025E0 00 00 00 00 00 00 00 00 00 00 
       000025EA 00 00 00 00 00 00 00 00 00 00 
       000025F4 00 00 00 00 00 00 00 00 00 00 
       000025FE 00 00 00 00 00 00 00 00 00 00 
       00002608 00 00 00 00 00 00 00 00 00 00 
       00002612 00 00 00 00 00 00 00 00 00 00 
       0000261C 00 00 00 00 00 00 00 00 00 00 
       00002626 00 00 00 00 00 00 00 00 00 00 
       00002630 00 00 00 00 00 00 00 00 00 00 
       0000263A 00 00 00 00 00 00 00 00 00 00 
       00002644 00 00 00 00 00 00 00 00 00 00 
       0000264E 00 00 00 00 00 00 00 00 00 00 
       00002658 00 00 00 00 00 00 00 00 00 00 
       00002662 00 00 00 00 00 00 00 00 00 00 
       0000266C 00 00 00 00 00 00 00 00 00 00 
       00002676 00 00 00 00 00 00 00 00 00 00 
       00002680 00 00 00 00 00 00 00 00 00 00 
       0000268A 00 00 00 00 00 00 00 00 00 00 
       00002694 00 00 00 00 00 00 00 00 00 00 
       0000269E 00 00 00 00 00 00 00 00 00 00 
       000026A8 00 00 00 00 00 00 00 00 00 00 
       000026B2 00 00 00 00 00 00 00 00 00 00 
       000026BC 00 00 00 00 00 00 00 00 00 00 
       000026C6 00 00 00 00 00 00 00 00 00 00 
       000026D0 00 00 00 00 00 00 00 00 00 00 
       000026DA 00 00 00 00 00 00 00 00 00 00 
       000026E4 00 00 00 00 00 00 00 00 00 00 
       000026EE 00 00 00 00 00 00 00 00 00 00 
       000026F8 00 00 00 00 00 00 00 00 00 00 
       00002702 00 00 00 00 00 00 00 00 00 00 
       0000270C 00 00 00 00 00 00 00 00 00 00 
       00002716 00 00 00 00 00 00 00 00 00 00 
       00002720 00 00 00 00 00 00 00 00 00 00 
       0000272A 00 00 00 00 00 00 00 00 00 00 
       00002734 00 00 00 00 00 00 00 00 00 00 
       0000273E 00 00 00 00 00 00 00 00 00 00 
       00002748 00 00 00 00 00 00 00 00 00 00 
       00002752 00 00 00 00 00 00 00 00 00 00 
       0000275C 00 00 00 00 00 00 00 00 00 00 
       00002766 00 00 00 00 00 00 00 00 00 00 
       00002770 00 00 00 00 00 00 00 00 00 00 
       0000277A 00 00 00 00 00 00 00 00 00 00 
       00002784 00 00 00 00 00 00 00 00 00 00 
       0000278E 00 00 00 00 00 00 00 00 00 00 
       00002798 00 00 00 00 00 00 00 00 00 00 
       000027A2 00 00 00 00 00 00 00 00 00 00 
       000027AC 00 00 00 00 00 00 00 00 00 00 
       000027B6 00 00 00 00 00 00 00 00 00 00 
       000027C0 00 00 00 00 00 00 00 00 00 00 
       000027CA 00 00 00 00 00 00 00 00 00 00 
       000027D4 00 00 00 00 00 00 00 00 00 00 
       000027DE 00 00 00 00 00 00 00 00 00 00 
       000027E8 00 00 00 00 00 00 00 00 00 00 
       000027F2 00 00 00 00 00 00 00 00 00 00 
       000027FC 00 00 00 00 00 00 00 00 00 00 
       00002806 00 00 00 00 00 00 00 00 00 00 
       00002810 00 00 00 00 00 00 00 00 00 00 
       0000281A 00 00 00 00 00 00 00 00 00 00 
       00002824 00 00 00 00 00 00 00 00 00 00 
       0000282E 00 00 00 00 00 00 00 00 00 00 
       00002838 00 00 00 00 00 00 00 00 00 00 
       00002842 00 00 00 00 00 00 00 00 00 00 
       0000284C 00 00 00 00 00 00 00 00 00 00 
       00002856 00 00 00 00 00 00 00 00 00 00 
       00002860 00 00 00 00 00 00 00 00 00 00 
       0000286A 00 00 00 00 00 00 00 00 00 00 
       00002874 00 00 00 00 00 00 00 00 00 00 
       0000287E 00 00 00 00 00 00 00 00 00 00 
       00002888 00 00 00 00 00 00 00 00 00 00 
       00002892 00 00 00 00 00 00 00 00 00 00 
       0000289C 00 00 00 00 00 00 00 00 00 00 
       000028A6 00 00 00 00 00 00 00 00 00 00 
       000028B0 00 00 00 00 00 00 00 00 00 00 
       000028BA 00 00 00 00 00 00 00 00 00 00 
       000028C4 00 00 00 00 00 00 00 00 00 00 
       000028CE 00 00 00 00 00 00 00 00 00 00 
       000028D8 00 00 00 00 00 00 00 00 00 00 
       000028E2 00 00 00 00 00 00 00 00 00 00 
       000028EC 00 00 00 00 00 00 00 00 00 00 
       000028F6 00 00 00 00 00 00 00 00 00 00 
       00002900 00 00 00 00 00 00 00 00 00 00 
       0000290A 00 00 00 00 00 00 00 00 00 00 
       00002914 00 00 00 00 00 00 00 00 00 00 
       0000291E 00 00 00 00 00 00 00 00 00 00 
       00002928 00 00 00 00 00 00 00 00 00 00 
       00002932 00 00 00 00 00 00 00 00 00 00 
       0000293C 00 00 00 00 00 00 00 00 00 00 
       00002946 00 00 00 00 00 00 00 00 00 00 
       00002950 00 00 00 00 00 00 00 00 00 00 
       0000295A 00 00 00 00 00 00 00 00 00 00 
       00002964 00 00 00 00 00 00 00 00 00 00 
       0000296E 00 00 00 00 00 00 00 00 00 00 
       00002978 00 00 00 00 00 00 00 00 00 00 
       00002982 00 00 00 00 00 00 00 00 00 00 
       0000298C 00 00 00 00 00 00 00 00 00 00 
       00002996 00 00 00 00 00 00 00 00 00 00 
       000029A0 00 00 00 00 00 00 00 00 00 00 
       000029AA 00 00 00 00 00 00 00 00 00 00 
       000029B4 00 00 00 00 00 00 00 00 00 00 
       000029BE 00 00 00 00 00 00 00 00 00 00 
       000029C8 00 00 00 00 00 00 00 00 00 00 
       000029D2 00 00 00 00 00 00 00 00 00 00 
       000029DC 00 00 00 00 00 00 00 00 00 00 
       000029E6 00 00 00 00 00 00 00 00 00 00 
       000029F0 00 00 00 00 00 00 00 00 00 00 
       000029FA 00 00 00 00 00 00 00 00 00 00 
       00002A04 00 00 00 00 00 00 00 00 00 00 
       00002A0E 00 00 00 00 00 00 00 00 00 00 
       00002A18 00 00 00 00 00 00 00 00 00 00 
       00002A22 00 00 00 00 00 00 00 00 00 00 
       00002A2C 00 00 00 00 00 00 00 00 00 00 
       00002A36 00 00 00 00 00 00 00 00 00 00 
       00002A40 00 00 00 00 00 00 00 00 00 00 
       00002A4A 00 00 00 00 00 00 00 00 00 00 
       00002A54 00 00 00 00 00 00 00 00 00 00 
       00002A5E 00 00 00 00 00 00 00 00 00 00 
       00002A68 00 00 00 00 00 00 00 00 00 00 
       00002A72 00 00 00 00 00 00 00 00 00 00 
       00002A7C 00 00 00 00 00 00 00 00 00 00 
       00002A86 00 00 00 00 00 00 00 00 00 00 
       00002A90 00 00 00 00 00 00 00 00 00 00 
       00002A9A 00 00 
  4008 00002A9C                                 	GLOBAL	_processctl
  4009                                          [SECTION .data]
  4010 00002A9C                                 	ALIGNB	4
  4011 00002A9C                                 _processctl:
  4012 00002A9C 00 00 00 00                     	RESB	4
  4013 00002AA0                                 	GLOBAL	_mpTimer
  4014                                          [SECTION .data]
  4015 00002AA0                                 	ALIGNB	4
  4016 00002AA0                                 _mpTimer:
  4017 00002AA0 00 00 00 00                     	RESB	4
