     1 00000000                                 [FORMAT "WCOFF"]
     2 00000000                                 [INSTRSET "i486p"]
     3 00000000                                 [OPTIMIZE 1]
     4 00000000                                 [OPTION 1]
     5 00000000                                 [BITS 32]
     6 00000000                                 	EXTERN	_io_out8
     7 00000000                                 	EXTERN	_io_in8
     8 00000000                                 	EXTERN	_loadGdtr
     9 00000000                                 	EXTERN	_loadIdtr
    10 00000000                                 	EXTERN	_asm_interruptHandler20
    11 00000000                                 	EXTERN	_asm_interruptHandler21
    12 00000000                                 	EXTERN	_asm_interruptHandler27
    13 00000000                                 	EXTERN	_asm_interruptHandler2c
    14 00000000                                 	EXTERN	_io_load_eflags
    15 00000000                                 	EXTERN	_io_cli
    16 00000000                                 	EXTERN	_io_store_eflags
    17 00000000                                 	EXTERN	_font
    18 00000000                                 	EXTERN	_memtest_sub
    19 00000000                                 	EXTERN	_loadCr0
    20 00000000                                 	EXTERN	_storeCr0
    21 00000000                                 	EXTERN	_io_sti
    22 00000000                                 	EXTERN	_sprintf
    23 00000000                                 [FILE "bootpack.c"]
    24                                          [SECTION .text]
    25 00000000                                 	GLOBAL	_QueueInit
    26 00000000                                 _QueueInit:
    27 00000000 55                              	PUSH	EBP
    28 00000001 89 E5                           	MOV	EBP,ESP
    29 00000003 8B 45 08                        	MOV	EAX,DWORD [8+EBP]
    30 00000006 8B 4D 0C                        	MOV	ECX,DWORD [12+EBP]
    31 00000009 8B 55 10                        	MOV	EDX,DWORD [16+EBP]
    32 0000000C 89 48 0C                        	MOV	DWORD [12+EAX],ECX
    33 0000000F 89 10                           	MOV	DWORD [EAX],EDX
    34 00000011 89 48 10                        	MOV	DWORD [16+EAX],ECX
    35 00000014 C7 40 14 00000000               	MOV	DWORD [20+EAX],0
    36 0000001B C7 40 08 00000000               	MOV	DWORD [8+EAX],0
    37 00000022 C7 40 04 00000000               	MOV	DWORD [4+EAX],0
    38 00000029 5D                              	POP	EBP
    39 0000002A C3                              	RET
    40 0000002B                                 	GLOBAL	_QueuePush
    41 0000002B                                 _QueuePush:
    42 0000002B 55                              	PUSH	EBP
    43 0000002C 89 E5                           	MOV	EBP,ESP
    44 0000002E 53                              	PUSH	EBX
    45 0000002F 8B 4D 08                        	MOV	ECX,DWORD [8+EBP]
    46 00000032 8B 5D 0C                        	MOV	EBX,DWORD [12+EBP]
    47 00000035 83 79 10 00                     	CMP	DWORD [16+ECX],0
    48 00000039 75 0D                           	JNE	L3
    49 0000003B 83 C8 FF                        	OR	EAX,-1
    50 0000003E C7 41 14 00000001               	MOV	DWORD [20+ECX],1
    51 00000045                                 L2:
    52 00000045 5B                              	POP	EBX
    53 00000046 5D                              	POP	EBP
    54 00000047 C3                              	RET
    55 00000048                                 L3:
    56 00000048 8B 41 04                        	MOV	EAX,DWORD [4+ECX]
    57 0000004B 8B 11                           	MOV	EDX,DWORD [ECX]
    58 0000004D 88 1C 10                        	MOV	BYTE [EAX+EDX*1],BL
    59 00000050 8B 41 04                        	MOV	EAX,DWORD [4+ECX]
    60 00000053 FF 49 10                        	DEC	DWORD [16+ECX]
    61 00000056 40                              	INC	EAX
    62 00000057 99                              	CDQ
    63 00000058 F7 79 0C                        	IDIV	DWORD [12+ECX]
    64 0000005B 31 C0                           	XOR	EAX,EAX
    65 0000005D 89 51 04                        	MOV	DWORD [4+ECX],EDX
    66 00000060 EB E3                           	JMP	L2
    67 00000062                                 	GLOBAL	_QueuePop
    68 00000062                                 _QueuePop:
    69 00000062 55                              	PUSH	EBP
    70 00000063 83 C8 FF                        	OR	EAX,-1
    71 00000066 89 E5                           	MOV	EBP,ESP
    72 00000068 57                              	PUSH	EDI
    73 00000069 56                              	PUSH	ESI
    74 0000006A 8B 75 08                        	MOV	ESI,DWORD [8+EBP]
    75 0000006D 53                              	PUSH	EBX
    76 0000006E 8B 7E 10                        	MOV	EDI,DWORD [16+ESI]
    77 00000071 8B 5E 0C                        	MOV	EBX,DWORD [12+ESI]
    78 00000074 39 DF                           	CMP	EDI,EBX
    79 00000076 74 18                           	JE	L4
    80 00000078 8B 46 08                        	MOV	EAX,DWORD [8+ESI]
    81 0000007B 8B 16                           	MOV	EDX,DWORD [ESI]
    82 0000007D 0F B6 0C 10                     	MOVZX	ECX,BYTE [EAX+EDX*1]
    83 00000081 40                              	INC	EAX
    84 00000082 99                              	CDQ
    85 00000083 F7 FB                           	IDIV	EBX
    86 00000085 8D 47 01                        	LEA	EAX,DWORD [1+EDI]
    87 00000088 89 56 08                        	MOV	DWORD [8+ESI],EDX
    88 0000008B 89 46 10                        	MOV	DWORD [16+ESI],EAX
    89 0000008E 89 C8                           	MOV	EAX,ECX
    90 00000090                                 L4:
    91 00000090 5B                              	POP	EBX
    92 00000091 5E                              	POP	ESI
    93 00000092 5F                              	POP	EDI
    94 00000093 5D                              	POP	EBP
    95 00000094 C3                              	RET
    96 00000095                                 	GLOBAL	_QueueSize
    97 00000095                                 _QueueSize:
    98 00000095 55                              	PUSH	EBP
    99 00000096 89 E5                           	MOV	EBP,ESP
   100 00000098 8B 55 08                        	MOV	EDX,DWORD [8+EBP]
   101 0000009B 5D                              	POP	EBP
   102 0000009C 8B 42 0C                        	MOV	EAX,DWORD [12+EDX]
   103 0000009F 2B 42 10                        	SUB	EAX,DWORD [16+EDX]
   104 000000A2 C3                              	RET
   105 000000A3                                 	GLOBAL	_init_pic
   106 000000A3                                 _init_pic:
   107 000000A3 55                              	PUSH	EBP
   108 000000A4 89 E5                           	MOV	EBP,ESP
   109 000000A6 68 000000FF                     	PUSH	255
   110 000000AB 6A 21                           	PUSH	33
   111 000000AD E8 [00000000]                   	CALL	_io_out8
   112 000000B2 68 000000FF                     	PUSH	255
   113 000000B7 68 000000A1                     	PUSH	161
   114 000000BC E8 [00000000]                   	CALL	_io_out8
   115 000000C1 6A 11                           	PUSH	17
   116 000000C3 6A 20                           	PUSH	32
   117 000000C5 E8 [00000000]                   	CALL	_io_out8
   118 000000CA 6A 20                           	PUSH	32
   119 000000CC 6A 21                           	PUSH	33
   120 000000CE E8 [00000000]                   	CALL	_io_out8
   121 000000D3 83 C4 20                        	ADD	ESP,32
   122 000000D6 6A 04                           	PUSH	4
   123 000000D8 6A 21                           	PUSH	33
   124 000000DA E8 [00000000]                   	CALL	_io_out8
   125 000000DF 6A 01                           	PUSH	1
   126 000000E1 6A 21                           	PUSH	33
   127 000000E3 E8 [00000000]                   	CALL	_io_out8
   128 000000E8 6A 11                           	PUSH	17
   129 000000EA 68 000000A0                     	PUSH	160
   130 000000EF E8 [00000000]                   	CALL	_io_out8
   131 000000F4 6A 28                           	PUSH	40
   132 000000F6 68 000000A1                     	PUSH	161
   133 000000FB E8 [00000000]                   	CALL	_io_out8
   134 00000100 83 C4 20                        	ADD	ESP,32
   135 00000103 6A 02                           	PUSH	2
   136 00000105 68 000000A1                     	PUSH	161
   137 0000010A E8 [00000000]                   	CALL	_io_out8
   138 0000010F 6A 01                           	PUSH	1
   139 00000111 68 000000A1                     	PUSH	161
   140 00000116 E8 [00000000]                   	CALL	_io_out8
   141 0000011B 68 000000FB                     	PUSH	251
   142 00000120 6A 21                           	PUSH	33
   143 00000122 E8 [00000000]                   	CALL	_io_out8
   144 00000127 68 000000FF                     	PUSH	255
   145 0000012C 68 000000A1                     	PUSH	161
   146 00000131 E8 [00000000]                   	CALL	_io_out8
   147 00000136 C9                              	LEAVE
   148 00000137 C3                              	RET
   149 00000138                                 	GLOBAL	_interruptHandler21
   150 00000138                                 _interruptHandler21:
   151 00000138 55                              	PUSH	EBP
   152 00000139 89 E5                           	MOV	EBP,ESP
   153 0000013B 6A 61                           	PUSH	97
   154 0000013D 6A 20                           	PUSH	32
   155 0000013F E8 [00000000]                   	CALL	_io_out8
   156 00000144 6A 60                           	PUSH	96
   157 00000146 E8 [00000000]                   	CALL	_io_in8
   158 0000014B 0F B6 C0                        	MOVZX	EAX,AL
   159 0000014E 50                              	PUSH	EAX
   160 0000014F 68 [00000270]                   	PUSH	_keybuf
   161 00000154 E8 FFFFFED2                     	CALL	_QueuePush
   162 00000159 C9                              	LEAVE
   163 0000015A C3                              	RET
   164 0000015B                                 	GLOBAL	_interruptHandler27
   165 0000015B                                 _interruptHandler27:
   166 0000015B 55                              	PUSH	EBP
   167 0000015C 89 E5                           	MOV	EBP,ESP
   168 0000015E 6A 67                           	PUSH	103
   169 00000160 6A 20                           	PUSH	32
   170 00000162 E8 [00000000]                   	CALL	_io_out8
   171 00000167 C9                              	LEAVE
   172 00000168 C3                              	RET
   173 00000169                                 	GLOBAL	_interruptHandler2c
   174 00000169                                 _interruptHandler2c:
   175 00000169 55                              	PUSH	EBP
   176 0000016A 89 E5                           	MOV	EBP,ESP
   177 0000016C 6A 64                           	PUSH	100
   178 0000016E 68 000000A0                     	PUSH	160
   179 00000173 E8 [00000000]                   	CALL	_io_out8
   180 00000178 6A 62                           	PUSH	98
   181 0000017A 6A 20                           	PUSH	32
   182 0000017C E8 [00000000]                   	CALL	_io_out8
   183 00000181 6A 60                           	PUSH	96
   184 00000183 E8 [00000000]                   	CALL	_io_in8
   185 00000188 0F B6 C0                        	MOVZX	EAX,AL
   186 0000018B 50                              	PUSH	EAX
   187 0000018C 68 [00000290]                   	PUSH	_mousebuf
   188 00000191 E8 FFFFFE95                     	CALL	_QueuePush
   189 00000196 C9                              	LEAVE
   190 00000197 C3                              	RET
   191 00000198                                 	GLOBAL	_setSegmdesc
   192 00000198                                 _setSegmdesc:
   193 00000198 55                              	PUSH	EBP
   194 00000199 89 E5                           	MOV	EBP,ESP
   195 0000019B 53                              	PUSH	EBX
   196 0000019C 8B 55 0C                        	MOV	EDX,DWORD [12+EBP]
   197 0000019F 8B 4D 10                        	MOV	ECX,DWORD [16+EBP]
   198 000001A2 8B 5D 08                        	MOV	EBX,DWORD [8+EBP]
   199 000001A5 8B 45 14                        	MOV	EAX,DWORD [20+EBP]
   200 000001A8 81 FA 000FFFFF                  	CMP	EDX,1048575
   201 000001AE 76 08                           	JBE	L12
   202 000001B0 C1 EA 0C                        	SHR	EDX,12
   203 000001B3 0D 00008000                     	OR	EAX,32768
   204 000001B8                                 L12:
   205 000001B8 66 89 13                        	MOV	WORD [EBX],DX
   206 000001BB 88 43 05                        	MOV	BYTE [5+EBX],AL
   207 000001BE C1 EA 10                        	SHR	EDX,16
   208 000001C1 C1 F8 08                        	SAR	EAX,8
   209 000001C4 83 E2 0F                        	AND	EDX,15
   210 000001C7 66 89 4B 02                     	MOV	WORD [2+EBX],CX
   211 000001CB 83 E0 F0                        	AND	EAX,-16
   212 000001CE C1 F9 10                        	SAR	ECX,16
   213 000001D1 09 C2                           	OR	EDX,EAX
   214 000001D3 88 4B 04                        	MOV	BYTE [4+EBX],CL
   215 000001D6 88 53 06                        	MOV	BYTE [6+EBX],DL
   216 000001D9 C1 F9 08                        	SAR	ECX,8
   217 000001DC 88 4B 07                        	MOV	BYTE [7+EBX],CL
   218 000001DF 5B                              	POP	EBX
   219 000001E0 5D                              	POP	EBP
   220 000001E1 C3                              	RET
   221 000001E2                                 	GLOBAL	_setGatedesc
   222 000001E2                                 _setGatedesc:
   223 000001E2 55                              	PUSH	EBP
   224 000001E3 89 E5                           	MOV	EBP,ESP
   225 000001E5 53                              	PUSH	EBX
   226 000001E6 8B 55 08                        	MOV	EDX,DWORD [8+EBP]
   227 000001E9 8B 45 10                        	MOV	EAX,DWORD [16+EBP]
   228 000001EC 8B 5D 14                        	MOV	EBX,DWORD [20+EBP]
   229 000001EF 8B 4D 0C                        	MOV	ECX,DWORD [12+EBP]
   230 000001F2 66 89 42 02                     	MOV	WORD [2+EDX],AX
   231 000001F6 88 5A 05                        	MOV	BYTE [5+EDX],BL
   232 000001F9 66 89 0A                        	MOV	WORD [EDX],CX
   233 000001FC 89 D8                           	MOV	EAX,EBX
   234 000001FE C1 F8 08                        	SAR	EAX,8
   235 00000201 C1 F9 10                        	SAR	ECX,16
   236 00000204 88 42 04                        	MOV	BYTE [4+EDX],AL
   237 00000207 66 89 4A 06                     	MOV	WORD [6+EDX],CX
   238 0000020B 5B                              	POP	EBX
   239 0000020C 5D                              	POP	EBP
   240 0000020D C3                              	RET
   241 0000020E                                 	GLOBAL	_initGdtit
   242 0000020E                                 _initGdtit:
   243 0000020E 55                              	PUSH	EBP
   244 0000020F 89 E5                           	MOV	EBP,ESP
   245 00000211 56                              	PUSH	ESI
   246 00000212 53                              	PUSH	EBX
   247 00000213 BE 00270000                     	MOV	ESI,2555904
   248 00000218 BB 00001FFF                     	MOV	EBX,8191
   249 0000021D                                 L19:
   250 0000021D 6A 00                           	PUSH	0
   251 0000021F 6A 00                           	PUSH	0
   252 00000221 6A 00                           	PUSH	0
   253 00000223 56                              	PUSH	ESI
   254 00000224 83 C6 08                        	ADD	ESI,8
   255 00000227 E8 FFFFFF6C                     	CALL	_setSegmdesc
   256 0000022C 83 C4 10                        	ADD	ESP,16
   257 0000022F 4B                              	DEC	EBX
   258 00000230 79 EB                           	JNS	L19
   259 00000232 68 00004092                     	PUSH	16530
   260 00000237 BE 0026F800                     	MOV	ESI,2553856
   261 0000023C 6A 00                           	PUSH	0
   262 0000023E BB 000000FF                     	MOV	EBX,255
   263 00000243 6A FF                           	PUSH	-1
   264 00000245 68 00270008                     	PUSH	2555912
   265 0000024A E8 FFFFFF49                     	CALL	_setSegmdesc
   266 0000024F 68 0000409A                     	PUSH	16538
   267 00000254 68 00280000                     	PUSH	2621440
   268 00000259 68 0007FFFF                     	PUSH	524287
   269 0000025E 68 00270010                     	PUSH	2555920
   270 00000263 E8 FFFFFF30                     	CALL	_setSegmdesc
   271 00000268 83 C4 20                        	ADD	ESP,32
   272 0000026B 68 00270000                     	PUSH	2555904
   273 00000270 68 0000FFFF                     	PUSH	65535
   274 00000275 E8 [00000000]                   	CALL	_loadGdtr
   275 0000027A 58                              	POP	EAX
   276 0000027B 5A                              	POP	EDX
   277 0000027C                                 L24:
   278 0000027C 6A 00                           	PUSH	0
   279 0000027E 6A 00                           	PUSH	0
   280 00000280 6A 00                           	PUSH	0
   281 00000282 56                              	PUSH	ESI
   282 00000283 83 C6 08                        	ADD	ESI,8
   283 00000286 E8 FFFFFF57                     	CALL	_setGatedesc
   284 0000028B 83 C4 10                        	ADD	ESP,16
   285 0000028E 4B                              	DEC	EBX
   286 0000028F 79 EB                           	JNS	L24
   287 00000291 68 0026F800                     	PUSH	2553856
   288 00000296 68 000007FF                     	PUSH	2047
   289 0000029B E8 [00000000]                   	CALL	_loadIdtr
   290 000002A0 68 0000008E                     	PUSH	142
   291 000002A5 6A 10                           	PUSH	16
   292 000002A7 68 [00000000]                   	PUSH	_asm_interruptHandler20
   293 000002AC 68 0026F900                     	PUSH	2554112
   294 000002B1 E8 FFFFFF2C                     	CALL	_setGatedesc
   295 000002B6 68 0000008E                     	PUSH	142
   296 000002BB 6A 10                           	PUSH	16
   297 000002BD 68 [00000000]                   	PUSH	_asm_interruptHandler21
   298 000002C2 68 0026F908                     	PUSH	2554120
   299 000002C7 E8 FFFFFF16                     	CALL	_setGatedesc
   300 000002CC 83 C4 28                        	ADD	ESP,40
   301 000002CF 68 0000008E                     	PUSH	142
   302 000002D4 6A 10                           	PUSH	16
   303 000002D6 68 [00000000]                   	PUSH	_asm_interruptHandler27
   304 000002DB 68 0026F938                     	PUSH	2554168
   305 000002E0 E8 FFFFFEFD                     	CALL	_setGatedesc
   306 000002E5 68 0000008E                     	PUSH	142
   307 000002EA 6A 10                           	PUSH	16
   308 000002EC 68 [00000000]                   	PUSH	_asm_interruptHandler2c
   309 000002F1 68 0026F960                     	PUSH	2554208
   310 000002F6 E8 FFFFFEE7                     	CALL	_setGatedesc
   311 000002FB 8D 65 F8                        	LEA	ESP,DWORD [-8+EBP]
   312 000002FE 5B                              	POP	EBX
   313 000002FF 5E                              	POP	ESI
   314 00000300 5D                              	POP	EBP
   315 00000301 C3                              	RET
   316 00000302                                 	GLOBAL	_set_palette
   317 00000302                                 _set_palette:
   318 00000302 55                              	PUSH	EBP
   319 00000303 89 E5                           	MOV	EBP,ESP
   320 00000305 57                              	PUSH	EDI
   321 00000306 56                              	PUSH	ESI
   322 00000307 53                              	PUSH	EBX
   323 00000308 50                              	PUSH	EAX
   324 00000309 8B 5D 08                        	MOV	EBX,DWORD [8+EBP]
   325 0000030C 8B 7D 0C                        	MOV	EDI,DWORD [12+EBP]
   326 0000030F 8B 75 10                        	MOV	ESI,DWORD [16+EBP]
   327 00000312 E8 [00000000]                   	CALL	_io_load_eflags
   328 00000317 89 45 F0                        	MOV	DWORD [-16+EBP],EAX
   329 0000031A E8 [00000000]                   	CALL	_io_cli
   330 0000031F 53                              	PUSH	EBX
   331 00000320 68 000003C8                     	PUSH	968
   332 00000325 E8 [00000000]                   	CALL	_io_out8
   333 0000032A 39 FB                           	CMP	EBX,EDI
   334 0000032C 59                              	POP	ECX
   335 0000032D 58                              	POP	EAX
   336 0000032E 7D 48                           	JGE	L36
   337 00000330 29 DF                           	SUB	EDI,EBX
   338 00000332 89 FB                           	MOV	EBX,EDI
   339 00000334                                 L34:
   340 00000334 8A 06                           	MOV	AL,BYTE [ESI]
   341 00000336 C0 E8 02                        	SHR	AL,2
   342 00000339 0F B6 C0                        	MOVZX	EAX,AL
   343 0000033C 50                              	PUSH	EAX
   344 0000033D 68 000003C9                     	PUSH	969
   345 00000342 E8 [00000000]                   	CALL	_io_out8
   346 00000347 8A 46 01                        	MOV	AL,BYTE [1+ESI]
   347 0000034A C0 E8 02                        	SHR	AL,2
   348 0000034D 0F B6 C0                        	MOVZX	EAX,AL
   349 00000350 50                              	PUSH	EAX
   350 00000351 68 000003C9                     	PUSH	969
   351 00000356 E8 [00000000]                   	CALL	_io_out8
   352 0000035B 8A 46 02                        	MOV	AL,BYTE [2+ESI]
   353 0000035E C0 E8 02                        	SHR	AL,2
   354 00000361 83 C6 03                        	ADD	ESI,3
   355 00000364 0F B6 C0                        	MOVZX	EAX,AL
   356 00000367 50                              	PUSH	EAX
   357 00000368 68 000003C9                     	PUSH	969
   358 0000036D E8 [00000000]                   	CALL	_io_out8
   359 00000372 83 C4 18                        	ADD	ESP,24
   360 00000375 4B                              	DEC	EBX
   361 00000376 75 BC                           	JNE	L34
   362 00000378                                 L36:
   363 00000378 8B 45 F0                        	MOV	EAX,DWORD [-16+EBP]
   364 0000037B 89 45 08                        	MOV	DWORD [8+EBP],EAX
   365 0000037E 8D 65 F4                        	LEA	ESP,DWORD [-12+EBP]
   366 00000381 5B                              	POP	EBX
   367 00000382 5E                              	POP	ESI
   368 00000383 5F                              	POP	EDI
   369 00000384 5D                              	POP	EBP
   370 00000385 E9 [00000000]                   	JMP	_io_store_eflags
   371                                          [SECTION .data]
   372 00000000                                 _table_rgb.0:
   373 00000000 00                              	DB	0
   374 00000001 00                              	DB	0
   375 00000002 00                              	DB	0
   376 00000003 FF                              	DB	-1
   377 00000004 00                              	DB	0
   378 00000005 00                              	DB	0
   379 00000006 00                              	DB	0
   380 00000007 FF                              	DB	-1
   381 00000008 00                              	DB	0
   382 00000009 FF                              	DB	-1
   383 0000000A FF                              	DB	-1
   384 0000000B 00                              	DB	0
   385 0000000C 00                              	DB	0
   386 0000000D 00                              	DB	0
   387 0000000E FF                              	DB	-1
   388 0000000F FF                              	DB	-1
   389 00000010 00                              	DB	0
   390 00000011 FF                              	DB	-1
   391 00000012 00                              	DB	0
   392 00000013 FF                              	DB	-1
   393 00000014 FF                              	DB	-1
   394 00000015 FF                              	DB	-1
   395 00000016 FF                              	DB	-1
   396 00000017 FF                              	DB	-1
   397 00000018 C6                              	DB	-58
   398 00000019 C6                              	DB	-58
   399 0000001A C6                              	DB	-58
   400 0000001B 84                              	DB	-124
   401 0000001C 00                              	DB	0
   402 0000001D 00                              	DB	0
   403 0000001E 00                              	DB	0
   404 0000001F 84                              	DB	-124
   405 00000020 00                              	DB	0
   406 00000021 84                              	DB	-124
   407 00000022 84                              	DB	-124
   408 00000023 00                              	DB	0
   409 00000024 00                              	DB	0
   410 00000025 00                              	DB	0
   411 00000026 84                              	DB	-124
   412 00000027 84                              	DB	-124
   413 00000028 00                              	DB	0
   414 00000029 84                              	DB	-124
   415 0000002A 00                              	DB	0
   416 0000002B 84                              	DB	-124
   417 0000002C 84                              	DB	-124
   418 0000002D 84                              	DB	-124
   419 0000002E 84                              	DB	-124
   420 0000002F 84                              	DB	-124
   421                                          [SECTION .text]
   422 0000038A                                 	GLOBAL	_init_palette
   423 0000038A                                 _init_palette:
   424 0000038A 55                              	PUSH	EBP
   425 0000038B 89 E5                           	MOV	EBP,ESP
   426 0000038D 68 [00000000]                   	PUSH	_table_rgb.0
   427 00000392 6A 0F                           	PUSH	15
   428 00000394 6A 00                           	PUSH	0
   429 00000396 E8 FFFFFF67                     	CALL	_set_palette
   430 0000039B C9                              	LEAVE
   431 0000039C C3                              	RET
   432 0000039D                                 	GLOBAL	_boxFill8
   433 0000039D                                 _boxFill8:
   434 0000039D 55                              	PUSH	EBP
   435 0000039E 89 E5                           	MOV	EBP,ESP
   436 000003A0 57                              	PUSH	EDI
   437 000003A1 56                              	PUSH	ESI
   438 000003A2 53                              	PUSH	EBX
   439 000003A3 51                              	PUSH	ECX
   440 000003A4 51                              	PUSH	ECX
   441 000003A5 8A 45 10                        	MOV	AL,BYTE [16+EBP]
   442 000003A8 8B 4D 18                        	MOV	ECX,DWORD [24+EBP]
   443 000003AB 8B 7D 1C                        	MOV	EDI,DWORD [28+EBP]
   444 000003AE 88 45 F3                        	MOV	BYTE [-13+EBP],AL
   445 000003B1 3B 4D 20                        	CMP	ECX,DWORD [32+EBP]
   446 000003B4 7F 31                           	JG	L50
   447 000003B6 8B 5D 0C                        	MOV	EBX,DWORD [12+EBP]
   448 000003B9 0F AF D9                        	IMUL	EBX,ECX
   449 000003BC                                 L48:
   450 000003BC 8B 55 14                        	MOV	EDX,DWORD [20+EBP]
   451 000003BF 39 FA                           	CMP	EDX,EDI
   452 000003C1 7F 1B                           	JG	L52
   453 000003C3 8B 75 08                        	MOV	ESI,DWORD [8+EBP]
   454 000003C6 01 DE                           	ADD	ESI,EBX
   455 000003C8 01 D6                           	ADD	ESI,EDX
   456 000003CA 89 75 EC                        	MOV	DWORD [-20+EBP],ESI
   457 000003CD                                 L47:
   458 000003CD 8B 75 EC                        	MOV	ESI,DWORD [-20+EBP]
   459 000003D0 8A 45 F3                        	MOV	AL,BYTE [-13+EBP]
   460 000003D3 42                              	INC	EDX
   461 000003D4 88 06                           	MOV	BYTE [ESI],AL
   462 000003D6 46                              	INC	ESI
   463 000003D7 89 75 EC                        	MOV	DWORD [-20+EBP],ESI
   464 000003DA 39 FA                           	CMP	EDX,EDI
   465 000003DC 7E EF                           	JLE	L47
   466 000003DE                                 L52:
   467 000003DE 41                              	INC	ECX
   468 000003DF 03 5D 0C                        	ADD	EBX,DWORD [12+EBP]
   469 000003E2 3B 4D 20                        	CMP	ECX,DWORD [32+EBP]
   470 000003E5 7E D5                           	JLE	L48
   471 000003E7                                 L50:
   472 000003E7 58                              	POP	EAX
   473 000003E8 5A                              	POP	EDX
   474 000003E9 5B                              	POP	EBX
   475 000003EA 5E                              	POP	ESI
   476 000003EB 5F                              	POP	EDI
   477 000003EC 5D                              	POP	EBP
   478 000003ED C3                              	RET
   479 000003EE                                 	GLOBAL	_init_GUI
   480 000003EE                                 _init_GUI:
   481 000003EE 55                              	PUSH	EBP
   482 000003EF 89 E5                           	MOV	EBP,ESP
   483 000003F1 57                              	PUSH	EDI
   484 000003F2 56                              	PUSH	ESI
   485 000003F3 53                              	PUSH	EBX
   486 000003F4 83 EC 0C                        	SUB	ESP,12
   487 000003F7 8B 45 10                        	MOV	EAX,DWORD [16+EBP]
   488 000003FA 8B 7D 0C                        	MOV	EDI,DWORD [12+EBP]
   489 000003FD 83 E8 1D                        	SUB	EAX,29
   490 00000400 4F                              	DEC	EDI
   491 00000401 50                              	PUSH	EAX
   492 00000402 57                              	PUSH	EDI
   493 00000403 6A 00                           	PUSH	0
   494 00000405 6A 00                           	PUSH	0
   495 00000407 6A 0E                           	PUSH	14
   496 00000409 FF 75 0C                        	PUSH	DWORD [12+EBP]
   497 0000040C FF 75 08                        	PUSH	DWORD [8+EBP]
   498 0000040F E8 FFFFFF89                     	CALL	_boxFill8
   499 00000414 8B 45 10                        	MOV	EAX,DWORD [16+EBP]
   500 00000417 83 E8 1C                        	SUB	EAX,28
   501 0000041A 50                              	PUSH	EAX
   502 0000041B 57                              	PUSH	EDI
   503 0000041C 50                              	PUSH	EAX
   504 0000041D 6A 00                           	PUSH	0
   505 0000041F 6A 08                           	PUSH	8
   506 00000421 FF 75 0C                        	PUSH	DWORD [12+EBP]
   507 00000424 FF 75 08                        	PUSH	DWORD [8+EBP]
   508 00000427 E8 FFFFFF71                     	CALL	_boxFill8
   509 0000042C 8B 45 10                        	MOV	EAX,DWORD [16+EBP]
   510 0000042F 83 C4 38                        	ADD	ESP,56
   511 00000432 83 E8 1B                        	SUB	EAX,27
   512 00000435 50                              	PUSH	EAX
   513 00000436 57                              	PUSH	EDI
   514 00000437 50                              	PUSH	EAX
   515 00000438 6A 00                           	PUSH	0
   516 0000043A 6A 07                           	PUSH	7
   517 0000043C FF 75 0C                        	PUSH	DWORD [12+EBP]
   518 0000043F FF 75 08                        	PUSH	DWORD [8+EBP]
   519 00000442 E8 FFFFFF56                     	CALL	_boxFill8
   520 00000447 8B 45 10                        	MOV	EAX,DWORD [16+EBP]
   521 0000044A 48                              	DEC	EAX
   522 0000044B 50                              	PUSH	EAX
   523 0000044C 8B 45 10                        	MOV	EAX,DWORD [16+EBP]
   524 0000044F 57                              	PUSH	EDI
   525 00000450 83 E8 1A                        	SUB	EAX,26
   526 00000453 50                              	PUSH	EAX
   527 00000454 6A 00                           	PUSH	0
   528 00000456 6A 08                           	PUSH	8
   529 00000458 FF 75 0C                        	PUSH	DWORD [12+EBP]
   530 0000045B FF 75 08                        	PUSH	DWORD [8+EBP]
   531 0000045E E8 FFFFFF3A                     	CALL	_boxFill8
   532 00000463 8B 75 10                        	MOV	ESI,DWORD [16+EBP]
   533 00000466 83 C4 38                        	ADD	ESP,56
   534 00000469 83 EE 18                        	SUB	ESI,24
   535 0000046C 56                              	PUSH	ESI
   536 0000046D 6A 3B                           	PUSH	59
   537 0000046F 56                              	PUSH	ESI
   538 00000470 6A 03                           	PUSH	3
   539 00000472 6A 07                           	PUSH	7
   540 00000474 FF 75 0C                        	PUSH	DWORD [12+EBP]
   541 00000477 FF 75 08                        	PUSH	DWORD [8+EBP]
   542 0000047A E8 FFFFFF1E                     	CALL	_boxFill8
   543 0000047F 8B 45 10                        	MOV	EAX,DWORD [16+EBP]
   544 00000482 83 E8 04                        	SUB	EAX,4
   545 00000485 50                              	PUSH	EAX
   546 00000486 89 45 F0                        	MOV	DWORD [-16+EBP],EAX
   547 00000489 6A 02                           	PUSH	2
   548 0000048B 56                              	PUSH	ESI
   549 0000048C 6A 02                           	PUSH	2
   550 0000048E 6A 07                           	PUSH	7
   551 00000490 FF 75 0C                        	PUSH	DWORD [12+EBP]
   552 00000493 FF 75 08                        	PUSH	DWORD [8+EBP]
   553 00000496 E8 FFFFFF02                     	CALL	_boxFill8
   554 0000049B 83 C4 38                        	ADD	ESP,56
   555 0000049E FF 75 F0                        	PUSH	DWORD [-16+EBP]
   556 000004A1 6A 3B                           	PUSH	59
   557 000004A3 FF 75 F0                        	PUSH	DWORD [-16+EBP]
   558 000004A6 6A 03                           	PUSH	3
   559 000004A8 6A 0F                           	PUSH	15
   560 000004AA FF 75 0C                        	PUSH	DWORD [12+EBP]
   561 000004AD FF 75 08                        	PUSH	DWORD [8+EBP]
   562 000004B0 E8 FFFFFEE8                     	CALL	_boxFill8
   563 000004B5 8B 45 10                        	MOV	EAX,DWORD [16+EBP]
   564 000004B8 83 E8 05                        	SUB	EAX,5
   565 000004BB 50                              	PUSH	EAX
   566 000004BC 8B 45 10                        	MOV	EAX,DWORD [16+EBP]
   567 000004BF 6A 3B                           	PUSH	59
   568 000004C1 83 E8 17                        	SUB	EAX,23
   569 000004C4 50                              	PUSH	EAX
   570 000004C5 89 45 EC                        	MOV	DWORD [-20+EBP],EAX
   571 000004C8 6A 3B                           	PUSH	59
   572 000004CA 6A 0F                           	PUSH	15
   573 000004CC FF 75 0C                        	PUSH	DWORD [12+EBP]
   574 000004CF FF 75 08                        	PUSH	DWORD [8+EBP]
   575 000004D2 E8 FFFFFEC6                     	CALL	_boxFill8
   576 000004D7 8B 45 10                        	MOV	EAX,DWORD [16+EBP]
   577 000004DA 83 C4 38                        	ADD	ESP,56
   578 000004DD 83 E8 03                        	SUB	EAX,3
   579 000004E0 89 45 E8                        	MOV	DWORD [-24+EBP],EAX
   580 000004E3 50                              	PUSH	EAX
   581 000004E4 6A 3B                           	PUSH	59
   582 000004E6 50                              	PUSH	EAX
   583 000004E7 6A 02                           	PUSH	2
   584 000004E9 6A 00                           	PUSH	0
   585 000004EB FF 75 0C                        	PUSH	DWORD [12+EBP]
   586 000004EE FF 75 08                        	PUSH	DWORD [8+EBP]
   587 000004F1 E8 FFFFFEA7                     	CALL	_boxFill8
   588 000004F6 FF 75 E8                        	PUSH	DWORD [-24+EBP]
   589 000004F9 6A 3C                           	PUSH	60
   590 000004FB 56                              	PUSH	ESI
   591 000004FC 6A 3C                           	PUSH	60
   592 000004FE 6A 00                           	PUSH	0
   593 00000500 FF 75 0C                        	PUSH	DWORD [12+EBP]
   594 00000503 FF 75 08                        	PUSH	DWORD [8+EBP]
   595 00000506 E8 FFFFFE92                     	CALL	_boxFill8
   596 0000050B 8B 7D 0C                        	MOV	EDI,DWORD [12+EBP]
   597 0000050E 83 C4 38                        	ADD	ESP,56
   598 00000511 8B 5D 0C                        	MOV	EBX,DWORD [12+EBP]
   599 00000514 83 EB 04                        	SUB	EBX,4
   600 00000517 83 EF 2F                        	SUB	EDI,47
   601 0000051A 56                              	PUSH	ESI
   602 0000051B 53                              	PUSH	EBX
   603 0000051C 56                              	PUSH	ESI
   604 0000051D 57                              	PUSH	EDI
   605 0000051E 6A 0F                           	PUSH	15
   606 00000520 FF 75 0C                        	PUSH	DWORD [12+EBP]
   607 00000523 FF 75 08                        	PUSH	DWORD [8+EBP]
   608 00000526 E8 FFFFFE72                     	CALL	_boxFill8
   609 0000052B FF 75 F0                        	PUSH	DWORD [-16+EBP]
   610 0000052E 57                              	PUSH	EDI
   611 0000052F FF 75 EC                        	PUSH	DWORD [-20+EBP]
   612 00000532 57                              	PUSH	EDI
   613 00000533 6A 0F                           	PUSH	15
   614 00000535 FF 75 0C                        	PUSH	DWORD [12+EBP]
   615 00000538 FF 75 08                        	PUSH	DWORD [8+EBP]
   616 0000053B E8 FFFFFE5D                     	CALL	_boxFill8
   617 00000540 83 C4 38                        	ADD	ESP,56
   618 00000543 FF 75 E8                        	PUSH	DWORD [-24+EBP]
   619 00000546 53                              	PUSH	EBX
   620 00000547 FF 75 E8                        	PUSH	DWORD [-24+EBP]
   621 0000054A 57                              	PUSH	EDI
   622 0000054B 6A 07                           	PUSH	7
   623 0000054D FF 75 0C                        	PUSH	DWORD [12+EBP]
   624 00000550 FF 75 08                        	PUSH	DWORD [8+EBP]
   625 00000553 E8 FFFFFE45                     	CALL	_boxFill8
   626 00000558 8B 45 0C                        	MOV	EAX,DWORD [12+EBP]
   627 0000055B FF 75 E8                        	PUSH	DWORD [-24+EBP]
   628 0000055E 83 E8 03                        	SUB	EAX,3
   629 00000561 50                              	PUSH	EAX
   630 00000562 56                              	PUSH	ESI
   631 00000563 50                              	PUSH	EAX
   632 00000564 6A 07                           	PUSH	7
   633 00000566 FF 75 0C                        	PUSH	DWORD [12+EBP]
   634 00000569 FF 75 08                        	PUSH	DWORD [8+EBP]
   635 0000056C E8 FFFFFE2C                     	CALL	_boxFill8
   636 00000571 8D 65 F4                        	LEA	ESP,DWORD [-12+EBP]
   637 00000574 5B                              	POP	EBX
   638 00000575 5E                              	POP	ESI
   639 00000576 5F                              	POP	EDI
   640 00000577 5D                              	POP	EBP
   641 00000578 C3                              	RET
   642 00000579                                 	GLOBAL	_putFont8
   643 00000579                                 _putFont8:
   644 00000579 55                              	PUSH	EBP
   645 0000057A 89 E5                           	MOV	EBP,ESP
   646 0000057C 57                              	PUSH	EDI
   647 0000057D 56                              	PUSH	ESI
   648 0000057E 31 F6                           	XOR	ESI,ESI
   649 00000580 53                              	PUSH	EBX
   650 00000581 8B 7D 1C                        	MOV	EDI,DWORD [28+EBP]
   651 00000584 8A 5D 18                        	MOV	BL,BYTE [24+EBP]
   652 00000587                                 L67:
   653 00000587 8B 45 14                        	MOV	EAX,DWORD [20+EBP]
   654 0000058A 8B 55 10                        	MOV	EDX,DWORD [16+EBP]
   655 0000058D 01 F0                           	ADD	EAX,ESI
   656 0000058F 0F AF 45 0C                     	IMUL	EAX,DWORD [12+EBP]
   657 00000593 03 45 08                        	ADD	EAX,DWORD [8+EBP]
   658 00000596 8D 0C 02                        	LEA	ECX,DWORD [EDX+EAX*1]
   659 00000599 8A 14 3E                        	MOV	DL,BYTE [ESI+EDI*1]
   660 0000059C 84 D2                           	TEST	DL,DL
   661 0000059E 79 02                           	JNS	L59
   662 000005A0 88 19                           	MOV	BYTE [ECX],BL
   663 000005A2                                 L59:
   664 000005A2 88 D0                           	MOV	AL,DL
   665 000005A4 83 E0 40                        	AND	EAX,64
   666 000005A7 84 C0                           	TEST	AL,AL
   667 000005A9 74 03                           	JE	L60
   668 000005AB 88 59 01                        	MOV	BYTE [1+ECX],BL
   669 000005AE                                 L60:
   670 000005AE 88 D0                           	MOV	AL,DL
   671 000005B0 83 E0 20                        	AND	EAX,32
   672 000005B3 84 C0                           	TEST	AL,AL
   673 000005B5 74 03                           	JE	L61
   674 000005B7 88 59 02                        	MOV	BYTE [2+ECX],BL
   675 000005BA                                 L61:
   676 000005BA 88 D0                           	MOV	AL,DL
   677 000005BC 83 E0 10                        	AND	EAX,16
   678 000005BF 84 C0                           	TEST	AL,AL
   679 000005C1 74 03                           	JE	L62
   680 000005C3 88 59 03                        	MOV	BYTE [3+ECX],BL
   681 000005C6                                 L62:
   682 000005C6 88 D0                           	MOV	AL,DL
   683 000005C8 83 E0 08                        	AND	EAX,8
   684 000005CB 84 C0                           	TEST	AL,AL
   685 000005CD 74 03                           	JE	L63
   686 000005CF 88 59 04                        	MOV	BYTE [4+ECX],BL
   687 000005D2                                 L63:
   688 000005D2 88 D0                           	MOV	AL,DL
   689 000005D4 83 E0 04                        	AND	EAX,4
   690 000005D7 84 C0                           	TEST	AL,AL
   691 000005D9 74 03                           	JE	L64
   692 000005DB 88 59 05                        	MOV	BYTE [5+ECX],BL
   693 000005DE                                 L64:
   694 000005DE 88 D0                           	MOV	AL,DL
   695 000005E0 83 E0 02                        	AND	EAX,2
   696 000005E3 84 C0                           	TEST	AL,AL
   697 000005E5 74 03                           	JE	L65
   698 000005E7 88 59 06                        	MOV	BYTE [6+ECX],BL
   699 000005EA                                 L65:
   700 000005EA 83 E2 01                        	AND	EDX,1
   701 000005ED 84 D2                           	TEST	DL,DL
   702 000005EF 74 03                           	JE	L57
   703 000005F1 88 59 07                        	MOV	BYTE [7+ECX],BL
   704 000005F4                                 L57:
   705 000005F4 46                              	INC	ESI
   706 000005F5 83 FE 0F                        	CMP	ESI,15
   707 000005F8 7E 8D                           	JLE	L67
   708 000005FA 5B                              	POP	EBX
   709 000005FB 5E                              	POP	ESI
   710 000005FC 5F                              	POP	EDI
   711 000005FD 5D                              	POP	EBP
   712 000005FE C3                              	RET
   713 000005FF                                 	GLOBAL	_putFont8_asc
   714 000005FF                                 _putFont8_asc:
   715 000005FF 55                              	PUSH	EBP
   716 00000600 89 E5                           	MOV	EBP,ESP
   717 00000602 57                              	PUSH	EDI
   718 00000603 56                              	PUSH	ESI
   719 00000604 53                              	PUSH	EBX
   720 00000605 53                              	PUSH	EBX
   721 00000606 8B 5D 1C                        	MOV	EBX,DWORD [28+EBP]
   722 00000609 8A 45 18                        	MOV	AL,BYTE [24+EBP]
   723 0000060C 88 45 F3                        	MOV	BYTE [-13+EBP],AL
   724 0000060F 8B 75 10                        	MOV	ESI,DWORD [16+EBP]
   725 00000612 8B 7D 14                        	MOV	EDI,DWORD [20+EBP]
   726 00000615 80 3B 00                        	CMP	BYTE [EBX],0
   727 00000618 75 08                           	JNE	L75
   728 0000061A                                 L77:
   729 0000061A 8D 65 F4                        	LEA	ESP,DWORD [-12+EBP]
   730 0000061D 5B                              	POP	EBX
   731 0000061E 5E                              	POP	ESI
   732 0000061F 5F                              	POP	EDI
   733 00000620 5D                              	POP	EBP
   734 00000621 C3                              	RET
   735 00000622                                 L75:
   736 00000622 0F B6 03                        	MOVZX	EAX,BYTE [EBX]
   737 00000625 C1 E0 04                        	SAL	EAX,4
   738 00000628 43                              	INC	EBX
   739 00000629 05 [00000000]                   	ADD	EAX,_font
   740 0000062E 50                              	PUSH	EAX
   741 0000062F 0F BE 45 F3                     	MOVSX	EAX,BYTE [-13+EBP]
   742 00000633 50                              	PUSH	EAX
   743 00000634 57                              	PUSH	EDI
   744 00000635 56                              	PUSH	ESI
   745 00000636 83 C6 08                        	ADD	ESI,8
   746 00000639 FF 75 0C                        	PUSH	DWORD [12+EBP]
   747 0000063C FF 75 08                        	PUSH	DWORD [8+EBP]
   748 0000063F E8 FFFFFF35                     	CALL	_putFont8
   749 00000644 83 C4 18                        	ADD	ESP,24
   750 00000647 80 3B 00                        	CMP	BYTE [EBX],0
   751 0000064A 75 D6                           	JNE	L75
   752 0000064C EB CC                           	JMP	L77
   753                                          [SECTION .data]
   754 00000030                                 _cursor.1:
   755 00000030 2A 2E 2E 2E 2E 2E 2E 2E 2E 2E   	DB	"*..............."
       0000003A 2E 2E 2E 2E 2E 2E 
   756 00000040 2A 2A 2E 2E 2E 2E 2E 2E 2E 2E   	DB	"**.............."
       0000004A 2E 2E 2E 2E 2E 2E 
   757 00000050 2A 4F 2A 2E 2E 2E 2E 2E 2E 2E   	DB	"*O*............."
       0000005A 2E 2E 2E 2E 2E 2E 
   758 00000060 2A 4F 4F 2A 2E 2E 2E 2E 2E 2E   	DB	"*OO*............"
       0000006A 2E 2E 2E 2E 2E 2E 
   759 00000070 2A 4F 4F 4F 2A 2E 2E 2E 2E 2E   	DB	"*OOO*..........."
       0000007A 2E 2E 2E 2E 2E 2E 
   760 00000080 2A 4F 4F 4F 4F 2A 2E 2E 2E 2E   	DB	"*OOOO*.........."
       0000008A 2E 2E 2E 2E 2E 2E 
   761 00000090 2A 4F 4F 4F 4F 4F 2A 2E 2E 2E   	DB	"*OOOOO*........."
       0000009A 2E 2E 2E 2E 2E 2E 
   762 000000A0 2A 4F 4F 4F 4F 4F 4F 2A 2E 2E   	DB	"*OOOOOO*........"
       000000AA 2E 2E 2E 2E 2E 2E 
   763 000000B0 2A 4F 4F 4F 4F 4F 4F 4F 2A 2E   	DB	"*OOOOOOO*......."
       000000BA 2E 2E 2E 2E 2E 2E 
   764 000000C0 2A 4F 4F 4F 4F 2A 2A 2A 2A 2A   	DB	"*OOOO*****......"
       000000CA 2E 2E 2E 2E 2E 2E 
   765 000000D0 2A 4F 4F 2A 4F 2A 2E 2E 2E 2E   	DB	"*OO*O*.........."
       000000DA 2E 2E 2E 2E 2E 2E 
   766 000000E0 2A 4F 2A 2E 2A 4F 2A 2E 2E 2E   	DB	"*O*.*O*........."
       000000EA 2E 2E 2E 2E 2E 2E 
   767 000000F0 2A 2A 2E 2E 2A 4F 2A 2E 2E 2E   	DB	"**..*O*........."
       000000FA 2E 2E 2E 2E 2E 2E 
   768 00000100 2A 2E 2E 2E 2E 2A 4F 2A 2E 2E   	DB	"*....*O*........"
       0000010A 2E 2E 2E 2E 2E 2E 
   769 00000110 2E 2E 2E 2E 2E 2A 4F 2A 2E 2E   	DB	".....*O*........"
       0000011A 2E 2E 2E 2E 2E 2E 
   770 00000120 2E 2E 2E 2E 2E 2E 2A 2E 2E 2E   	DB	"......*........."
       0000012A 2E 2E 2E 2E 2E 2E 
   771                                          [SECTION .text]
   772 0000064E                                 	GLOBAL	_initMouseCursor8
   773 0000064E                                 _initMouseCursor8:
   774 0000064E 55                              	PUSH	EBP
   775 0000064F 89 E5                           	MOV	EBP,ESP
   776 00000651 57                              	PUSH	EDI
   777 00000652 56                              	PUSH	ESI
   778 00000653 53                              	PUSH	EBX
   779 00000654 31 DB                           	XOR	EBX,EBX
   780 00000656 57                              	PUSH	EDI
   781 00000657 31 FF                           	XOR	EDI,EDI
   782 00000659 8A 45 0C                        	MOV	AL,BYTE [12+EBP]
   783 0000065C 8B 75 08                        	MOV	ESI,DWORD [8+EBP]
   784 0000065F 88 45 F3                        	MOV	BYTE [-13+EBP],AL
   785 00000662                                 L91:
   786 00000662 31 D2                           	XOR	EDX,EDX
   787 00000664                                 L90:
   788 00000664 8D 04 3A                        	LEA	EAX,DWORD [EDX+EDI*1]
   789 00000667 80 B8 [00000030] 2A             	CMP	BYTE [_cursor.1+EAX],42
   790 0000066E 74 35                           	JE	L96
   791 00000670                                 L87:
   792 00000670 80 B8 [00000030] 4F             	CMP	BYTE [_cursor.1+EAX],79
   793 00000677 74 26                           	JE	L97
   794 00000679                                 L88:
   795 00000679 80 B8 [00000030] 2E             	CMP	BYTE [_cursor.1+EAX],46
   796 00000680 74 15                           	JE	L98
   797 00000682                                 L85:
   798 00000682 42                              	INC	EDX
   799 00000683 83 FA 0F                        	CMP	EDX,15
   800 00000686 7E DC                           	JLE	L90
   801 00000688 43                              	INC	EBX
   802 00000689 83 C7 10                        	ADD	EDI,16
   803 0000068C 83 FB 0F                        	CMP	EBX,15
   804 0000068F 7E D1                           	JLE	L91
   805 00000691 5E                              	POP	ESI
   806 00000692 5B                              	POP	EBX
   807 00000693 5E                              	POP	ESI
   808 00000694 5F                              	POP	EDI
   809 00000695 5D                              	POP	EBP
   810 00000696 C3                              	RET
   811 00000697                                 L98:
   812 00000697 8A 4D F3                        	MOV	CL,BYTE [-13+EBP]
   813 0000069A 88 0C 30                        	MOV	BYTE [EAX+ESI*1],CL
   814 0000069D EB E3                           	JMP	L85
   815 0000069F                                 L97:
   816 0000069F C6 04 30 07                     	MOV	BYTE [EAX+ESI*1],7
   817 000006A3 EB D4                           	JMP	L88
   818 000006A5                                 L96:
   819 000006A5 C6 04 30 00                     	MOV	BYTE [EAX+ESI*1],0
   820 000006A9 EB C5                           	JMP	L87
   821 000006AB                                 	GLOBAL	_putblock8_8
   822 000006AB                                 _putblock8_8:
   823 000006AB 55                              	PUSH	EBP
   824 000006AC 89 E5                           	MOV	EBP,ESP
   825 000006AE 57                              	PUSH	EDI
   826 000006AF 56                              	PUSH	ESI
   827 000006B0 31 F6                           	XOR	ESI,ESI
   828 000006B2 53                              	PUSH	EBX
   829 000006B3 83 EC 0C                        	SUB	ESP,12
   830 000006B6 3B 75 14                        	CMP	ESI,DWORD [20+EBP]
   831 000006B9 7D 3E                           	JGE	L111
   832 000006BB 31 FF                           	XOR	EDI,EDI
   833 000006BD                                 L109:
   834 000006BD 31 DB                           	XOR	EBX,EBX
   835 000006BF 3B 5D 10                        	CMP	EBX,DWORD [16+EBP]
   836 000006C2 7D 2C                           	JGE	L113
   837 000006C4 8B 45 20                        	MOV	EAX,DWORD [32+EBP]
   838 000006C7 01 F8                           	ADD	EAX,EDI
   839 000006C9 89 45 EC                        	MOV	DWORD [-20+EBP],EAX
   840 000006CC                                 L108:
   841 000006CC 8B 45 1C                        	MOV	EAX,DWORD [28+EBP]
   842 000006CF 8B 55 18                        	MOV	EDX,DWORD [24+EBP]
   843 000006D2 01 F0                           	ADD	EAX,ESI
   844 000006D4 01 DA                           	ADD	EDX,EBX
   845 000006D6 0F AF 45 0C                     	IMUL	EAX,DWORD [12+EBP]
   846 000006DA 01 D0                           	ADD	EAX,EDX
   847 000006DC 8B 4D 08                        	MOV	ECX,DWORD [8+EBP]
   848 000006DF 8B 55 EC                        	MOV	EDX,DWORD [-20+EBP]
   849 000006E2 43                              	INC	EBX
   850 000006E3 8A 12                           	MOV	DL,BYTE [EDX]
   851 000006E5 88 14 08                        	MOV	BYTE [EAX+ECX*1],DL
   852 000006E8 FF 45 EC                        	INC	DWORD [-20+EBP]
   853 000006EB 3B 5D 10                        	CMP	EBX,DWORD [16+EBP]
   854 000006EE 7C DC                           	JL	L108
   855 000006F0                                 L113:
   856 000006F0 46                              	INC	ESI
   857 000006F1 03 7D 24                        	ADD	EDI,DWORD [36+EBP]
   858 000006F4 3B 75 14                        	CMP	ESI,DWORD [20+EBP]
   859 000006F7 7C C4                           	JL	L109
   860 000006F9                                 L111:
   861 000006F9 83 C4 0C                        	ADD	ESP,12
   862 000006FC 5B                              	POP	EBX
   863 000006FD 5E                              	POP	ESI
   864 000006FE 5F                              	POP	EDI
   865 000006FF 5D                              	POP	EBP
   866 00000700 C3                              	RET
   867 00000701                                 	GLOBAL	_waitKeyboardControllerReady
   868 00000701                                 _waitKeyboardControllerReady:
   869 00000701 55                              	PUSH	EBP
   870 00000702 89 E5                           	MOV	EBP,ESP
   871 00000704                                 L115:
   872 00000704 6A 64                           	PUSH	100
   873 00000706 E8 [00000000]                   	CALL	_io_in8
   874 0000070B 5A                              	POP	EDX
   875 0000070C 83 E0 02                        	AND	EAX,2
   876 0000070F 75 F3                           	JNE	L115
   877 00000711 C9                              	LEAVE
   878 00000712 C3                              	RET
   879 00000713                                 	GLOBAL	_initKeyboard
   880 00000713                                 _initKeyboard:
   881 00000713 55                              	PUSH	EBP
   882 00000714 89 E5                           	MOV	EBP,ESP
   883 00000716 E8 FFFFFFE6                     	CALL	_waitKeyboardControllerReady
   884 0000071B 6A 60                           	PUSH	96
   885 0000071D 6A 64                           	PUSH	100
   886 0000071F E8 [00000000]                   	CALL	_io_out8
   887 00000724 E8 FFFFFFD8                     	CALL	_waitKeyboardControllerReady
   888 00000729 6A 47                           	PUSH	71
   889 0000072B 6A 60                           	PUSH	96
   890 0000072D E8 [00000000]                   	CALL	_io_out8
   891 00000732 C9                              	LEAVE
   892 00000733 C3                              	RET
   893 00000734                                 	GLOBAL	_enableMouse
   894 00000734                                 _enableMouse:
   895 00000734 55                              	PUSH	EBP
   896 00000735 89 E5                           	MOV	EBP,ESP
   897 00000737 E8 FFFFFFC5                     	CALL	_waitKeyboardControllerReady
   898 0000073C 68 000000D4                     	PUSH	212
   899 00000741 6A 64                           	PUSH	100
   900 00000743 E8 [00000000]                   	CALL	_io_out8
   901 00000748 E8 FFFFFFB4                     	CALL	_waitKeyboardControllerReady
   902 0000074D 68 000000F4                     	PUSH	244
   903 00000752 6A 60                           	PUSH	96
   904 00000754 E8 [00000000]                   	CALL	_io_out8
   905 00000759 8B 45 08                        	MOV	EAX,DWORD [8+EBP]
   906 0000075C C6 40 03 00                     	MOV	BYTE [3+EAX],0
   907 00000760 C9                              	LEAVE
   908 00000761 C3                              	RET
   909 00000762                                 	GLOBAL	_mouseDecode
   910 00000762                                 _mouseDecode:
   911 00000762 55                              	PUSH	EBP
   912 00000763 89 E5                           	MOV	EBP,ESP
   913 00000765 56                              	PUSH	ESI
   914 00000766 53                              	PUSH	EBX
   915 00000767 8B 55 08                        	MOV	EDX,DWORD [8+EBP]
   916 0000076A 8B 4D 0C                        	MOV	ECX,DWORD [12+EBP]
   917 0000076D 89 CE                           	MOV	ESI,ECX
   918 0000076F 8A 42 03                        	MOV	AL,BYTE [3+EDX]
   919 00000772 84 C0                           	TEST	AL,AL
   920 00000774 75 11                           	JNE	L122
   921 00000776 80 F9 FA                        	CMP	CL,-6
   922 00000779 74 06                           	JE	L131
   923 0000077B                                 L130:
   924 0000077B 31 C0                           	XOR	EAX,EAX
   925 0000077D                                 L121:
   926 0000077D 5B                              	POP	EBX
   927 0000077E 5E                              	POP	ESI
   928 0000077F 5D                              	POP	EBP
   929 00000780 C3                              	RET
   930 00000781                                 L131:
   931 00000781 C6 42 03 01                     	MOV	BYTE [3+EDX],1
   932 00000785 EB F4                           	JMP	L130
   933 00000787                                 L122:
   934 00000787 3C 01                           	CMP	AL,1
   935 00000789 74 61                           	JE	L132
   936 0000078B 3C 02                           	CMP	AL,2
   937 0000078D 74 54                           	JE	L133
   938 0000078F 3C 03                           	CMP	AL,3
   939 00000791 74 05                           	JE	L134
   940 00000793 83 C8 FF                        	OR	EAX,-1
   941 00000796 EB E5                           	JMP	L121
   942 00000798                                 L134:
   943 00000798 8A 1A                           	MOV	BL,BYTE [EDX]
   944 0000079A 81 E6 000000FF                  	AND	ESI,255
   945 000007A0 89 D8                           	MOV	EAX,EBX
   946 000007A2 88 4A 02                        	MOV	BYTE [2+EDX],CL
   947 000007A5 83 E0 07                        	AND	EAX,7
   948 000007A8 89 72 08                        	MOV	DWORD [8+EDX],ESI
   949 000007AB 89 42 0C                        	MOV	DWORD [12+EDX],EAX
   950 000007AE 88 D8                           	MOV	AL,BL
   951 000007B0 0F B6 4A 01                     	MOVZX	ECX,BYTE [1+EDX]
   952 000007B4 83 E0 10                        	AND	EAX,16
   953 000007B7 89 4A 04                        	MOV	DWORD [4+EDX],ECX
   954 000007BA C6 42 03 01                     	MOV	BYTE [3+EDX],1
   955 000007BE 84 C0                           	TEST	AL,AL
   956 000007C0 74 09                           	JE	L128
   957 000007C2 81 C9 FFFFFF00                  	OR	ECX,-256
   958 000007C8 89 4A 04                        	MOV	DWORD [4+EDX],ECX
   959 000007CB                                 L128:
   960 000007CB 83 E3 20                        	AND	EBX,32
   961 000007CE 84 DB                           	TEST	BL,BL
   962 000007D0 74 07                           	JE	L129
   963 000007D2 81 4A 08 FFFFFF00               	OR	DWORD [8+EDX],-256
   964 000007D9                                 L129:
   965 000007D9 F7 5A 08                        	NEG	DWORD [8+EDX]
   966 000007DC B8 00000001                     	MOV	EAX,1
   967 000007E1 EB 9A                           	JMP	L121
   968 000007E3                                 L133:
   969 000007E3 88 4A 01                        	MOV	BYTE [1+EDX],CL
   970 000007E6 C6 42 03 03                     	MOV	BYTE [3+EDX],3
   971 000007EA EB 8F                           	JMP	L130
   972 000007EC                                 L132:
   973 000007EC 83 E6 C8                        	AND	ESI,-56
   974 000007EF 89 F0                           	MOV	EAX,ESI
   975 000007F1 3C 08                           	CMP	AL,8
   976 000007F3 75 86                           	JNE	L130
   977 000007F5 88 0A                           	MOV	BYTE [EDX],CL
   978 000007F7 C6 42 03 02                     	MOV	BYTE [3+EDX],2
   979 000007FB E9 FFFFFF7B                     	JMP	L130
   980 00000800                                 	GLOBAL	_memtest
   981 00000800                                 _memtest:
   982 00000800 55                              	PUSH	EBP
   983 00000801 89 E5                           	MOV	EBP,ESP
   984 00000803 56                              	PUSH	ESI
   985 00000804 53                              	PUSH	EBX
   986 00000805 31 F6                           	XOR	ESI,ESI
   987 00000807 E8 [00000000]                   	CALL	_io_load_eflags
   988 0000080C 0D 00040000                     	OR	EAX,262144
   989 00000811 50                              	PUSH	EAX
   990 00000812 E8 [00000000]                   	CALL	_io_store_eflags
   991 00000817 E8 [00000000]                   	CALL	_io_load_eflags
   992 0000081C 5A                              	POP	EDX
   993 0000081D A9 00040000                     	TEST	EAX,262144
   994 00000822 74 05                           	JE	L136
   995 00000824 BE 00000001                     	MOV	ESI,1
   996 00000829                                 L136:
   997 00000829 25 FFFBFFFF                     	AND	EAX,-262145
   998 0000082E 50                              	PUSH	EAX
   999 0000082F E8 [00000000]                   	CALL	_io_store_eflags
  1000 00000834 89 F0                           	MOV	EAX,ESI
  1001 00000836 5B                              	POP	EBX
  1002 00000837 84 C0                           	TEST	AL,AL
  1003 00000839 75 31                           	JNE	L139
  1004 0000083B                                 L137:
  1005 0000083B FF 75 0C                        	PUSH	DWORD [12+EBP]
  1006 0000083E FF 75 08                        	PUSH	DWORD [8+EBP]
  1007 00000841 E8 [00000000]                   	CALL	_memtest_sub
  1008 00000846 89 C3                           	MOV	EBX,EAX
  1009 00000848 58                              	POP	EAX
  1010 00000849 89 F0                           	MOV	EAX,ESI
  1011 0000084B 5A                              	POP	EDX
  1012 0000084C 84 C0                           	TEST	AL,AL
  1013 0000084E 75 09                           	JNE	L140
  1014 00000850                                 L138:
  1015 00000850 8D 65 F8                        	LEA	ESP,DWORD [-8+EBP]
  1016 00000853 89 D8                           	MOV	EAX,EBX
  1017 00000855 5B                              	POP	EBX
  1018 00000856 5E                              	POP	ESI
  1019 00000857 5D                              	POP	EBP
  1020 00000858 C3                              	RET
  1021 00000859                                 L140:
  1022 00000859 E8 [00000000]                   	CALL	_loadCr0
  1023 0000085E 25 9FFFFFFF                     	AND	EAX,-1610612737
  1024 00000863 50                              	PUSH	EAX
  1025 00000864 E8 [00000000]                   	CALL	_storeCr0
  1026 00000869 59                              	POP	ECX
  1027 0000086A EB E4                           	JMP	L138
  1028 0000086C                                 L139:
  1029 0000086C E8 [00000000]                   	CALL	_loadCr0
  1030 00000871 0D 60000000                     	OR	EAX,1610612736
  1031 00000876 50                              	PUSH	EAX
  1032 00000877 E8 [00000000]                   	CALL	_storeCr0
  1033 0000087C 59                              	POP	ECX
  1034 0000087D EB BC                           	JMP	L137
  1035 0000087F                                 	GLOBAL	_memsegTotal
  1036 0000087F                                 _memsegTotal:
  1037 0000087F 55                              	PUSH	EBP
  1038 00000880 31 C0                           	XOR	EAX,EAX
  1039 00000882 89 E5                           	MOV	EBP,ESP
  1040 00000884 31 D2                           	XOR	EDX,EDX
  1041 00000886 53                              	PUSH	EBX
  1042 00000887 8B 5D 08                        	MOV	EBX,DWORD [8+EBP]
  1043 0000088A 8B 0B                           	MOV	ECX,DWORD [EBX]
  1044 0000088C 39 C8                           	CMP	EAX,ECX
  1045 0000088E 73 09                           	JAE	L148
  1046 00000890                                 L146:
  1047 00000890 03 44 D3 14                     	ADD	EAX,DWORD [20+EBX+EDX*8]
  1048 00000894 42                              	INC	EDX
  1049 00000895 39 CA                           	CMP	EDX,ECX
  1050 00000897 72 F7                           	JB	L146
  1051 00000899                                 L148:
  1052 00000899 5B                              	POP	EBX
  1053 0000089A 5D                              	POP	EBP
  1054 0000089B C3                              	RET
  1055 0000089C                                 	GLOBAL	_memsegInit
  1056 0000089C                                 _memsegInit:
  1057 0000089C 55                              	PUSH	EBP
  1058 0000089D 89 E5                           	MOV	EBP,ESP
  1059 0000089F 8B 45 08                        	MOV	EAX,DWORD [8+EBP]
  1060 000008A2 C7 00 00000000                  	MOV	DWORD [EAX],0
  1061 000008A8 C7 40 04 00000000               	MOV	DWORD [4+EAX],0
  1062 000008AF C7 40 08 00000000               	MOV	DWORD [8+EAX],0
  1063 000008B6 C7 40 0C 00000000               	MOV	DWORD [12+EAX],0
  1064 000008BD 5D                              	POP	EBP
  1065 000008BE C3                              	RET
  1066 000008BF                                 	GLOBAL	_memsegAlloc
  1067 000008BF                                 _memsegAlloc:
  1068 000008BF 55                              	PUSH	EBP
  1069 000008C0 31 C9                           	XOR	ECX,ECX
  1070 000008C2 89 E5                           	MOV	EBP,ESP
  1071 000008C4 57                              	PUSH	EDI
  1072 000008C5 56                              	PUSH	ESI
  1073 000008C6 53                              	PUSH	EBX
  1074 000008C7 8B 75 0C                        	MOV	ESI,DWORD [12+EBP]
  1075 000008CA 8B 5D 08                        	MOV	EBX,DWORD [8+EBP]
  1076 000008CD 8B 03                           	MOV	EAX,DWORD [EBX]
  1077 000008CF 39 C1                           	CMP	ECX,EAX
  1078 000008D1 73 0D                           	JAE	L164
  1079 000008D3                                 L162:
  1080 000008D3 8B 54 CB 14                     	MOV	EDX,DWORD [20+EBX+ECX*8]
  1081 000008D7 39 F2                           	CMP	EDX,ESI
  1082 000008D9 73 0C                           	JAE	L166
  1083 000008DB 41                              	INC	ECX
  1084 000008DC 39 C1                           	CMP	ECX,EAX
  1085 000008DE 72 F3                           	JB	L162
  1086 000008E0                                 L164:
  1087 000008E0 31 C0                           	XOR	EAX,EAX
  1088 000008E2                                 L150:
  1089 000008E2 5B                              	POP	EBX
  1090 000008E3 5E                              	POP	ESI
  1091 000008E4 5F                              	POP	EDI
  1092 000008E5 5D                              	POP	EBP
  1093 000008E6 C3                              	RET
  1094 000008E7                                 L166:
  1095 000008E7 8B 7C CB 10                     	MOV	EDI,DWORD [16+EBX+ECX*8]
  1096 000008EB 8D 04 3E                        	LEA	EAX,DWORD [ESI+EDI*1]
  1097 000008EE 89 44 CB 10                     	MOV	DWORD [16+EBX+ECX*8],EAX
  1098 000008F2 89 D0                           	MOV	EAX,EDX
  1099 000008F4 29 F0                           	SUB	EAX,ESI
  1100 000008F6 89 44 CB 14                     	MOV	DWORD [20+EBX+ECX*8],EAX
  1101 000008FA 85 C0                           	TEST	EAX,EAX
  1102 000008FC 75 20                           	JNE	L156
  1103 000008FE 8B 03                           	MOV	EAX,DWORD [EBX]
  1104 00000900 48                              	DEC	EAX
  1105 00000901 89 03                           	MOV	DWORD [EBX],EAX
  1106 00000903 39 C1                           	CMP	ECX,EAX
  1107 00000905 73 17                           	JAE	L156
  1108 00000907 89 C6                           	MOV	ESI,EAX
  1109 00000909                                 L161:
  1110 00000909 8B 44 CB 18                     	MOV	EAX,DWORD [24+EBX+ECX*8]
  1111 0000090D 8B 54 CB 1C                     	MOV	EDX,DWORD [28+EBX+ECX*8]
  1112 00000911 89 44 CB 10                     	MOV	DWORD [16+EBX+ECX*8],EAX
  1113 00000915 89 54 CB 14                     	MOV	DWORD [20+EBX+ECX*8],EDX
  1114 00000919 41                              	INC	ECX
  1115 0000091A 39 F1                           	CMP	ECX,ESI
  1116 0000091C 72 EB                           	JB	L161
  1117 0000091E                                 L156:
  1118 0000091E 89 F8                           	MOV	EAX,EDI
  1119 00000920 EB C0                           	JMP	L150
  1120 00000922                                 	GLOBAL	_memsegFree
  1121 00000922                                 _memsegFree:
  1122 00000922 55                              	PUSH	EBP
  1123 00000923 89 E5                           	MOV	EBP,ESP
  1124 00000925 57                              	PUSH	EDI
  1125 00000926 56                              	PUSH	ESI
  1126 00000927 8B 75 08                        	MOV	ESI,DWORD [8+EBP]
  1127 0000092A 53                              	PUSH	EBX
  1128 0000092B 31 DB                           	XOR	EBX,EBX
  1129 0000092D 8B 3E                           	MOV	EDI,DWORD [ESI]
  1130 0000092F 39 FB                           	CMP	EBX,EDI
  1131 00000931 7D 0E                           	JGE	L169
  1132 00000933                                 L173:
  1133 00000933 8B 45 0C                        	MOV	EAX,DWORD [12+EBP]
  1134 00000936 39 44 DE 10                     	CMP	DWORD [16+ESI+EBX*8],EAX
  1135 0000093A 77 05                           	JA	L169
  1136 0000093C 43                              	INC	EBX
  1137 0000093D 39 FB                           	CMP	EBX,EDI
  1138 0000093F 7C F2                           	JL	L173
  1139 00000941                                 L169:
  1140 00000941 85 DB                           	TEST	EBX,EBX
  1141 00000943 7E 0F                           	JLE	L174
  1142 00000945 8B 54 DE 0C                     	MOV	EDX,DWORD [12+ESI+EBX*8]
  1143 00000949 8B 44 DE 08                     	MOV	EAX,DWORD [8+ESI+EBX*8]
  1144 0000094D 01 D0                           	ADD	EAX,EDX
  1145 0000094F 3B 45 0C                        	CMP	EAX,DWORD [12+EBP]
  1146 00000952 74 73                           	JE	L194
  1147 00000954                                 L174:
  1148 00000954 39 FB                           	CMP	EBX,EDI
  1149 00000956 7D 0C                           	JGE	L181
  1150 00000958 8B 45 0C                        	MOV	EAX,DWORD [12+EBP]
  1151 0000095B 03 45 10                        	ADD	EAX,DWORD [16+EBP]
  1152 0000095E 3B 44 DE 10                     	CMP	EAX,DWORD [16+ESI+EBX*8]
  1153 00000962 74 53                           	JE	L195
  1154 00000964                                 L181:
  1155 00000964 81 FF 00000FF9                  	CMP	EDI,4089
  1156 0000096A 7F 3D                           	JG	L182
  1157 0000096C 89 F9                           	MOV	ECX,EDI
  1158 0000096E 39 DF                           	CMP	EDI,EBX
  1159 00000970 7E 15                           	JLE	L192
  1160 00000972                                 L187:
  1161 00000972 8B 44 CE 08                     	MOV	EAX,DWORD [8+ESI+ECX*8]
  1162 00000976 8B 54 CE 0C                     	MOV	EDX,DWORD [12+ESI+ECX*8]
  1163 0000097A 89 44 CE 10                     	MOV	DWORD [16+ESI+ECX*8],EAX
  1164 0000097E 89 54 CE 14                     	MOV	DWORD [20+ESI+ECX*8],EDX
  1165 00000982 49                              	DEC	ECX
  1166 00000983 39 D9                           	CMP	ECX,EBX
  1167 00000985 7F EB                           	JG	L187
  1168 00000987                                 L192:
  1169 00000987 8D 47 01                        	LEA	EAX,DWORD [1+EDI]
  1170 0000098A 89 06                           	MOV	DWORD [ESI],EAX
  1171 0000098C 39 46 04                        	CMP	DWORD [4+ESI],EAX
  1172 0000098F 7D 03                           	JGE	L188
  1173 00000991 89 46 04                        	MOV	DWORD [4+ESI],EAX
  1174 00000994                                 L188:
  1175 00000994 8B 45 0C                        	MOV	EAX,DWORD [12+EBP]
  1176 00000997 89 44 DE 10                     	MOV	DWORD [16+ESI+EBX*8],EAX
  1177 0000099B 8B 45 10                        	MOV	EAX,DWORD [16+EBP]
  1178 0000099E 89 44 DE 14                     	MOV	DWORD [20+ESI+EBX*8],EAX
  1179 000009A2                                 L193:
  1180 000009A2 31 C0                           	XOR	EAX,EAX
  1181 000009A4                                 L167:
  1182 000009A4 5B                              	POP	EBX
  1183 000009A5 5E                              	POP	ESI
  1184 000009A6 5F                              	POP	EDI
  1185 000009A7 5D                              	POP	EBP
  1186 000009A8 C3                              	RET
  1187 000009A9                                 L182:
  1188 000009A9 8B 45 10                        	MOV	EAX,DWORD [16+EBP]
  1189 000009AC FF 46 0C                        	INC	DWORD [12+ESI]
  1190 000009AF 01 46 08                        	ADD	DWORD [8+ESI],EAX
  1191 000009B2 83 C8 FF                        	OR	EAX,-1
  1192 000009B5 EB ED                           	JMP	L167
  1193 000009B7                                 L195:
  1194 000009B7 8B 45 0C                        	MOV	EAX,DWORD [12+EBP]
  1195 000009BA 89 44 DE 10                     	MOV	DWORD [16+ESI+EBX*8],EAX
  1196 000009BE 8B 45 10                        	MOV	EAX,DWORD [16+EBP]
  1197 000009C1 01 44 DE 14                     	ADD	DWORD [20+ESI+EBX*8],EAX
  1198 000009C5 EB DB                           	JMP	L193
  1199 000009C7                                 L194:
  1200 000009C7 03 55 10                        	ADD	EDX,DWORD [16+EBP]
  1201 000009CA 89 54 DE 0C                     	MOV	DWORD [12+ESI+EBX*8],EDX
  1202 000009CE 3B 1E                           	CMP	EBX,DWORD [ESI]
  1203 000009D0 7D D0                           	JGE	L193
  1204 000009D2 8B 45 0C                        	MOV	EAX,DWORD [12+EBP]
  1205 000009D5 03 45 10                        	ADD	EAX,DWORD [16+EBP]
  1206 000009D8 3B 44 DE 10                     	CMP	EAX,DWORD [16+ESI+EBX*8]
  1207 000009DC 75 C4                           	JNE	L193
  1208 000009DE 03 54 DE 14                     	ADD	EDX,DWORD [20+ESI+EBX*8]
  1209 000009E2 89 54 DE 0C                     	MOV	DWORD [12+ESI+EBX*8],EDX
  1210 000009E6 8B 06                           	MOV	EAX,DWORD [ESI]
  1211 000009E8 48                              	DEC	EAX
  1212 000009E9 89 06                           	MOV	DWORD [ESI],EAX
  1213 000009EB 39 C3                           	CMP	EBX,EAX
  1214 000009ED 7D B3                           	JGE	L193
  1215 000009EF 89 C1                           	MOV	ECX,EAX
  1216 000009F1                                 L180:
  1217 000009F1 8B 44 DE 18                     	MOV	EAX,DWORD [24+ESI+EBX*8]
  1218 000009F5 8B 54 DE 1C                     	MOV	EDX,DWORD [28+ESI+EBX*8]
  1219 000009F9 89 44 DE 10                     	MOV	DWORD [16+ESI+EBX*8],EAX
  1220 000009FD 89 54 DE 14                     	MOV	DWORD [20+ESI+EBX*8],EDX
  1221 00000A01 43                              	INC	EBX
  1222 00000A02 39 CB                           	CMP	EBX,ECX
  1223 00000A04 7C EB                           	JL	L180
  1224 00000A06 EB 9A                           	JMP	L193
  1225 00000A08                                 	GLOBAL	_memsegAlloc4K
  1226 00000A08                                 _memsegAlloc4K:
  1227 00000A08 55                              	PUSH	EBP
  1228 00000A09 89 E5                           	MOV	EBP,ESP
  1229 00000A0B 8B 45 0C                        	MOV	EAX,DWORD [12+EBP]
  1230 00000A0E 05 00000FFF                     	ADD	EAX,4095
  1231 00000A13 25 FFFFF000                     	AND	EAX,-4096
  1232 00000A18 89 45 0C                        	MOV	DWORD [12+EBP],EAX
  1233 00000A1B 5D                              	POP	EBP
  1234 00000A1C E9 FFFFFE9E                     	JMP	_memsegAlloc
  1235 00000A21                                 	GLOBAL	_memsegFree4K
  1236 00000A21                                 _memsegFree4K:
  1237 00000A21 55                              	PUSH	EBP
  1238 00000A22 89 E5                           	MOV	EBP,ESP
  1239 00000A24 8B 45 10                        	MOV	EAX,DWORD [16+EBP]
  1240 00000A27 05 00000FFF                     	ADD	EAX,4095
  1241 00000A2C 25 FFFFF000                     	AND	EAX,-4096
  1242 00000A31 89 45 10                        	MOV	DWORD [16+EBP],EAX
  1243 00000A34 5D                              	POP	EBP
  1244 00000A35 E9 FFFFFEE8                     	JMP	_memsegFree
  1245 00000A3A                                 	GLOBAL	_shtctlInit
  1246 00000A3A                                 _shtctlInit:
  1247 00000A3A 55                              	PUSH	EBP
  1248 00000A3B 89 E5                           	MOV	EBP,ESP
  1249 00000A3D 57                              	PUSH	EDI
  1250 00000A3E 56                              	PUSH	ESI
  1251 00000A3F 53                              	PUSH	EBX
  1252 00000A40 8B 75 08                        	MOV	ESI,DWORD [8+EBP]
  1253 00000A43 68 00002814                     	PUSH	10260
  1254 00000A48 8B 7D 10                        	MOV	EDI,DWORD [16+EBP]
  1255 00000A4B 56                              	PUSH	ESI
  1256 00000A4C E8 FFFFFFB7                     	CALL	_memsegAlloc4K
  1257 00000A51 59                              	POP	ECX
  1258 00000A52 89 C3                           	MOV	EBX,EAX
  1259 00000A54 58                              	POP	EAX
  1260 00000A55 31 C0                           	XOR	EAX,EAX
  1261 00000A57 85 DB                           	TEST	EBX,EBX
  1262 00000A59 74 4C                           	JE	L198
  1263 00000A5B 8B 45 14                        	MOV	EAX,DWORD [20+EBP]
  1264 00000A5E 0F AF C7                        	IMUL	EAX,EDI
  1265 00000A61 50                              	PUSH	EAX
  1266 00000A62 56                              	PUSH	ESI
  1267 00000A63 E8 FFFFFFA0                     	CALL	_memsegAlloc4K
  1268 00000A68 85 C0                           	TEST	EAX,EAX
  1269 00000A6A 89 43 04                        	MOV	DWORD [4+EBX],EAX
  1270 00000A6D 59                              	POP	ECX
  1271 00000A6E 5A                              	POP	EDX
  1272 00000A6F 74 3E                           	JE	L209
  1273 00000A71 8B 45 0C                        	MOV	EAX,DWORD [12+EBP]
  1274 00000A74 89 7B 08                        	MOV	DWORD [8+EBX],EDI
  1275 00000A77 89 03                           	MOV	DWORD [EBX],EAX
  1276 00000A79 8D 93 000023DC                  	LEA	EDX,DWORD [9180+EBX]
  1277 00000A7F 8B 45 14                        	MOV	EAX,DWORD [20+EBP]
  1278 00000A82 89 43 0C                        	MOV	DWORD [12+EBX],EAX
  1279 00000A85 89 D8                           	MOV	EAX,EBX
  1280 00000A87 C7 43 10 FFFFFFFF               	MOV	DWORD [16+EBX],-1
  1281 00000A8E                                 L205:
  1282 00000A8E C7 80 00000430 00000000         	MOV	DWORD [1072+EAX],0
  1283 00000A98 89 98 00000434                  	MOV	DWORD [1076+EAX],EBX
  1284 00000A9E 83 C0 24                        	ADD	EAX,36
  1285 00000AA1 39 D0                           	CMP	EAX,EDX
  1286 00000AA3 7E E9                           	JLE	L205
  1287 00000AA5                                 L208:
  1288 00000AA5 89 D8                           	MOV	EAX,EBX
  1289 00000AA7                                 L198:
  1290 00000AA7 8D 65 F4                        	LEA	ESP,DWORD [-12+EBP]
  1291 00000AAA 5B                              	POP	EBX
  1292 00000AAB 5E                              	POP	ESI
  1293 00000AAC 5F                              	POP	EDI
  1294 00000AAD 5D                              	POP	EBP
  1295 00000AAE C3                              	RET
  1296 00000AAF                                 L209:
  1297 00000AAF 68 00002814                     	PUSH	10260
  1298 00000AB4 53                              	PUSH	EBX
  1299 00000AB5 56                              	PUSH	ESI
  1300 00000AB6 E8 FFFFFF66                     	CALL	_memsegFree4K
  1301 00000ABB EB E8                           	JMP	L208
  1302 00000ABD                                 	GLOBAL	_sheetAlloc
  1303 00000ABD                                 _sheetAlloc:
  1304 00000ABD 55                              	PUSH	EBP
  1305 00000ABE 31 D2                           	XOR	EDX,EDX
  1306 00000AC0 89 E5                           	MOV	EBP,ESP
  1307 00000AC2 8B 45 08                        	MOV	EAX,DWORD [8+EBP]
  1308 00000AC5 05 00000414                     	ADD	EAX,1044
  1309 00000ACA                                 L216:
  1310 00000ACA 83 78 1C 00                     	CMP	DWORD [28+EAX],0
  1311 00000ACE 74 10                           	JE	L219
  1312 00000AD0 42                              	INC	EDX
  1313 00000AD1 83 C0 24                        	ADD	EAX,36
  1314 00000AD4 81 FA 000000FF                  	CMP	EDX,255
  1315 00000ADA 7E EE                           	JLE	L216
  1316 00000ADC 31 C0                           	XOR	EAX,EAX
  1317 00000ADE                                 L210:
  1318 00000ADE 5D                              	POP	EBP
  1319 00000ADF C3                              	RET
  1320 00000AE0                                 L219:
  1321 00000AE0 C7 40 1C 00000001               	MOV	DWORD [28+EAX],1
  1322 00000AE7 C7 40 18 FFFFFFFF               	MOV	DWORD [24+EAX],-1
  1323 00000AEE EB EE                           	JMP	L210
  1324 00000AF0                                 	GLOBAL	_sheetSetbuf
  1325 00000AF0                                 _sheetSetbuf:
  1326 00000AF0 55                              	PUSH	EBP
  1327 00000AF1 89 E5                           	MOV	EBP,ESP
  1328 00000AF3 8B 55 08                        	MOV	EDX,DWORD [8+EBP]
  1329 00000AF6 8B 45 0C                        	MOV	EAX,DWORD [12+EBP]
  1330 00000AF9 89 02                           	MOV	DWORD [EDX],EAX
  1331 00000AFB 8B 45 10                        	MOV	EAX,DWORD [16+EBP]
  1332 00000AFE 89 42 04                        	MOV	DWORD [4+EDX],EAX
  1333 00000B01 8B 45 14                        	MOV	EAX,DWORD [20+EBP]
  1334 00000B04 89 42 08                        	MOV	DWORD [8+EDX],EAX
  1335 00000B07 8B 45 18                        	MOV	EAX,DWORD [24+EBP]
  1336 00000B0A 89 42 14                        	MOV	DWORD [20+EDX],EAX
  1337 00000B0D 5D                              	POP	EBP
  1338 00000B0E C3                              	RET
  1339 00000B0F                                 	GLOBAL	_sheetRefreshMap
  1340 00000B0F                                 _sheetRefreshMap:
  1341 00000B0F 55                              	PUSH	EBP
  1342 00000B10 89 E5                           	MOV	EBP,ESP
  1343 00000B12 57                              	PUSH	EDI
  1344 00000B13 56                              	PUSH	ESI
  1345 00000B14 53                              	PUSH	EBX
  1346 00000B15 83 EC 28                        	SUB	ESP,40
  1347 00000B18 8B 45 08                        	MOV	EAX,DWORD [8+EBP]
  1348 00000B1B 83 7D 0C 00                     	CMP	DWORD [12+EBP],0
  1349 00000B1F 8B 40 04                        	MOV	EAX,DWORD [4+EAX]
  1350 00000B22 89 45 D8                        	MOV	DWORD [-40+EBP],EAX
  1351 00000B25 0F 88 00000135                  	JS	L252
  1352 00000B2B                                 L222:
  1353 00000B2B 83 7D 10 00                     	CMP	DWORD [16+EBP],0
  1354 00000B2F 0F 88 0000011F                  	JS	L253
  1355 00000B35                                 L223:
  1356 00000B35 8B 55 08                        	MOV	EDX,DWORD [8+EBP]
  1357 00000B38 8B 42 08                        	MOV	EAX,DWORD [8+EDX]
  1358 00000B3B 39 45 14                        	CMP	DWORD [20+EBP],EAX
  1359 00000B3E 7E 03                           	JLE	L224
  1360 00000B40 89 45 14                        	MOV	DWORD [20+EBP],EAX
  1361 00000B43                                 L224:
  1362 00000B43 8B 75 08                        	MOV	ESI,DWORD [8+EBP]
  1363 00000B46 8B 46 0C                        	MOV	EAX,DWORD [12+ESI]
  1364 00000B49 39 45 18                        	CMP	DWORD [24+EBP],EAX
  1365 00000B4C 7E 03                           	JLE	L225
  1366 00000B4E 89 45 18                        	MOV	DWORD [24+EBP],EAX
  1367 00000B51                                 L225:
  1368 00000B51 8B 45 08                        	MOV	EAX,DWORD [8+EBP]
  1369 00000B54 8B 7D 1C                        	MOV	EDI,DWORD [28+EBP]
  1370 00000B57 89 7D F0                        	MOV	DWORD [-16+EBP],EDI
  1371 00000B5A 3B 78 10                        	CMP	EDI,DWORD [16+EAX]
  1372 00000B5D 0F 8F 000000D6                  	JG	L247
  1373 00000B63                                 L245:
  1374 00000B63 8B 75 08                        	MOV	ESI,DWORD [8+EBP]
  1375 00000B66 8B 55 F0                        	MOV	EDX,DWORD [-16+EBP]
  1376 00000B69 8B 5D 10                        	MOV	EBX,DWORD [16+EBP]
  1377 00000B6C 8B 4C 96 14                     	MOV	ECX,DWORD [20+ESI+EDX*4]
  1378 00000B70 89 C8                           	MOV	EAX,ECX
  1379 00000B72 29 F0                           	SUB	EAX,ESI
  1380 00000B74 8B 39                           	MOV	EDI,DWORD [ECX]
  1381 00000B76 2D 00000414                     	SUB	EAX,1044
  1382 00000B7B 8B 51 10                        	MOV	EDX,DWORD [16+ECX]
  1383 00000B7E C1 F8 02                        	SAR	EAX,2
  1384 00000B81 89 7D E0                        	MOV	DWORD [-32+EBP],EDI
  1385 00000B84 69 C0 38E38E39                  	IMUL	EAX,EAX,954437177
  1386 00000B8A 8B 7D 18                        	MOV	EDI,DWORD [24+EBP]
  1387 00000B8D 29 D3                           	SUB	EBX,EDX
  1388 00000B8F 29 D7                           	SUB	EDI,EDX
  1389 00000B91 88 45 DF                        	MOV	BYTE [-33+EBP],AL
  1390 00000B94 8B 75 14                        	MOV	ESI,DWORD [20+EBP]
  1391 00000B97 8B 55 0C                        	MOV	EDX,DWORD [12+EBP]
  1392 00000B9A 8B 41 0C                        	MOV	EAX,DWORD [12+ECX]
  1393 00000B9D 89 7D D4                        	MOV	DWORD [-44+EBP],EDI
  1394 00000BA0 29 C6                           	SUB	ESI,EAX
  1395 00000BA2 29 C2                           	SUB	EDX,EAX
  1396 00000BA4 89 75 CC                        	MOV	DWORD [-52+EBP],ESI
  1397 00000BA7 89 55 E4                        	MOV	DWORD [-28+EBP],EDX
  1398 00000BAA 0F 88 00000098                  	JS	L254
  1399 00000BB0                                 L230:
  1400 00000BB0 85 DB                           	TEST	EBX,EBX
  1401 00000BB2 0F 88 00000089                  	JS	L255
  1402 00000BB8                                 L231:
  1403 00000BB8 8B 41 04                        	MOV	EAX,DWORD [4+ECX]
  1404 00000BBB 39 45 CC                        	CMP	DWORD [-52+EBP],EAX
  1405 00000BBE 7E 03                           	JLE	L232
  1406 00000BC0 89 45 CC                        	MOV	DWORD [-52+EBP],EAX
  1407 00000BC3                                 L232:
  1408 00000BC3 8B 41 08                        	MOV	EAX,DWORD [8+ECX]
  1409 00000BC6 39 45 D4                        	CMP	DWORD [-44+EBP],EAX
  1410 00000BC9 7E 03                           	JLE	L233
  1411 00000BCB 89 45 D4                        	MOV	DWORD [-44+EBP],EAX
  1412 00000BCE                                 L233:
  1413 00000BCE 3B 5D D4                        	CMP	EBX,DWORD [-44+EBP]
  1414 00000BD1 7D 54                           	JGE	L249
  1415 00000BD3                                 L244:
  1416 00000BD3 8B 71 10                        	MOV	ESI,DWORD [16+ECX]
  1417 00000BD6 8B 55 E4                        	MOV	EDX,DWORD [-28+EBP]
  1418 00000BD9 01 DE                           	ADD	ESI,EBX
  1419 00000BDB 3B 55 CC                        	CMP	EDX,DWORD [-52+EBP]
  1420 00000BDE 89 75 E8                        	MOV	DWORD [-24+EBP],ESI
  1421 00000BE1 7D 3E                           	JGE	L251
  1422 00000BE3                                 L243:
  1423 00000BE3 89 D8                           	MOV	EAX,EBX
  1424 00000BE5 8B 79 0C                        	MOV	EDI,DWORD [12+ECX]
  1425 00000BE8 0F AF 41 04                     	IMUL	EAX,DWORD [4+ECX]
  1426 00000BEC 01 D7                           	ADD	EDI,EDX
  1427 00000BEE 8B 75 E0                        	MOV	ESI,DWORD [-32+EBP]
  1428 00000BF1 01 D0                           	ADD	EAX,EDX
  1429 00000BF3 89 7D EC                        	MOV	DWORD [-20+EBP],EDI
  1430 00000BF6 0F B6 34 30                     	MOVZX	ESI,BYTE [EAX+ESI*1]
  1431 00000BFA 3B 71 14                        	CMP	ESI,DWORD [20+ECX]
  1432 00000BFD 74 1C                           	JE	L240
  1433 00000BFF 8B 7D 08                        	MOV	EDI,DWORD [8+EBP]
  1434 00000C02 8B 45 E8                        	MOV	EAX,DWORD [-24+EBP]
  1435 00000C05 8B 75 D8                        	MOV	ESI,DWORD [-40+EBP]
  1436 00000C08 0F AF 47 08                     	IMUL	EAX,DWORD [8+EDI]
  1437 00000C0C 03 45 EC                        	ADD	EAX,DWORD [-20+EBP]
  1438 00000C0F 89 45 D0                        	MOV	DWORD [-48+EBP],EAX
  1439 00000C12 8A 45 DF                        	MOV	AL,BYTE [-33+EBP]
  1440 00000C15 8B 7D D0                        	MOV	EDI,DWORD [-48+EBP]
  1441 00000C18 88 04 37                        	MOV	BYTE [EDI+ESI*1],AL
  1442 00000C1B                                 L240:
  1443 00000C1B 42                              	INC	EDX
  1444 00000C1C 3B 55 CC                        	CMP	EDX,DWORD [-52+EBP]
  1445 00000C1F 7C C2                           	JL	L243
  1446 00000C21                                 L251:
  1447 00000C21 43                              	INC	EBX
  1448 00000C22 3B 5D D4                        	CMP	EBX,DWORD [-44+EBP]
  1449 00000C25 7C AC                           	JL	L244
  1450 00000C27                                 L249:
  1451 00000C27 8B 55 08                        	MOV	EDX,DWORD [8+EBP]
  1452 00000C2A FF 45 F0                        	INC	DWORD [-16+EBP]
  1453 00000C2D 8B 45 F0                        	MOV	EAX,DWORD [-16+EBP]
  1454 00000C30 3B 42 10                        	CMP	EAX,DWORD [16+EDX]
  1455 00000C33 0F 8E FFFFFF2A                  	JLE	L245
  1456 00000C39                                 L247:
  1457 00000C39 83 C4 28                        	ADD	ESP,40
  1458 00000C3C 5B                              	POP	EBX
  1459 00000C3D 5E                              	POP	ESI
  1460 00000C3E 5F                              	POP	EDI
  1461 00000C3F 5D                              	POP	EBP
  1462 00000C40 C3                              	RET
  1463 00000C41                                 L255:
  1464 00000C41 31 DB                           	XOR	EBX,EBX
  1465 00000C43 E9 FFFFFF70                     	JMP	L231
  1466 00000C48                                 L254:
  1467 00000C48 C7 45 E4 00000000               	MOV	DWORD [-28+EBP],0
  1468 00000C4F E9 FFFFFF5C                     	JMP	L230
  1469 00000C54                                 L253:
  1470 00000C54 C7 45 10 00000000               	MOV	DWORD [16+EBP],0
  1471 00000C5B E9 FFFFFED5                     	JMP	L223
  1472 00000C60                                 L252:
  1473 00000C60 C7 45 0C 00000000               	MOV	DWORD [12+EBP],0
  1474 00000C67 E9 FFFFFEBF                     	JMP	L222
  1475 00000C6C                                 	GLOBAL	_sheetUpdown
  1476 00000C6C                                 _sheetUpdown:
  1477 00000C6C 55                              	PUSH	EBP
  1478 00000C6D 89 E5                           	MOV	EBP,ESP
  1479 00000C6F 57                              	PUSH	EDI
  1480 00000C70 56                              	PUSH	ESI
  1481 00000C71 8B 7D 08                        	MOV	EDI,DWORD [8+EBP]
  1482 00000C74 53                              	PUSH	EBX
  1483 00000C75 8B 75 0C                        	MOV	ESI,DWORD [12+EBP]
  1484 00000C78 8B 5F 20                        	MOV	EBX,DWORD [32+EDI]
  1485 00000C7B 8B 47 18                        	MOV	EAX,DWORD [24+EDI]
  1486 00000C7E 8B 53 10                        	MOV	EDX,DWORD [16+EBX]
  1487 00000C81 42                              	INC	EDX
  1488 00000C82 39 D6                           	CMP	ESI,EDX
  1489 00000C84 7E 02                           	JLE	L257
  1490 00000C86 89 D6                           	MOV	ESI,EDX
  1491 00000C88                                 L257:
  1492 00000C88 83 FE FF                        	CMP	ESI,-1
  1493 00000C8B 7D 03                           	JGE	L258
  1494 00000C8D 83 CE FF                        	OR	ESI,-1
  1495 00000C90                                 L258:
  1496 00000C90 89 77 18                        	MOV	DWORD [24+EDI],ESI
  1497 00000C93 39 F0                           	CMP	EAX,ESI
  1498 00000C95 0F 8E 000000A5                  	JLE	L259
  1499 00000C9B 85 F6                           	TEST	ESI,ESI
  1500 00000C9D 78 5E                           	JS	L260
  1501 00000C9F 89 C1                           	MOV	ECX,EAX
  1502 00000CA1                                 L265:
  1503 00000CA1 8B 44 8B 10                     	MOV	EAX,DWORD [16+EBX+ECX*4]
  1504 00000CA5 89 44 8B 14                     	MOV	DWORD [20+EBX+ECX*4],EAX
  1505 00000CA9 89 48 18                        	MOV	DWORD [24+EAX],ECX
  1506 00000CAC 49                              	DEC	ECX
  1507 00000CAD 39 F1                           	CMP	ECX,ESI
  1508 00000CAF 7F F0                           	JG	L265
  1509 00000CB1 89 7C B3 14                     	MOV	DWORD [20+EBX+ESI*4],EDI
  1510 00000CB5 8D 5E 01                        	LEA	EBX,DWORD [1+ESI]
  1511 00000CB8 53                              	PUSH	EBX
  1512 00000CB9 8B 4F 10                        	MOV	ECX,DWORD [16+EDI]
  1513 00000CBC 89 C8                           	MOV	EAX,ECX
  1514 00000CBE 03 47 08                        	ADD	EAX,DWORD [8+EDI]
  1515 00000CC1 50                              	PUSH	EAX
  1516 00000CC2 8B 57 0C                        	MOV	EDX,DWORD [12+EDI]
  1517 00000CC5 89 D0                           	MOV	EAX,EDX
  1518 00000CC7 03 47 04                        	ADD	EAX,DWORD [4+EDI]
  1519 00000CCA 50                              	PUSH	EAX
  1520 00000CCB 51                              	PUSH	ECX
  1521 00000CCC 52                              	PUSH	EDX
  1522 00000CCD FF 77 20                        	PUSH	DWORD [32+EDI]
  1523 00000CD0 E8 FFFFFE3A                     	CALL	_sheetRefreshMap
  1524 00000CD5 53                              	PUSH	EBX
  1525 00000CD6                                 L294:
  1526 00000CD6 8B 4F 10                        	MOV	ECX,DWORD [16+EDI]
  1527 00000CD9 89 C8                           	MOV	EAX,ECX
  1528 00000CDB 03 47 08                        	ADD	EAX,DWORD [8+EDI]
  1529 00000CDE 50                              	PUSH	EAX
  1530 00000CDF 8B 57 0C                        	MOV	EDX,DWORD [12+EDI]
  1531 00000CE2 89 D0                           	MOV	EAX,EDX
  1532 00000CE4 03 47 04                        	ADD	EAX,DWORD [4+EDI]
  1533 00000CE7 50                              	PUSH	EAX
  1534 00000CE8 51                              	PUSH	ECX
  1535 00000CE9 52                              	PUSH	EDX
  1536 00000CEA FF 77 20                        	PUSH	DWORD [32+EDI]
  1537 00000CED E8 000000EF                     	CALL	_sheetRefreshSub
  1538 00000CF2 83 C4 30                        	ADD	ESP,48
  1539 00000CF5                                 L256:
  1540 00000CF5 8D 65 F4                        	LEA	ESP,DWORD [-12+EBP]
  1541 00000CF8 5B                              	POP	EBX
  1542 00000CF9 5E                              	POP	ESI
  1543 00000CFA 5F                              	POP	EDI
  1544 00000CFB 5D                              	POP	EBP
  1545 00000CFC C3                              	RET
  1546 00000CFD                                 L260:
  1547 00000CFD 8B 53 10                        	MOV	EDX,DWORD [16+EBX]
  1548 00000D00 39 C2                           	CMP	EDX,EAX
  1549 00000D02 7E 17                           	JLE	L267
  1550 00000D04 89 C1                           	MOV	ECX,EAX
  1551 00000D06 39 D0                           	CMP	EAX,EDX
  1552 00000D08 7D 11                           	JGE	L267
  1553 00000D0A                                 L272:
  1554 00000D0A 8B 44 8B 18                     	MOV	EAX,DWORD [24+EBX+ECX*4]
  1555 00000D0E 89 44 8B 14                     	MOV	DWORD [20+EBX+ECX*4],EAX
  1556 00000D12 89 48 18                        	MOV	DWORD [24+EAX],ECX
  1557 00000D15 41                              	INC	ECX
  1558 00000D16 3B 4B 10                        	CMP	ECX,DWORD [16+EBX]
  1559 00000D19 7C EF                           	JL	L272
  1560 00000D1B                                 L267:
  1561 00000D1B FF 4B 10                        	DEC	DWORD [16+EBX]
  1562 00000D1E 6A 00                           	PUSH	0
  1563 00000D20 8B 4F 10                        	MOV	ECX,DWORD [16+EDI]
  1564 00000D23 89 C8                           	MOV	EAX,ECX
  1565 00000D25 03 47 08                        	ADD	EAX,DWORD [8+EDI]
  1566 00000D28 50                              	PUSH	EAX
  1567 00000D29 8B 57 0C                        	MOV	EDX,DWORD [12+EDI]
  1568 00000D2C 89 D0                           	MOV	EAX,EDX
  1569 00000D2E 03 47 04                        	ADD	EAX,DWORD [4+EDI]
  1570 00000D31 50                              	PUSH	EAX
  1571 00000D32 51                              	PUSH	ECX
  1572 00000D33 52                              	PUSH	EDX
  1573 00000D34 FF 77 20                        	PUSH	DWORD [32+EDI]
  1574 00000D37 E8 FFFFFDD3                     	CALL	_sheetRefreshMap
  1575 00000D3C 6A 00                           	PUSH	0
  1576 00000D3E EB 96                           	JMP	L294
  1577 00000D40                                 L259:
  1578 00000D40 39 F0                           	CMP	EAX,ESI
  1579 00000D42 7D B1                           	JGE	L256
  1580 00000D44 85 C0                           	TEST	EAX,EAX
  1581 00000D46 78 3D                           	JS	L275
  1582 00000D48 89 C1                           	MOV	ECX,EAX
  1583 00000D4A 39 F0                           	CMP	EAX,ESI
  1584 00000D4C 7D 10                           	JGE	L291
  1585 00000D4E                                 L280:
  1586 00000D4E 8B 44 8B 18                     	MOV	EAX,DWORD [24+EBX+ECX*4]
  1587 00000D52 89 44 8B 14                     	MOV	DWORD [20+EBX+ECX*4],EAX
  1588 00000D56 89 48 18                        	MOV	DWORD [24+EAX],ECX
  1589 00000D59 41                              	INC	ECX
  1590 00000D5A 39 F1                           	CMP	ECX,ESI
  1591 00000D5C 7C F0                           	JL	L280
  1592 00000D5E                                 L291:
  1593 00000D5E 89 7C B3 14                     	MOV	DWORD [20+EBX+ESI*4],EDI
  1594 00000D62                                 L281:
  1595 00000D62 56                              	PUSH	ESI
  1596 00000D63 8B 4F 10                        	MOV	ECX,DWORD [16+EDI]
  1597 00000D66 89 C8                           	MOV	EAX,ECX
  1598 00000D68 03 47 08                        	ADD	EAX,DWORD [8+EDI]
  1599 00000D6B 50                              	PUSH	EAX
  1600 00000D6C 8B 57 0C                        	MOV	EDX,DWORD [12+EDI]
  1601 00000D6F 89 D0                           	MOV	EAX,EDX
  1602 00000D71 03 47 04                        	ADD	EAX,DWORD [4+EDI]
  1603 00000D74 50                              	PUSH	EAX
  1604 00000D75 51                              	PUSH	ECX
  1605 00000D76 52                              	PUSH	EDX
  1606 00000D77 FF 77 20                        	PUSH	DWORD [32+EDI]
  1607 00000D7A E8 FFFFFD90                     	CALL	_sheetRefreshMap
  1608 00000D7F 56                              	PUSH	ESI
  1609 00000D80 E9 FFFFFF51                     	JMP	L294
  1610 00000D85                                 L275:
  1611 00000D85 8B 4B 10                        	MOV	ECX,DWORD [16+EBX]
  1612 00000D88 39 F1                           	CMP	ECX,ESI
  1613 00000D8A 7C 13                           	JL	L293
  1614 00000D8C                                 L286:
  1615 00000D8C 8B 54 8B 14                     	MOV	EDX,DWORD [20+EBX+ECX*4]
  1616 00000D90 8D 41 01                        	LEA	EAX,DWORD [1+ECX]
  1617 00000D93 89 54 8B 18                     	MOV	DWORD [24+EBX+ECX*4],EDX
  1618 00000D97 49                              	DEC	ECX
  1619 00000D98 89 42 18                        	MOV	DWORD [24+EDX],EAX
  1620 00000D9B 39 F1                           	CMP	ECX,ESI
  1621 00000D9D 7D ED                           	JGE	L286
  1622 00000D9F                                 L293:
  1623 00000D9F 89 7C B3 14                     	MOV	DWORD [20+EBX+ESI*4],EDI
  1624 00000DA3 FF 43 10                        	INC	DWORD [16+EBX]
  1625 00000DA6 EB BA                           	JMP	L281
  1626 00000DA8                                 	GLOBAL	_sheetRefresh
  1627 00000DA8                                 _sheetRefresh:
  1628 00000DA8 55                              	PUSH	EBP
  1629 00000DA9 89 E5                           	MOV	EBP,ESP
  1630 00000DAB 53                              	PUSH	EBX
  1631 00000DAC 8B 5D 08                        	MOV	EBX,DWORD [8+EBP]
  1632 00000DAF 8B 43 18                        	MOV	EAX,DWORD [24+EBX]
  1633 00000DB2 85 C0                           	TEST	EAX,EAX
  1634 00000DB4 78 26                           	JS	L295
  1635 00000DB6 50                              	PUSH	EAX
  1636 00000DB7 8B 4B 10                        	MOV	ECX,DWORD [16+EBX]
  1637 00000DBA 89 C8                           	MOV	EAX,ECX
  1638 00000DBC 03 4D 10                        	ADD	ECX,DWORD [16+EBP]
  1639 00000DBF 03 45 18                        	ADD	EAX,DWORD [24+EBP]
  1640 00000DC2 50                              	PUSH	EAX
  1641 00000DC3 8B 53 0C                        	MOV	EDX,DWORD [12+EBX]
  1642 00000DC6 89 D0                           	MOV	EAX,EDX
  1643 00000DC8 03 55 0C                        	ADD	EDX,DWORD [12+EBP]
  1644 00000DCB 03 45 14                        	ADD	EAX,DWORD [20+EBP]
  1645 00000DCE 50                              	PUSH	EAX
  1646 00000DCF 51                              	PUSH	ECX
  1647 00000DD0 52                              	PUSH	EDX
  1648 00000DD1 FF 73 20                        	PUSH	DWORD [32+EBX]
  1649 00000DD4 E8 00000008                     	CALL	_sheetRefreshSub
  1650 00000DD9 83 C4 18                        	ADD	ESP,24
  1651 00000DDC                                 L295:
  1652 00000DDC 8B 5D FC                        	MOV	EBX,DWORD [-4+EBP]
  1653 00000DDF C9                              	LEAVE
  1654 00000DE0 C3                              	RET
  1655 00000DE1                                 	GLOBAL	_sheetRefreshSub
  1656 00000DE1                                 _sheetRefreshSub:
  1657 00000DE1 55                              	PUSH	EBP
  1658 00000DE2 89 E5                           	MOV	EBP,ESP
  1659 00000DE4 57                              	PUSH	EDI
  1660 00000DE5 56                              	PUSH	ESI
  1661 00000DE6 53                              	PUSH	EBX
  1662 00000DE7 83 EC 2C                        	SUB	ESP,44
  1663 00000DEA 8B 45 08                        	MOV	EAX,DWORD [8+EBP]
  1664 00000DED 8B 55 08                        	MOV	EDX,DWORD [8+EBP]
  1665 00000DF0 83 7D 0C 00                     	CMP	DWORD [12+EBP],0
  1666 00000DF4 8B 00                           	MOV	EAX,DWORD [EAX]
  1667 00000DF6 8B 52 04                        	MOV	EDX,DWORD [4+EDX]
  1668 00000DF9 89 45 DC                        	MOV	DWORD [-36+EBP],EAX
  1669 00000DFC 89 55 D8                        	MOV	DWORD [-40+EBP],EDX
  1670 00000DFF 0F 88 00000137                  	JS	L328
  1671 00000E05                                 L298:
  1672 00000E05 83 7D 10 00                     	CMP	DWORD [16+EBP],0
  1673 00000E09 0F 88 00000121                  	JS	L329
  1674 00000E0F                                 L299:
  1675 00000E0F 8B 75 08                        	MOV	ESI,DWORD [8+EBP]
  1676 00000E12 8B 46 08                        	MOV	EAX,DWORD [8+ESI]
  1677 00000E15 39 45 14                        	CMP	DWORD [20+EBP],EAX
  1678 00000E18 7E 03                           	JLE	L300
  1679 00000E1A 89 45 14                        	MOV	DWORD [20+EBP],EAX
  1680 00000E1D                                 L300:
  1681 00000E1D 8B 7D 08                        	MOV	EDI,DWORD [8+EBP]
  1682 00000E20 8B 47 0C                        	MOV	EAX,DWORD [12+EDI]
  1683 00000E23 39 45 18                        	CMP	DWORD [24+EBP],EAX
  1684 00000E26 7E 03                           	JLE	L301
  1685 00000E28 89 45 18                        	MOV	DWORD [24+EBP],EAX
  1686 00000E2B                                 L301:
  1687 00000E2B 8B 55 08                        	MOV	EDX,DWORD [8+EBP]
  1688 00000E2E 8B 45 1C                        	MOV	EAX,DWORD [28+EBP]
  1689 00000E31 89 45 F0                        	MOV	DWORD [-16+EBP],EAX
  1690 00000E34 3B 42 10                        	CMP	EAX,DWORD [16+EDX]
  1691 00000E37 0F 8F 000000BF                  	JG	L323
  1692 00000E3D                                 L321:
  1693 00000E3D 8B 7D 08                        	MOV	EDI,DWORD [8+EBP]
  1694 00000E40 8B 75 F0                        	MOV	ESI,DWORD [-16+EBP]
  1695 00000E43 8B 4D 10                        	MOV	ECX,DWORD [16+EBP]
  1696 00000E46 8B 5C B7 14                     	MOV	EBX,DWORD [20+EDI+ESI*4]
  1697 00000E4A 8B 75 14                        	MOV	ESI,DWORD [20+EBP]
  1698 00000E4D 89 D8                           	MOV	EAX,EBX
  1699 00000E4F 29 F8                           	SUB	EAX,EDI
  1700 00000E51 8B 53 10                        	MOV	EDX,DWORD [16+EBX]
  1701 00000E54 2D 00000414                     	SUB	EAX,1044
  1702 00000E59 8B 7D 18                        	MOV	EDI,DWORD [24+EBP]
  1703 00000E5C C1 F8 02                        	SAR	EAX,2
  1704 00000E5F 29 D7                           	SUB	EDI,EDX
  1705 00000E61 69 C0 38E38E39                  	IMUL	EAX,EAX,954437177
  1706 00000E67 88 45 D7                        	MOV	BYTE [-41+EBP],AL
  1707 00000E6A 29 D1                           	SUB	ECX,EDX
  1708 00000E6C 8B 03                           	MOV	EAX,DWORD [EBX]
  1709 00000E6E 8B 55 0C                        	MOV	EDX,DWORD [12+EBP]
  1710 00000E71 89 45 E0                        	MOV	DWORD [-32+EBP],EAX
  1711 00000E74 89 7D C8                        	MOV	DWORD [-56+EBP],EDI
  1712 00000E77 8B 43 0C                        	MOV	EAX,DWORD [12+EBX]
  1713 00000E7A 29 C6                           	SUB	ESI,EAX
  1714 00000E7C 29 C2                           	SUB	EDX,EAX
  1715 00000E7E 89 75 E4                        	MOV	DWORD [-28+EBP],ESI
  1716 00000E81 89 55 E8                        	MOV	DWORD [-24+EBP],EDX
  1717 00000E84 0F 88 0000009A                  	JS	L330
  1718 00000E8A                                 L306:
  1719 00000E8A 85 C9                           	TEST	ECX,ECX
  1720 00000E8C 0F 88 0000008B                  	JS	L331
  1721 00000E92                                 L307:
  1722 00000E92 8B 43 04                        	MOV	EAX,DWORD [4+EBX]
  1723 00000E95 39 45 E4                        	CMP	DWORD [-28+EBP],EAX
  1724 00000E98 7E 03                           	JLE	L308
  1725 00000E9A 89 45 E4                        	MOV	DWORD [-28+EBP],EAX
  1726 00000E9D                                 L308:
  1727 00000E9D 8B 43 08                        	MOV	EAX,DWORD [8+EBX]
  1728 00000EA0 39 45 C8                        	CMP	DWORD [-56+EBP],EAX
  1729 00000EA3 7E 03                           	JLE	L309
  1730 00000EA5 89 45 C8                        	MOV	DWORD [-56+EBP],EAX
  1731 00000EA8                                 L309:
  1732 00000EA8 89 CE                           	MOV	ESI,ECX
  1733 00000EAA 3B 4D C8                        	CMP	ECX,DWORD [-56+EBP]
  1734 00000EAD 7D 3B                           	JGE	L325
  1735 00000EAF                                 L320:
  1736 00000EAF 8B 7B 10                        	MOV	EDI,DWORD [16+EBX]
  1737 00000EB2 8B 4D E8                        	MOV	ECX,DWORD [-24+EBP]
  1738 00000EB5 01 F7                           	ADD	EDI,ESI
  1739 00000EB7 3B 4D E4                        	CMP	ECX,DWORD [-28+EBP]
  1740 00000EBA 89 7D EC                        	MOV	DWORD [-20+EBP],EDI
  1741 00000EBD 7D 25                           	JGE	L327
  1742 00000EBF                                 L319:
  1743 00000EBF 8B 55 08                        	MOV	EDX,DWORD [8+EBP]
  1744 00000EC2 8B 7D EC                        	MOV	EDI,DWORD [-20+EBP]
  1745 00000EC5 8B 43 0C                        	MOV	EAX,DWORD [12+EBX]
  1746 00000EC8 0F AF 7A 08                     	IMUL	EDI,DWORD [8+EDX]
  1747 00000ECC 01 C8                           	ADD	EAX,ECX
  1748 00000ECE 8A 55 D7                        	MOV	DL,BYTE [-41+EBP]
  1749 00000ED1 01 F8                           	ADD	EAX,EDI
  1750 00000ED3 8B 7D D8                        	MOV	EDI,DWORD [-40+EBP]
  1751 00000ED6 89 45 CC                        	MOV	DWORD [-52+EBP],EAX
  1752 00000ED9 38 14 38                        	CMP	BYTE [EAX+EDI*1],DL
  1753 00000EDC 74 26                           	JE	L332
  1754 00000EDE                                 L316:
  1755 00000EDE 41                              	INC	ECX
  1756 00000EDF 3B 4D E4                        	CMP	ECX,DWORD [-28+EBP]
  1757 00000EE2 7C DB                           	JL	L319
  1758 00000EE4                                 L327:
  1759 00000EE4 46                              	INC	ESI
  1760 00000EE5 3B 75 C8                        	CMP	ESI,DWORD [-56+EBP]
  1761 00000EE8 7C C5                           	JL	L320
  1762 00000EEA                                 L325:
  1763 00000EEA 8B 7D 08                        	MOV	EDI,DWORD [8+EBP]
  1764 00000EED FF 45 F0                        	INC	DWORD [-16+EBP]
  1765 00000EF0 8B 75 F0                        	MOV	ESI,DWORD [-16+EBP]
  1766 00000EF3 3B 77 10                        	CMP	ESI,DWORD [16+EDI]
  1767 00000EF6 0F 8E FFFFFF41                  	JLE	L321
  1768 00000EFC                                 L323:
  1769 00000EFC 83 C4 2C                        	ADD	ESP,44
  1770 00000EFF 5B                              	POP	EBX
  1771 00000F00 5E                              	POP	ESI
  1772 00000F01 5F                              	POP	EDI
  1773 00000F02 5D                              	POP	EBP
  1774 00000F03 C3                              	RET
  1775 00000F04                                 L332:
  1776 00000F04 89 F0                           	MOV	EAX,ESI
  1777 00000F06 8B 55 E0                        	MOV	EDX,DWORD [-32+EBP]
  1778 00000F09 0F AF 43 04                     	IMUL	EAX,DWORD [4+EBX]
  1779 00000F0D 01 C8                           	ADD	EAX,ECX
  1780 00000F0F 8B 7D DC                        	MOV	EDI,DWORD [-36+EBP]
  1781 00000F12 8A 04 10                        	MOV	AL,BYTE [EAX+EDX*1]
  1782 00000F15 8B 55 CC                        	MOV	EDX,DWORD [-52+EBP]
  1783 00000F18 88 04 3A                        	MOV	BYTE [EDX+EDI*1],AL
  1784 00000F1B EB C1                           	JMP	L316
  1785 00000F1D                                 L331:
  1786 00000F1D 31 C9                           	XOR	ECX,ECX
  1787 00000F1F E9 FFFFFF6E                     	JMP	L307
  1788 00000F24                                 L330:
  1789 00000F24 C7 45 E8 00000000               	MOV	DWORD [-24+EBP],0
  1790 00000F2B E9 FFFFFF5A                     	JMP	L306
  1791 00000F30                                 L329:
  1792 00000F30 C7 45 10 00000000               	MOV	DWORD [16+EBP],0
  1793 00000F37 E9 FFFFFED3                     	JMP	L299
  1794 00000F3C                                 L328:
  1795 00000F3C C7 45 0C 00000000               	MOV	DWORD [12+EBP],0
  1796 00000F43 E9 FFFFFEBD                     	JMP	L298
  1797 00000F48                                 	GLOBAL	_sheetSlide
  1798 00000F48                                 _sheetSlide:
  1799 00000F48 55                              	PUSH	EBP
  1800 00000F49 89 E5                           	MOV	EBP,ESP
  1801 00000F4B 57                              	PUSH	EDI
  1802 00000F4C 56                              	PUSH	ESI
  1803 00000F4D 53                              	PUSH	EBX
  1804 00000F4E 8B 45 0C                        	MOV	EAX,DWORD [12+EBP]
  1805 00000F51 8B 5D 08                        	MOV	EBX,DWORD [8+EBP]
  1806 00000F54 8B 7B 0C                        	MOV	EDI,DWORD [12+EBX]
  1807 00000F57 8B 73 10                        	MOV	ESI,DWORD [16+EBX]
  1808 00000F5A 89 43 0C                        	MOV	DWORD [12+EBX],EAX
  1809 00000F5D 8B 45 10                        	MOV	EAX,DWORD [16+EBP]
  1810 00000F60 89 43 10                        	MOV	DWORD [16+EBX],EAX
  1811 00000F63 83 7B 18 00                     	CMP	DWORD [24+EBX],0
  1812 00000F67 78 74                           	JS	L333
  1813 00000F69 6A 00                           	PUSH	0
  1814 00000F6B 89 F0                           	MOV	EAX,ESI
  1815 00000F6D 03 43 08                        	ADD	EAX,DWORD [8+EBX]
  1816 00000F70 50                              	PUSH	EAX
  1817 00000F71 89 F8                           	MOV	EAX,EDI
  1818 00000F73 03 43 04                        	ADD	EAX,DWORD [4+EBX]
  1819 00000F76 50                              	PUSH	EAX
  1820 00000F77 56                              	PUSH	ESI
  1821 00000F78 57                              	PUSH	EDI
  1822 00000F79 FF 73 20                        	PUSH	DWORD [32+EBX]
  1823 00000F7C E8 FFFFFB8E                     	CALL	_sheetRefreshMap
  1824 00000F81 8B 45 10                        	MOV	EAX,DWORD [16+EBP]
  1825 00000F84 FF 73 18                        	PUSH	DWORD [24+EBX]
  1826 00000F87 03 43 08                        	ADD	EAX,DWORD [8+EBX]
  1827 00000F8A 50                              	PUSH	EAX
  1828 00000F8B 8B 45 0C                        	MOV	EAX,DWORD [12+EBP]
  1829 00000F8E 03 43 04                        	ADD	EAX,DWORD [4+EBX]
  1830 00000F91 50                              	PUSH	EAX
  1831 00000F92 FF 75 10                        	PUSH	DWORD [16+EBP]
  1832 00000F95 FF 75 0C                        	PUSH	DWORD [12+EBP]
  1833 00000F98 FF 73 20                        	PUSH	DWORD [32+EBX]
  1834 00000F9B E8 FFFFFB6F                     	CALL	_sheetRefreshMap
  1835 00000FA0 89 F0                           	MOV	EAX,ESI
  1836 00000FA2 83 C4 30                        	ADD	ESP,48
  1837 00000FA5 6A 00                           	PUSH	0
  1838 00000FA7 03 43 08                        	ADD	EAX,DWORD [8+EBX]
  1839 00000FAA 50                              	PUSH	EAX
  1840 00000FAB 89 F8                           	MOV	EAX,EDI
  1841 00000FAD 03 43 04                        	ADD	EAX,DWORD [4+EBX]
  1842 00000FB0 50                              	PUSH	EAX
  1843 00000FB1 56                              	PUSH	ESI
  1844 00000FB2 57                              	PUSH	EDI
  1845 00000FB3 FF 73 20                        	PUSH	DWORD [32+EBX]
  1846 00000FB6 E8 FFFFFE26                     	CALL	_sheetRefreshSub
  1847 00000FBB 8B 45 10                        	MOV	EAX,DWORD [16+EBP]
  1848 00000FBE FF 73 18                        	PUSH	DWORD [24+EBX]
  1849 00000FC1 03 43 08                        	ADD	EAX,DWORD [8+EBX]
  1850 00000FC4 50                              	PUSH	EAX
  1851 00000FC5 8B 45 0C                        	MOV	EAX,DWORD [12+EBP]
  1852 00000FC8 03 43 04                        	ADD	EAX,DWORD [4+EBX]
  1853 00000FCB 50                              	PUSH	EAX
  1854 00000FCC FF 75 10                        	PUSH	DWORD [16+EBP]
  1855 00000FCF FF 75 0C                        	PUSH	DWORD [12+EBP]
  1856 00000FD2 FF 73 20                        	PUSH	DWORD [32+EBX]
  1857 00000FD5 E8 FFFFFE07                     	CALL	_sheetRefreshSub
  1858 00000FDA 83 C4 30                        	ADD	ESP,48
  1859 00000FDD                                 L333:
  1860 00000FDD 8D 65 F4                        	LEA	ESP,DWORD [-12+EBP]
  1861 00000FE0 5B                              	POP	EBX
  1862 00000FE1 5E                              	POP	ESI
  1863 00000FE2 5F                              	POP	EDI
  1864 00000FE3 5D                              	POP	EBP
  1865 00000FE4 C3                              	RET
  1866 00000FE5                                 	GLOBAL	_sheetFree
  1867 00000FE5                                 _sheetFree:
  1868 00000FE5 55                              	PUSH	EBP
  1869 00000FE6 89 E5                           	MOV	EBP,ESP
  1870 00000FE8 53                              	PUSH	EBX
  1871 00000FE9 8B 5D 08                        	MOV	EBX,DWORD [8+EBP]
  1872 00000FEC 83 7B 18 00                     	CMP	DWORD [24+EBX],0
  1873 00000FF0 78 0A                           	JS	L336
  1874 00000FF2 6A FF                           	PUSH	-1
  1875 00000FF4 53                              	PUSH	EBX
  1876 00000FF5 E8 FFFFFC72                     	CALL	_sheetUpdown
  1877 00000FFA 58                              	POP	EAX
  1878 00000FFB 5A                              	POP	EDX
  1879 00000FFC                                 L336:
  1880 00000FFC C7 43 1C 00000000               	MOV	DWORD [28+EBX],0
  1881 00001003 8B 5D FC                        	MOV	EBX,DWORD [-4+EBP]
  1882 00001006 C9                              	LEAVE
  1883 00001007 C3                              	RET
  1884 00001008                                 	GLOBAL	_initPit
  1885 00001008                                 _initPit:
  1886 00001008 55                              	PUSH	EBP
  1887 00001009 89 E5                           	MOV	EBP,ESP
  1888 0000100B 6A 34                           	PUSH	52
  1889 0000100D 6A 43                           	PUSH	67
  1890 0000100F E8 [00000000]                   	CALL	_io_out8
  1891 00001014 68 0000009C                     	PUSH	156
  1892 00001019 6A 40                           	PUSH	64
  1893 0000101B E8 [00000000]                   	CALL	_io_out8
  1894 00001020 6A 2E                           	PUSH	46
  1895 00001022 6A 40                           	PUSH	64
  1896 00001024 E8 [00000000]                   	CALL	_io_out8
  1897 00001029 C9                              	LEAVE
  1898 0000102A C3                              	RET
  1899 0000102B                                 	GLOBAL	_interruptHandler20
  1900 0000102B                                 _interruptHandler20:
  1901 0000102B 55                              	PUSH	EBP
  1902 0000102C 89 E5                           	MOV	EBP,ESP
  1903 0000102E 6A 60                           	PUSH	96
  1904 00001030 6A 20                           	PUSH	32
  1905 00001032 E8 [00000000]                   	CALL	_io_out8
  1906 00001037 C9                              	LEAVE
  1907 00001038 C3                              	RET
  1908                                          [SECTION .data]
  1909 00000130                                 _closeBtn.2:
  1910 00000130 4F 4F 4F 4F 4F 4F 4F 4F 4F 4F   	DB	"OOOOOOOOOOOOOOO@"
       0000013A 4F 4F 4F 4F 4F 40 
  1911 00000140 4F 51 51 51 51 51 51 51 51 51   	DB	"OQQQQQQQQQQQQQ$@"
       0000014A 51 51 51 51 24 40 
  1912 00000150 4F 51 51 51 51 51 51 51 51 51   	DB	"OQQQQQQQQQQQQQ$@"
       0000015A 51 51 51 51 24 40 
  1913 00000160 4F 51 51 51 40 40 51 51 51 51   	DB	"OQQQ@@QQQQ@@QQ$@"
       0000016A 40 40 51 51 24 40 
  1914 00000170 4F 51 51 51 51 40 40 51 51 40   	DB	"OQQQQ@@QQ@@QQQ$@"
       0000017A 40 51 51 51 24 40 
  1915 00000180 4F 51 51 51 51 51 40 40 40 40   	DB	"OQQQQQ@@@@QQQQ$@"
       0000018A 51 51 51 51 24 40 
  1916 00000190 4F 51 51 51 51 51 51 40 40 51   	DB	"OQQQQQQ@@QQQQQ$@"
       0000019A 51 51 51 51 24 40 
  1917 000001A0 4F 51 51 51 51 51 40 40 40 40   	DB	"OQQQQQ@@@@QQQQ$@"
       000001AA 51 51 51 51 24 40 
  1918 000001B0 4F 51 51 51 51 40 40 51 51 40   	DB	"OQQQQ@@QQ@@QQQ$@"
       000001BA 40 51 51 51 24 40 
  1919 000001C0 4F 51 51 51 40 40 51 51 51 51   	DB	"OQQQ@@QQQQ@@QQ$@"
       000001CA 40 40 51 51 24 40 
  1920 000001D0 4F 51 51 51 51 51 51 51 51 51   	DB	"OQQQQQQQQQQQQQ$@"
       000001DA 51 51 51 51 24 40 
  1921 000001E0 4F 51 51 51 51 51 51 51 51 51   	DB	"OQQQQQQQQQQQQQ$@"
       000001EA 51 51 51 51 24 40 
  1922 000001F0 4F 24 24 24 24 24 24 24 24 24   	DB	"O$$$$$$$$$$$$$$@"
       000001FA 24 24 24 24 24 40 
  1923 00000200 40 40 40 40 40 40 40 40 40 40   	DB	"@@@@@@@@@@@@@@@@"
       0000020A 40 40 40 40 40 40 
  1924                                          [SECTION .text]
  1925 00001039                                 	GLOBAL	_makeWindow
  1926 00001039                                 _makeWindow:
  1927 00001039 55                              	PUSH	EBP
  1928 0000103A 89 E5                           	MOV	EBP,ESP
  1929 0000103C 57                              	PUSH	EDI
  1930 0000103D 56                              	PUSH	ESI
  1931 0000103E 53                              	PUSH	EBX
  1932 0000103F 83 EC 14                        	SUB	ESP,20
  1933 00001042 8B 5D 0C                        	MOV	EBX,DWORD [12+EBP]
  1934 00001045 6A 00                           	PUSH	0
  1935 00001047 8D 43 FF                        	LEA	EAX,DWORD [-1+EBX]
  1936 0000104A 8D 7B FE                        	LEA	EDI,DWORD [-2+EBX]
  1937 0000104D 50                              	PUSH	EAX
  1938 0000104E 89 45 EC                        	MOV	DWORD [-20+EBP],EAX
  1939 00001051 6A 00                           	PUSH	0
  1940 00001053 6A 00                           	PUSH	0
  1941 00001055 6A 08                           	PUSH	8
  1942 00001057 53                              	PUSH	EBX
  1943 00001058 FF 75 08                        	PUSH	DWORD [8+EBP]
  1944 0000105B E8 FFFFF33D                     	CALL	_boxFill8
  1945 00001060 6A 01                           	PUSH	1
  1946 00001062 57                              	PUSH	EDI
  1947 00001063 6A 01                           	PUSH	1
  1948 00001065 6A 01                           	PUSH	1
  1949 00001067 6A 07                           	PUSH	7
  1950 00001069 53                              	PUSH	EBX
  1951 0000106A FF 75 08                        	PUSH	DWORD [8+EBP]
  1952 0000106D E8 FFFFF32B                     	CALL	_boxFill8
  1953 00001072 8B 55 10                        	MOV	EDX,DWORD [16+EBP]
  1954 00001075 83 C4 38                        	ADD	ESP,56
  1955 00001078 4A                              	DEC	EDX
  1956 00001079 89 55 E8                        	MOV	DWORD [-24+EBP],EDX
  1957 0000107C 52                              	PUSH	EDX
  1958 0000107D 6A 00                           	PUSH	0
  1959 0000107F 6A 00                           	PUSH	0
  1960 00001081 6A 00                           	PUSH	0
  1961 00001083 6A 08                           	PUSH	8
  1962 00001085 53                              	PUSH	EBX
  1963 00001086 FF 75 08                        	PUSH	DWORD [8+EBP]
  1964 00001089 E8 FFFFF30F                     	CALL	_boxFill8
  1965 0000108E 8B 75 10                        	MOV	ESI,DWORD [16+EBP]
  1966 00001091 83 EE 02                        	SUB	ESI,2
  1967 00001094 56                              	PUSH	ESI
  1968 00001095 6A 01                           	PUSH	1
  1969 00001097 6A 01                           	PUSH	1
  1970 00001099 6A 01                           	PUSH	1
  1971 0000109B 6A 07                           	PUSH	7
  1972 0000109D 53                              	PUSH	EBX
  1973 0000109E FF 75 08                        	PUSH	DWORD [8+EBP]
  1974 000010A1 E8 FFFFF2F7                     	CALL	_boxFill8
  1975 000010A6 83 C4 38                        	ADD	ESP,56
  1976 000010A9 56                              	PUSH	ESI
  1977 000010AA 57                              	PUSH	EDI
  1978 000010AB 6A 01                           	PUSH	1
  1979 000010AD 57                              	PUSH	EDI
  1980 000010AE 6A 0F                           	PUSH	15
  1981 000010B0 53                              	PUSH	EBX
  1982 000010B1 FF 75 08                        	PUSH	DWORD [8+EBP]
  1983 000010B4 E8 FFFFF2E4                     	CALL	_boxFill8
  1984 000010B9 FF 75 E8                        	PUSH	DWORD [-24+EBP]
  1985 000010BC FF 75 EC                        	PUSH	DWORD [-20+EBP]
  1986 000010BF 6A 00                           	PUSH	0
  1987 000010C1 FF 75 EC                        	PUSH	DWORD [-20+EBP]
  1988 000010C4 6A 00                           	PUSH	0
  1989 000010C6 53                              	PUSH	EBX
  1990 000010C7 FF 75 08                        	PUSH	DWORD [8+EBP]
  1991 000010CA E8 FFFFF2CE                     	CALL	_boxFill8
  1992 000010CF 8B 45 10                        	MOV	EAX,DWORD [16+EBP]
  1993 000010D2 83 C4 38                        	ADD	ESP,56
  1994 000010D5 83 E8 03                        	SUB	EAX,3
  1995 000010D8 50                              	PUSH	EAX
  1996 000010D9 8D 43 FD                        	LEA	EAX,DWORD [-3+EBX]
  1997 000010DC 50                              	PUSH	EAX
  1998 000010DD 6A 02                           	PUSH	2
  1999 000010DF 6A 02                           	PUSH	2
  2000 000010E1 6A 08                           	PUSH	8
  2001 000010E3 53                              	PUSH	EBX
  2002 000010E4 FF 75 08                        	PUSH	DWORD [8+EBP]
  2003 000010E7 E8 FFFFF2B1                     	CALL	_boxFill8
  2004 000010EC 8D 43 FC                        	LEA	EAX,DWORD [-4+EBX]
  2005 000010EF 6A 14                           	PUSH	20
  2006 000010F1 50                              	PUSH	EAX
  2007 000010F2 6A 03                           	PUSH	3
  2008 000010F4 6A 03                           	PUSH	3
  2009 000010F6 6A 0C                           	PUSH	12
  2010 000010F8 53                              	PUSH	EBX
  2011 000010F9 FF 75 08                        	PUSH	DWORD [8+EBP]
  2012 000010FC E8 FFFFF29C                     	CALL	_boxFill8
  2013 00001101 83 C4 38                        	ADD	ESP,56
  2014 00001104 56                              	PUSH	ESI
  2015 00001105 57                              	PUSH	EDI
  2016 00001106 56                              	PUSH	ESI
  2017 00001107 6A 01                           	PUSH	1
  2018 00001109 6A 0F                           	PUSH	15
  2019 0000110B 53                              	PUSH	EBX
  2020 0000110C FF 75 08                        	PUSH	DWORD [8+EBP]
  2021 0000110F E8 FFFFF289                     	CALL	_boxFill8
  2022 00001114 FF 75 E8                        	PUSH	DWORD [-24+EBP]
  2023 00001117 FF 75 EC                        	PUSH	DWORD [-20+EBP]
  2024 0000111A FF 75 E8                        	PUSH	DWORD [-24+EBP]
  2025 0000111D 6A 00                           	PUSH	0
  2026 0000111F 6A 00                           	PUSH	0
  2027 00001121 6B F3 05                        	IMUL	ESI,EBX,5
  2028 00001124 53                              	PUSH	EBX
  2029 00001125 FF 75 08                        	PUSH	DWORD [8+EBP]
  2030 00001128 E8 FFFFF270                     	CALL	_boxFill8
  2031 0000112D 83 C4 38                        	ADD	ESP,56
  2032 00001130 FF 75 14                        	PUSH	DWORD [20+EBP]
  2033 00001133 6A 07                           	PUSH	7
  2034 00001135 6A 04                           	PUSH	4
  2035 00001137 6A 18                           	PUSH	24
  2036 00001139 53                              	PUSH	EBX
  2037 0000113A FF 75 08                        	PUSH	DWORD [8+EBP]
  2038 0000113D E8 FFFFF4BD                     	CALL	_putFont8_asc
  2039 00001142 83 C4 18                        	ADD	ESP,24
  2040 00001145 C7 45 F0 00000000               	MOV	DWORD [-16+EBP],0
  2041 0000114C C7 45 E0 00000000               	MOV	DWORD [-32+EBP],0
  2042 00001153                                 L355:
  2043 00001153 8D 04 1E                        	LEA	EAX,DWORD [ESI+EBX*1]
  2044 00001156 8B 55 08                        	MOV	EDX,DWORD [8+EBP]
  2045 00001159 31 FF                           	XOR	EDI,EDI
  2046 0000115B 8D 4C 02 EB                     	LEA	ECX,DWORD [-21+EDX+EAX*1]
  2047 0000115F                                 L354:
  2048 0000115F 8B 45 E0                        	MOV	EAX,DWORD [-32+EBP]
  2049 00001162 8A 94 07 [00000130]             	MOV	DL,BYTE [_closeBtn.2+EDI+EAX*1]
  2050 00001169 80 FA 40                        	CMP	DL,64
  2051 0000116C 74 33                           	JE	L360
  2052 0000116E 80 FA 24                        	CMP	DL,36
  2053 00001171 74 2A                           	JE	L361
  2054 00001173 80 FA 51                        	CMP	DL,81
  2055 00001176 B2 08                           	MOV	DL,8
  2056 00001178 0F 95 C0                        	SETNE	AL
  2057 0000117B 28 C2                           	SUB	DL,AL
  2058 0000117D                                 L349:
  2059 0000117D 47                              	INC	EDI
  2060 0000117E 88 11                           	MOV	BYTE [ECX],DL
  2061 00001180 41                              	INC	ECX
  2062 00001181 83 FF 0F                        	CMP	EDI,15
  2063 00001184 7E D9                           	JLE	L354
  2064 00001186 FF 45 F0                        	INC	DWORD [-16+EBP]
  2065 00001189 01 DE                           	ADD	ESI,EBX
  2066 0000118B 83 45 E0 10                     	ADD	DWORD [-32+EBP],16
  2067 0000118F 83 7D F0 0D                     	CMP	DWORD [-16+EBP],13
  2068 00001193 7E BE                           	JLE	L355
  2069 00001195 8D 65 F4                        	LEA	ESP,DWORD [-12+EBP]
  2070 00001198 5B                              	POP	EBX
  2071 00001199 5E                              	POP	ESI
  2072 0000119A 5F                              	POP	EDI
  2073 0000119B 5D                              	POP	EBP
  2074 0000119C C3                              	RET
  2075 0000119D                                 L361:
  2076 0000119D B2 0F                           	MOV	DL,15
  2077 0000119F EB DC                           	JMP	L349
  2078 000011A1                                 L360:
  2079 000011A1 31 D2                           	XOR	EDX,EDX
  2080 000011A3 EB D8                           	JMP	L349
  2081                                          [SECTION .data]
  2082 00000210                                 LC0:
  2083 00000210 63 6F 75 6E 74 65 72 00         	DB	"counter",0x00
  2084 00000218                                 LC1:
  2085 00000218 44 69 63 6B 4F 53 00            	DB	"DickOS",0x00
  2086 0000021F                                 LC2:
  2087 0000021F 28 25 64 2C 20 25 64 29 00      	DB	"(%d, %d)",0x00
  2088 00000228                                 LC3:
  2089 00000228 6D 65 6D 6F 72 79 20 25 64 4D   	DB	"memory %dMB free : %dKB",0x00
       00000232 42 20 66 72 65 65 20 3A 20 25 
       0000023C 64 4B 42 00 
  2090 00000240                                 LC4:
  2091 00000240 25 30 31 30 64 00               	DB	"%010d",0x00
  2092 00000246                                 LC6:
  2093 00000246 5B 6C 63 72 20 25 34 64 20 25   	DB	"[lcr %4d %4d]",0x00
       00000250 34 64 5D 00 
  2094 00000254                                 LC7:
  2095 00000254 28 25 33 64 2C 20 25 33 64 29   	DB	"(%3d, %3d)",0x00
       0000025E 00 
  2096 0000025F                                 LC5:
  2097 0000025F 25 30 32 58 00                  	DB	"%02X",0x00
  2098                                          [SECTION .text]
  2099 000011A5                                 	GLOBAL	_Main
  2100 000011A5                                 _Main:
  2101 000011A5 55                              	PUSH	EBP
  2102 000011A6 89 E5                           	MOV	EBP,ESP
  2103 000011A8 57                              	PUSH	EDI
  2104 000011A9 56                              	PUSH	ESI
  2105 000011AA 53                              	PUSH	EBX
  2106 000011AB 81 EC 00000200                  	SUB	ESP,512
  2107 000011B1 C7 85 FFFFFE10 00000000         	MOV	DWORD [-496+EBP],0
  2108 000011BB E8 FFFFF04E                     	CALL	_initGdtit
  2109 000011C0 E8 FFFFEEDE                     	CALL	_init_pic
  2110 000011C5 E8 [00000000]                   	CALL	_io_sti
  2111 000011CA 8D 45 A4                        	LEA	EAX,DWORD [-92+EBP]
  2112 000011CD 50                              	PUSH	EAX
  2113 000011CE 6A 20                           	PUSH	32
  2114 000011D0 68 [00000270]                   	PUSH	_keybuf
  2115 000011D5 E8 FFFFEE26                     	CALL	_QueueInit
  2116 000011DA 8D 85 FFFFFF24                  	LEA	EAX,DWORD [-220+EBP]
  2117 000011E0 50                              	PUSH	EAX
  2118 000011E1 68 00000080                     	PUSH	128
  2119 000011E6 68 [00000290]                   	PUSH	_mousebuf
  2120 000011EB E8 FFFFEE10                     	CALL	_QueueInit
  2121 000011F0 E8 FFFFFE13                     	CALL	_initPit
  2122 000011F5 68 000000F9                     	PUSH	249
  2123 000011FA 6A 21                           	PUSH	33
  2124 000011FC E8 [00000000]                   	CALL	_io_out8
  2125 00001201 83 C4 20                        	ADD	ESP,32
  2126 00001204 68 000000EF                     	PUSH	239
  2127 00001209 68 000000A1                     	PUSH	161
  2128 0000120E E8 [00000000]                   	CALL	_io_out8
  2129 00001213 E8 FFFFF4FB                     	CALL	_initKeyboard
  2130 00001218 8D 85 FFFFFF14                  	LEA	EAX,DWORD [-236+EBP]
  2131 0000121E 50                              	PUSH	EAX
  2132 0000121F E8 FFFFF510                     	CALL	_enableMouse
  2133 00001224 68 BFFFFFFF                     	PUSH	-1073741825
  2134 00001229 68 00400000                     	PUSH	4194304
  2135 0000122E E8 FFFFF5CD                     	CALL	_memtest
  2136 00001233 68 003C0000                     	PUSH	3932160
  2137 00001238 89 C3                           	MOV	EBX,EAX
  2138 0000123A E8 FFFFF65D                     	CALL	_memsegInit
  2139 0000123F 68 0009E000                     	PUSH	647168
  2140 00001244 68 00001000                     	PUSH	4096
  2141 00001249 68 003C0000                     	PUSH	3932160
  2142 0000124E E8 FFFFF6CF                     	CALL	_memsegFree
  2143 00001253 8D 83 FFC00000                  	LEA	EAX,DWORD [-4194304+EBX]
  2144 00001259 83 C4 24                        	ADD	ESP,36
  2145 0000125C 50                              	PUSH	EAX
  2146 0000125D 68 00400000                     	PUSH	4194304
  2147 00001262 68 003C0000                     	PUSH	3932160
  2148 00001267 E8 FFFFF6B6                     	CALL	_memsegFree
  2149 0000126C E8 FFFFF119                     	CALL	_init_palette
  2150 00001271 0F BF 05 00000FF6               	MOVSX	EAX,WORD [4086]
  2151 00001278 50                              	PUSH	EAX
  2152 00001279 0F BF 05 00000FF4               	MOVSX	EAX,WORD [4084]
  2153 00001280 50                              	PUSH	EAX
  2154 00001281 FF 35 00000FF8                  	PUSH	DWORD [4088]
  2155 00001287 68 003C0000                     	PUSH	3932160
  2156 0000128C E8 FFFFF7A9                     	CALL	_shtctlInit
  2157 00001291 89 C3                           	MOV	EBX,EAX
  2158 00001293 50                              	PUSH	EAX
  2159 00001294 E8 FFFFF824                     	CALL	_sheetAlloc
  2160 00001299 83 C4 20                        	ADD	ESP,32
  2161 0000129C 53                              	PUSH	EBX
  2162 0000129D 89 85 FFFFFE0C                  	MOV	DWORD [-500+EBP],EAX
  2163 000012A3 E8 FFFFF815                     	CALL	_sheetAlloc
  2164 000012A8 53                              	PUSH	EBX
  2165 000012A9 8D 9D FFFFFE14                  	LEA	EBX,DWORD [-492+EBP]
  2166 000012AF 89 85 FFFFFE08                  	MOV	DWORD [-504+EBP],EAX
  2167 000012B5 E8 FFFFF803                     	CALL	_sheetAlloc
  2168 000012BA 0F BF 15 00000FF6               	MOVSX	EDX,WORD [4086]
  2169 000012C1 89 85 FFFFFE04                  	MOV	DWORD [-508+EBP],EAX
  2170 000012C7 0F BF 05 00000FF4               	MOVSX	EAX,WORD [4084]
  2171 000012CE 0F AF C2                        	IMUL	EAX,EDX
  2172 000012D1 50                              	PUSH	EAX
  2173 000012D2 68 003C0000                     	PUSH	3932160
  2174 000012D7 E8 FFFFF72C                     	CALL	_memsegAlloc4K
  2175 000012DC 68 00002080                     	PUSH	8320
  2176 000012E1 68 003C0000                     	PUSH	3932160
  2177 000012E6 89 85 FFFFFE00                  	MOV	DWORD [-512+EBP],EAX
  2178 000012EC E8 FFFFF717                     	CALL	_memsegAlloc4K
  2179 000012F1 6A FF                           	PUSH	-1
  2180 000012F3 89 85 FFFFFDFC                  	MOV	DWORD [-516+EBP],EAX
  2181 000012F9 0F BF 05 00000FF6               	MOVSX	EAX,WORD [4086]
  2182 00001300 50                              	PUSH	EAX
  2183 00001301 0F BF 05 00000FF4               	MOVSX	EAX,WORD [4084]
  2184 00001308 50                              	PUSH	EAX
  2185 00001309 FF B5 FFFFFE00                  	PUSH	DWORD [-512+EBP]
  2186 0000130F FF B5 FFFFFE0C                  	PUSH	DWORD [-500+EBP]
  2187 00001315 E8 FFFFF7D6                     	CALL	_sheetSetbuf
  2188 0000131A 83 C4 2C                        	ADD	ESP,44
  2189 0000131D 6A 0E                           	PUSH	14
  2190 0000131F 6A 10                           	PUSH	16
  2191 00001321 6A 10                           	PUSH	16
  2192 00001323 53                              	PUSH	EBX
  2193 00001324 FF B5 FFFFFE08                  	PUSH	DWORD [-504+EBP]
  2194 0000132A E8 FFFFF7C1                     	CALL	_sheetSetbuf
  2195 0000132F 6A FF                           	PUSH	-1
  2196 00001331 6A 34                           	PUSH	52
  2197 00001333 68 000000A0                     	PUSH	160
  2198 00001338 FF B5 FFFFFDFC                  	PUSH	DWORD [-516+EBP]
  2199 0000133E FF B5 FFFFFE04                  	PUSH	DWORD [-508+EBP]
  2200 00001344 E8 FFFFF7A7                     	CALL	_sheetSetbuf
  2201 00001349 83 C4 28                        	ADD	ESP,40
  2202 0000134C 0F BF 05 00000FF6               	MOVSX	EAX,WORD [4086]
  2203 00001353 50                              	PUSH	EAX
  2204 00001354 0F BF 05 00000FF4               	MOVSX	EAX,WORD [4084]
  2205 0000135B 50                              	PUSH	EAX
  2206 0000135C FF B5 FFFFFE00                  	PUSH	DWORD [-512+EBP]
  2207 00001362 E8 FFFFF087                     	CALL	_init_GUI
  2208 00001367 6A 0E                           	PUSH	14
  2209 00001369 53                              	PUSH	EBX
  2210 0000136A BB 00000002                     	MOV	EBX,2
  2211 0000136F E8 FFFFF2DA                     	CALL	_initMouseCursor8
  2212 00001374 68 [00000210]                   	PUSH	LC0
  2213 00001379 6A 34                           	PUSH	52
  2214 0000137B 68 000000A0                     	PUSH	160
  2215 00001380 FF B5 FFFFFDFC                  	PUSH	DWORD [-516+EBP]
  2216 00001386 E8 FFFFFCAE                     	CALL	_makeWindow
  2217 0000138B 83 C4 24                        	ADD	ESP,36
  2218 0000138E 6A 00                           	PUSH	0
  2219 00001390 6A 00                           	PUSH	0
  2220 00001392 FF B5 FFFFFE0C                  	PUSH	DWORD [-500+EBP]
  2221 00001398 E8 FFFFFBAB                     	CALL	_sheetSlide
  2222 0000139D 0F BF 05 00000FF4               	MOVSX	EAX,WORD [4084]
  2223 000013A4 8D 48 F0                        	LEA	ECX,DWORD [-16+EAX]
  2224 000013A7 89 C8                           	MOV	EAX,ECX
  2225 000013A9 99                              	CDQ
  2226 000013AA F7 FB                           	IDIV	EBX
  2227 000013AC 89 C7                           	MOV	EDI,EAX
  2228 000013AE 0F BF 05 00000FF6               	MOVSX	EAX,WORD [4086]
  2229 000013B5 8D 48 D4                        	LEA	ECX,DWORD [-44+EAX]
  2230 000013B8 89 C8                           	MOV	EAX,ECX
  2231 000013BA 99                              	CDQ
  2232 000013BB F7 FB                           	IDIV	EBX
  2233 000013BD 50                              	PUSH	EAX
  2234 000013BE 89 C6                           	MOV	ESI,EAX
  2235 000013C0 57                              	PUSH	EDI
  2236 000013C1 8D 5D C4                        	LEA	EBX,DWORD [-60+EBP]
  2237 000013C4 FF B5 FFFFFE08                  	PUSH	DWORD [-504+EBP]
  2238 000013CA E8 FFFFFB79                     	CALL	_sheetSlide
  2239 000013CF 6A 50                           	PUSH	80
  2240 000013D1 6A 50                           	PUSH	80
  2241 000013D3 FF B5 FFFFFE04                  	PUSH	DWORD [-508+EBP]
  2242 000013D9 E8 FFFFFB6A                     	CALL	_sheetSlide
  2243 000013DE 83 C4 24                        	ADD	ESP,36
  2244 000013E1 6A 00                           	PUSH	0
  2245 000013E3 FF B5 FFFFFE0C                  	PUSH	DWORD [-500+EBP]
  2246 000013E9 E8 FFFFF87E                     	CALL	_sheetUpdown
  2247 000013EE 6A 01                           	PUSH	1
  2248 000013F0 FF B5 FFFFFE04                  	PUSH	DWORD [-508+EBP]
  2249 000013F6 E8 FFFFF871                     	CALL	_sheetUpdown
  2250 000013FB 6A 02                           	PUSH	2
  2251 000013FD FF B5 FFFFFE08                  	PUSH	DWORD [-504+EBP]
  2252 00001403 E8 FFFFF864                     	CALL	_sheetUpdown
  2253 00001408 68 [00000218]                   	PUSH	LC1
  2254 0000140D 6A 07                           	PUSH	7
  2255 0000140F 6A 20                           	PUSH	32
  2256 00001411 6A 1E                           	PUSH	30
  2257 00001413 0F BF 05 00000FF4               	MOVSX	EAX,WORD [4084]
  2258 0000141A 50                              	PUSH	EAX
  2259 0000141B FF B5 FFFFFE00                  	PUSH	DWORD [-512+EBP]
  2260 00001421 E8 FFFFF1D9                     	CALL	_putFont8_asc
  2261 00001426 83 C4 30                        	ADD	ESP,48
  2262 00001429 56                              	PUSH	ESI
  2263 0000142A 57                              	PUSH	EDI
  2264 0000142B 68 [0000021F]                   	PUSH	LC2
  2265 00001430 53                              	PUSH	EBX
  2266 00001431 E8 [00000000]                   	CALL	_sprintf
  2267 00001436 53                              	PUSH	EBX
  2268 00001437 6A 07                           	PUSH	7
  2269 00001439 6A 00                           	PUSH	0
  2270 0000143B 6A 00                           	PUSH	0
  2271 0000143D 0F BF 05 00000FF4               	MOVSX	EAX,WORD [4084]
  2272 00001444 50                              	PUSH	EAX
  2273 00001445 FF B5 FFFFFE00                  	PUSH	DWORD [-512+EBP]
  2274 0000144B E8 FFFFF1AF                     	CALL	_putFont8_asc
  2275 00001450 83 C4 28                        	ADD	ESP,40
  2276 00001453 68 003C0000                     	PUSH	3932160
  2277 00001458 E8 FFFFF422                     	CALL	_memsegTotal
  2278 0000145D C1 E8 0A                        	SHR	EAX,10
  2279 00001460 89 04 24                        	MOV	DWORD [ESP],EAX
  2280 00001463 68 BFFFFFFF                     	PUSH	-1073741825
  2281 00001468 68 00400000                     	PUSH	4194304
  2282 0000146D E8 FFFFF38E                     	CALL	_memtest
  2283 00001472 5A                              	POP	EDX
  2284 00001473 C1 E8 14                        	SHR	EAX,20
  2285 00001476 59                              	POP	ECX
  2286 00001477 50                              	PUSH	EAX
  2287 00001478 68 [00000228]                   	PUSH	LC3
  2288 0000147D 53                              	PUSH	EBX
  2289 0000147E E8 [00000000]                   	CALL	_sprintf
  2290 00001483 53                              	PUSH	EBX
  2291 00001484 6A 07                           	PUSH	7
  2292 00001486 6A 40                           	PUSH	64
  2293 00001488 6A 00                           	PUSH	0
  2294 0000148A 0F BF 05 00000FF4               	MOVSX	EAX,WORD [4084]
  2295 00001491 50                              	PUSH	EAX
  2296 00001492 FF B5 FFFFFE00                  	PUSH	DWORD [-512+EBP]
  2297 00001498 E8 FFFFF162                     	CALL	_putFont8_asc
  2298 0000149D 83 C4 28                        	ADD	ESP,40
  2299 000014A0 68 000000AC                     	PUSH	172
  2300 000014A5 0F BF 05 00000FF4               	MOVSX	EAX,WORD [4084]
  2301 000014AC 50                              	PUSH	EAX
  2302 000014AD 6A 00                           	PUSH	0
  2303 000014AF 6A 00                           	PUSH	0
  2304 000014B1 FF B5 FFFFFE0C                  	PUSH	DWORD [-500+EBP]
  2305 000014B7 E8 FFFFF8EC                     	CALL	_sheetRefresh
  2306 000014BC 83 C4 14                        	ADD	ESP,20
  2307 000014BF                                 L363:
  2308 000014BF FF 85 FFFFFE10                  	INC	DWORD [-496+EBP]
  2309 000014C5 8D 5D C4                        	LEA	EBX,DWORD [-60+EBP]
  2310 000014C8 FF B5 FFFFFE10                  	PUSH	DWORD [-496+EBP]
  2311 000014CE 68 [00000240]                   	PUSH	LC4
  2312 000014D3 53                              	PUSH	EBX
  2313 000014D4 E8 [00000000]                   	CALL	_sprintf
  2314 000014D9 6A 2B                           	PUSH	43
  2315 000014DB 6A 77                           	PUSH	119
  2316 000014DD 6A 1C                           	PUSH	28
  2317 000014DF 6A 28                           	PUSH	40
  2318 000014E1 6A 08                           	PUSH	8
  2319 000014E3 68 000000A0                     	PUSH	160
  2320 000014E8 FF B5 FFFFFDFC                  	PUSH	DWORD [-516+EBP]
  2321 000014EE E8 FFFFEEAA                     	CALL	_boxFill8
  2322 000014F3 83 C4 28                        	ADD	ESP,40
  2323 000014F6 53                              	PUSH	EBX
  2324 000014F7 6A 00                           	PUSH	0
  2325 000014F9 6A 1C                           	PUSH	28
  2326 000014FB 6A 28                           	PUSH	40
  2327 000014FD 68 000000A0                     	PUSH	160
  2328 00001502 FF B5 FFFFFDFC                  	PUSH	DWORD [-516+EBP]
  2329 00001508 E8 FFFFF0F2                     	CALL	_putFont8_asc
  2330 0000150D 6A 2C                           	PUSH	44
  2331 0000150F 6A 78                           	PUSH	120
  2332 00001511 6A 1C                           	PUSH	28
  2333 00001513 6A 28                           	PUSH	40
  2334 00001515 FF B5 FFFFFE04                  	PUSH	DWORD [-508+EBP]
  2335 0000151B E8 FFFFF888                     	CALL	_sheetRefresh
  2336 00001520 83 C4 2C                        	ADD	ESP,44
  2337 00001523 E8 [00000000]                   	CALL	_io_cli
  2338 00001528 68 [00000270]                   	PUSH	_keybuf
  2339 0000152D E8 FFFFEB63                     	CALL	_QueueSize
  2340 00001532 68 [00000290]                   	PUSH	_mousebuf
  2341 00001537 89 C3                           	MOV	EBX,EAX
  2342 00001539 E8 FFFFEB57                     	CALL	_QueueSize
  2343 0000153E 5A                              	POP	EDX
  2344 0000153F 8D 04 18                        	LEA	EAX,DWORD [EAX+EBX*1]
  2345 00001542 59                              	POP	ECX
  2346 00001543 85 C0                           	TEST	EAX,EAX
  2347 00001545 0F 84 0000021E                  	JE	L379
  2348 0000154B 68 [00000270]                   	PUSH	_keybuf
  2349 00001550 E8 FFFFEB40                     	CALL	_QueueSize
  2350 00001555 5B                              	POP	EBX
  2351 00001556 85 C0                           	TEST	EAX,EAX
  2352 00001558 0F 85 00000193                  	JNE	L380
  2353 0000155E 68 [00000290]                   	PUSH	_mousebuf
  2354 00001563 E8 FFFFEB2D                     	CALL	_QueueSize
  2355 00001568 59                              	POP	ECX
  2356 00001569 85 C0                           	TEST	EAX,EAX
  2357 0000156B 0F 84 FFFFFF4E                  	JE	L363
  2358 00001571 68 [00000290]                   	PUSH	_mousebuf
  2359 00001576 E8 FFFFEAE7                     	CALL	_QueuePop
  2360 0000157B 89 C3                           	MOV	EBX,EAX
  2361 0000157D E8 [00000000]                   	CALL	_io_sti
  2362 00001582 0F B6 C3                        	MOVZX	EAX,BL
  2363 00001585 50                              	PUSH	EAX
  2364 00001586 8D 85 FFFFFF14                  	LEA	EAX,DWORD [-236+EBP]
  2365 0000158C 50                              	PUSH	EAX
  2366 0000158D E8 FFFFF1D0                     	CALL	_mouseDecode
  2367 00001592 83 C4 0C                        	ADD	ESP,12
  2368 00001595 85 C0                           	TEST	EAX,EAX
  2369 00001597 0F 84 FFFFFF22                  	JE	L363
  2370 0000159D FF B5 FFFFFF1C                  	PUSH	DWORD [-228+EBP]
  2371 000015A3 FF B5 FFFFFF18                  	PUSH	DWORD [-232+EBP]
  2372 000015A9 68 [00000246]                   	PUSH	LC6
  2373 000015AE 8D 45 C4                        	LEA	EAX,DWORD [-60+EBP]
  2374 000015B1 50                              	PUSH	EAX
  2375 000015B2 E8 [00000000]                   	CALL	_sprintf
  2376 000015B7 83 C4 10                        	ADD	ESP,16
  2377 000015BA 8B 85 FFFFFF20                  	MOV	EAX,DWORD [-224+EBP]
  2378 000015C0 A9 00000001                     	TEST	EAX,1
  2379 000015C5 74 04                           	JE	L372
  2380 000015C7 C6 45 C5 4C                     	MOV	BYTE [-59+EBP],76
  2381 000015CB                                 L372:
  2382 000015CB A9 00000002                     	TEST	EAX,2
  2383 000015D0 74 04                           	JE	L373
  2384 000015D2 C6 45 C7 52                     	MOV	BYTE [-57+EBP],82
  2385 000015D6                                 L373:
  2386 000015D6 83 E0 04                        	AND	EAX,4
  2387 000015D9 74 04                           	JE	L374
  2388 000015DB C6 45 C6 43                     	MOV	BYTE [-58+EBP],67
  2389 000015DF                                 L374:
  2390 000015DF 6A 1F                           	PUSH	31
  2391 000015E1 68 00000097                     	PUSH	151
  2392 000015E6 6A 10                           	PUSH	16
  2393 000015E8 6A 20                           	PUSH	32
  2394 000015EA 6A 0E                           	PUSH	14
  2395 000015EC 0F BF 05 00000FF4               	MOVSX	EAX,WORD [4084]
  2396 000015F3 50                              	PUSH	EAX
  2397 000015F4 FF B5 FFFFFE00                  	PUSH	DWORD [-512+EBP]
  2398 000015FA E8 FFFFED9E                     	CALL	_boxFill8
  2399 000015FF 8D 55 C4                        	LEA	EDX,DWORD [-60+EBP]
  2400 00001602 52                              	PUSH	EDX
  2401 00001603 6A 07                           	PUSH	7
  2402 00001605 6A 10                           	PUSH	16
  2403 00001607 6A 20                           	PUSH	32
  2404 00001609 0F BF 05 00000FF4               	MOVSX	EAX,WORD [4084]
  2405 00001610 50                              	PUSH	EAX
  2406 00001611 FF B5 FFFFFE00                  	PUSH	DWORD [-512+EBP]
  2407 00001617 E8 FFFFEFE3                     	CALL	_putFont8_asc
  2408 0000161C 83 C4 34                        	ADD	ESP,52
  2409 0000161F 6A 20                           	PUSH	32
  2410 00001621 68 00000098                     	PUSH	152
  2411 00001626 6A 10                           	PUSH	16
  2412 00001628 6A 20                           	PUSH	32
  2413 0000162A FF B5 FFFFFE0C                  	PUSH	DWORD [-500+EBP]
  2414 00001630 E8 FFFFF773                     	CALL	_sheetRefresh
  2415 00001635 83 C4 14                        	ADD	ESP,20
  2416 00001638 03 B5 FFFFFF1C                  	ADD	ESI,DWORD [-228+EBP]
  2417 0000163E 03 BD FFFFFF18                  	ADD	EDI,DWORD [-232+EBP]
  2418 00001644 0F 88 000000A0                  	JS	L381
  2419 0000164A                                 L375:
  2420 0000164A 85 F6                           	TEST	ESI,ESI
  2421 0000164C 0F 88 00000091                  	JS	L382
  2422 00001652                                 L376:
  2423 00001652 0F BF 05 00000FF4               	MOVSX	EAX,WORD [4084]
  2424 00001659 48                              	DEC	EAX
  2425 0000165A 39 C7                           	CMP	EDI,EAX
  2426 0000165C 7E 02                           	JLE	L377
  2427 0000165E 89 C7                           	MOV	EDI,EAX
  2428 00001660                                 L377:
  2429 00001660 0F BF 05 00000FF6               	MOVSX	EAX,WORD [4086]
  2430 00001667 48                              	DEC	EAX
  2431 00001668 39 C6                           	CMP	ESI,EAX
  2432 0000166A 7E 02                           	JLE	L378
  2433 0000166C 89 C6                           	MOV	ESI,EAX
  2434 0000166E                                 L378:
  2435 0000166E 56                              	PUSH	ESI
  2436 0000166F 8D 5D C4                        	LEA	EBX,DWORD [-60+EBP]
  2437 00001672 57                              	PUSH	EDI
  2438 00001673 68 [00000254]                   	PUSH	LC7
  2439 00001678 53                              	PUSH	EBX
  2440 00001679 E8 [00000000]                   	CALL	_sprintf
  2441 0000167E 6A 0F                           	PUSH	15
  2442 00001680 6A 4F                           	PUSH	79
  2443 00001682 6A 00                           	PUSH	0
  2444 00001684 6A 00                           	PUSH	0
  2445 00001686 6A 0E                           	PUSH	14
  2446 00001688 0F BF 05 00000FF4               	MOVSX	EAX,WORD [4084]
  2447 0000168F 50                              	PUSH	EAX
  2448 00001690 FF B5 FFFFFE00                  	PUSH	DWORD [-512+EBP]
  2449 00001696 E8 FFFFED02                     	CALL	_boxFill8
  2450 0000169B 83 C4 2C                        	ADD	ESP,44
  2451 0000169E 53                              	PUSH	EBX
  2452 0000169F 6A 07                           	PUSH	7
  2453 000016A1 6A 00                           	PUSH	0
  2454 000016A3 6A 00                           	PUSH	0
  2455 000016A5 0F BF 05 00000FF4               	MOVSX	EAX,WORD [4084]
  2456 000016AC 50                              	PUSH	EAX
  2457 000016AD FF B5 FFFFFE00                  	PUSH	DWORD [-512+EBP]
  2458 000016B3 E8 FFFFEF47                     	CALL	_putFont8_asc
  2459 000016B8 6A 10                           	PUSH	16
  2460 000016BA 6A 50                           	PUSH	80
  2461 000016BC 6A 00                           	PUSH	0
  2462 000016BE 6A 00                           	PUSH	0
  2463 000016C0 FF B5 FFFFFE0C                  	PUSH	DWORD [-500+EBP]
  2464 000016C6 E8 FFFFF6DD                     	CALL	_sheetRefresh
  2465 000016CB 83 C4 2C                        	ADD	ESP,44
  2466 000016CE 56                              	PUSH	ESI
  2467 000016CF 57                              	PUSH	EDI
  2468 000016D0 FF B5 FFFFFE08                  	PUSH	DWORD [-504+EBP]
  2469 000016D6 E8 FFFFF86D                     	CALL	_sheetSlide
  2470 000016DB 83 C4 0C                        	ADD	ESP,12
  2471 000016DE E9 FFFFFDDC                     	JMP	L363
  2472 000016E3                                 L382:
  2473 000016E3 31 F6                           	XOR	ESI,ESI
  2474 000016E5 E9 FFFFFF68                     	JMP	L376
  2475 000016EA                                 L381:
  2476 000016EA 31 FF                           	XOR	EDI,EDI
  2477 000016EC E9 FFFFFF59                     	JMP	L375
  2478 000016F1                                 L380:
  2479 000016F1 68 [00000270]                   	PUSH	_keybuf
  2480 000016F6 E8 FFFFE967                     	CALL	_QueuePop
  2481 000016FB 89 C3                           	MOV	EBX,EAX
  2482 000016FD E8 [00000000]                   	CALL	_io_sti
  2483 00001702 53                              	PUSH	EBX
  2484 00001703 8D 55 C4                        	LEA	EDX,DWORD [-60+EBP]
  2485 00001706 68 [0000025F]                   	PUSH	LC5
  2486 0000170B 8D 5D C4                        	LEA	EBX,DWORD [-60+EBP]
  2487 0000170E 52                              	PUSH	EDX
  2488 0000170F E8 [00000000]                   	CALL	_sprintf
  2489 00001714 6A 1F                           	PUSH	31
  2490 00001716 6A 0F                           	PUSH	15
  2491 00001718 6A 10                           	PUSH	16
  2492 0000171A 6A 00                           	PUSH	0
  2493 0000171C 6A 0E                           	PUSH	14
  2494 0000171E 0F BF 05 00000FF4               	MOVSX	EAX,WORD [4084]
  2495 00001725 50                              	PUSH	EAX
  2496 00001726 FF B5 FFFFFE00                  	PUSH	DWORD [-512+EBP]
  2497 0000172C E8 FFFFEC6C                     	CALL	_boxFill8
  2498 00001731 83 C4 2C                        	ADD	ESP,44
  2499 00001734 53                              	PUSH	EBX
  2500 00001735 6A 07                           	PUSH	7
  2501 00001737 6A 10                           	PUSH	16
  2502 00001739 6A 00                           	PUSH	0
  2503 0000173B 0F BF 05 00000FF4               	MOVSX	EAX,WORD [4084]
  2504 00001742 50                              	PUSH	EAX
  2505 00001743 FF B5 FFFFFE00                  	PUSH	DWORD [-512+EBP]
  2506 00001749 E8 FFFFEEB1                     	CALL	_putFont8_asc
  2507 0000174E 6A 20                           	PUSH	32
  2508 00001750 6A 10                           	PUSH	16
  2509 00001752 6A 10                           	PUSH	16
  2510 00001754 6A 00                           	PUSH	0
  2511 00001756 FF B5 FFFFFE0C                  	PUSH	DWORD [-500+EBP]
  2512 0000175C E8 FFFFF647                     	CALL	_sheetRefresh
  2513 00001761 83 C4 2C                        	ADD	ESP,44
  2514 00001764 E9 FFFFFD56                     	JMP	L363
  2515 00001769                                 L379:
  2516 00001769 E8 [00000000]                   	CALL	_io_sti
  2517 0000176E E9 FFFFFD4C                     	JMP	L363
  2518 00001773                                 	GLOBAL	_keybuf
  2519                                          [SECTION .data]
  2520 00000264 00 00 00 00 00 00 00 00 00 00   	ALIGNB	16
       0000026E 00 00 
  2521 00000270                                 _keybuf:
  2522 00000270 00 00 00 00 00 00 00 00 00 00   	RESB	24
       0000027A 00 00 00 00 00 00 00 00 00 00 
       00000284 00 00 00 00 
  2523 00000288                                 	GLOBAL	_mousebuf
  2524                                          [SECTION .data]
  2525 00000288 00 00 00 00 00 00 00 00         	ALIGNB	16
  2526 00000290                                 _mousebuf:
  2527 00000290 00 00 00 00 00 00 00 00 00 00   	RESB	24
       0000029A 00 00 00 00 00 00 00 00 00 00 
       000002A4 00 00 00 00 
