     1 00000000                                 [FORMAT "WCOFF"]
     2 00000000                                 [INSTRSET "i486p"]
     3 00000000                                 [OPTIMIZE 1]
     4 00000000                                 [OPTION 1]
     5 00000000                                 [BITS 32]
     6 00000000                                 	EXTERN	_io_in8
     7 00000000                                 	EXTERN	_io_out8
     8 00000000                                 	EXTERN	_io_load_eflags
     9 00000000                                 	EXTERN	_io_cli
    10 00000000                                 	EXTERN	_io_store_eflags
    11 00000000                                 	EXTERN	_loadTr
    12 00000000                                 	EXTERN	_farJmp
    13 00000000                                 	EXTERN	_loadGdtr
    14 00000000                                 	EXTERN	_loadIdtr
    15 00000000                                 	EXTERN	_asm_interruptHandler20
    16 00000000                                 	EXTERN	_asm_interruptHandler21
    17 00000000                                 	EXTERN	_asm_interruptHandler27
    18 00000000                                 	EXTERN	_asm_interruptHandler2c
    19 00000000                                 	EXTERN	_font
    20 00000000                                 	EXTERN	_memtest_sub
    21 00000000                                 	EXTERN	_loadCr0
    22 00000000                                 	EXTERN	_storeCr0
    23 00000000                                 	EXTERN	_io_sti
    24 00000000                                 	EXTERN	_sprintf
    25 00000000                                 [FILE "bootpack.c"]
    26                                          [SECTION .text]
    27 00000000                                 	GLOBAL	_QueueInit
    28 00000000                                 _QueueInit:
    29 00000000 55                              	PUSH	EBP
    30 00000001 89 E5                           	MOV	EBP,ESP
    31 00000003 8B 45 08                        	MOV	EAX,DWORD [8+EBP]
    32 00000006 8B 55 10                        	MOV	EDX,DWORD [16+EBP]
    33 00000009 8B 4D 0C                        	MOV	ECX,DWORD [12+EBP]
    34 0000000C 89 10                           	MOV	DWORD [EAX],EDX
    35 0000000E 89 48 0C                        	MOV	DWORD [12+EAX],ECX
    36 00000011 8B 55 14                        	MOV	EDX,DWORD [20+EBP]
    37 00000014 89 48 10                        	MOV	DWORD [16+EAX],ECX
    38 00000017 C7 40 14 00000000               	MOV	DWORD [20+EAX],0
    39 0000001E C7 40 08 00000000               	MOV	DWORD [8+EAX],0
    40 00000025 C7 40 04 00000000               	MOV	DWORD [4+EAX],0
    41 0000002C 89 50 18                        	MOV	DWORD [24+EAX],EDX
    42 0000002F 5D                              	POP	EBP
    43 00000030 C3                              	RET
    44 00000031                                 	GLOBAL	_QueuePush
    45 00000031                                 _QueuePush:
    46 00000031 55                              	PUSH	EBP
    47 00000032 89 E5                           	MOV	EBP,ESP
    48 00000034 53                              	PUSH	EBX
    49 00000035 8B 5D 08                        	MOV	EBX,DWORD [8+EBP]
    50 00000038 83 7B 10 00                     	CMP	DWORD [16+EBX],0
    51 0000003C 75 0C                           	JNE	L3
    52 0000003E 83 4B 14 01                     	OR	DWORD [20+EBX],1
    53 00000042 83 C8 FF                        	OR	EAX,-1
    54 00000045                                 L2:
    55 00000045 8B 5D FC                        	MOV	EBX,DWORD [-4+EBP]
    56 00000048 C9                              	LEAVE
    57 00000049 C3                              	RET
    58 0000004A                                 L3:
    59 0000004A 8B 4B 04                        	MOV	ECX,DWORD [4+EBX]
    60 0000004D 8B 13                           	MOV	EDX,DWORD [EBX]
    61 0000004F 8B 45 0C                        	MOV	EAX,DWORD [12+EBP]
    62 00000052 89 04 8A                        	MOV	DWORD [EDX+ECX*4],EAX
    63 00000055 8B 43 04                        	MOV	EAX,DWORD [4+EBX]
    64 00000058 FF 4B 10                        	DEC	DWORD [16+EBX]
    65 0000005B 40                              	INC	EAX
    66 0000005C 99                              	CDQ
    67 0000005D F7 7B 0C                        	IDIV	DWORD [12+EBX]
    68 00000060 8B 43 18                        	MOV	EAX,DWORD [24+EBX]
    69 00000063 89 53 04                        	MOV	DWORD [4+EBX],EDX
    70 00000066 85 C0                           	TEST	EAX,EAX
    71 00000068 74 13                           	JE	L4
    72 0000006A 83 78 04 02                     	CMP	DWORD [4+EAX],2
    73 0000006E 74 0D                           	JE	L4
    74 00000070 6A 00                           	PUSH	0
    75 00000072 6A FF                           	PUSH	-1
    76 00000074 50                              	PUSH	EAX
    77 00000075 E8 000004C7                     	CALL	_processRun
    78 0000007A 83 C4 0C                        	ADD	ESP,12
    79 0000007D                                 L4:
    80 0000007D 31 C0                           	XOR	EAX,EAX
    81 0000007F EB C4                           	JMP	L2
    82 00000081                                 	GLOBAL	_QueuePop
    83 00000081                                 _QueuePop:
    84 00000081 55                              	PUSH	EBP
    85 00000082 83 C8 FF                        	OR	EAX,-1
    86 00000085 89 E5                           	MOV	EBP,ESP
    87 00000087 57                              	PUSH	EDI
    88 00000088 56                              	PUSH	ESI
    89 00000089 8B 75 08                        	MOV	ESI,DWORD [8+EBP]
    90 0000008C 53                              	PUSH	EBX
    91 0000008D 8B 7E 10                        	MOV	EDI,DWORD [16+ESI]
    92 00000090 8B 5E 0C                        	MOV	EBX,DWORD [12+ESI]
    93 00000093 39 DF                           	CMP	EDI,EBX
    94 00000095 74 17                           	JE	L6
    95 00000097 8B 46 08                        	MOV	EAX,DWORD [8+ESI]
    96 0000009A 8B 16                           	MOV	EDX,DWORD [ESI]
    97 0000009C 8B 0C 82                        	MOV	ECX,DWORD [EDX+EAX*4]
    98 0000009F 40                              	INC	EAX
    99 000000A0 99                              	CDQ
   100 000000A1 F7 FB                           	IDIV	EBX
   101 000000A3 8D 47 01                        	LEA	EAX,DWORD [1+EDI]
   102 000000A6 89 56 08                        	MOV	DWORD [8+ESI],EDX
   103 000000A9 89 46 10                        	MOV	DWORD [16+ESI],EAX
   104 000000AC 89 C8                           	MOV	EAX,ECX
   105 000000AE                                 L6:
   106 000000AE 5B                              	POP	EBX
   107 000000AF 5E                              	POP	ESI
   108 000000B0 5F                              	POP	EDI
   109 000000B1 5D                              	POP	EBP
   110 000000B2 C3                              	RET
   111 000000B3                                 	GLOBAL	_QueueSize
   112 000000B3                                 _QueueSize:
   113 000000B3 55                              	PUSH	EBP
   114 000000B4 89 E5                           	MOV	EBP,ESP
   115 000000B6 8B 55 08                        	MOV	EDX,DWORD [8+EBP]
   116 000000B9 5D                              	POP	EBP
   117 000000BA 8B 42 0C                        	MOV	EAX,DWORD [12+EDX]
   118 000000BD 2B 42 10                        	SUB	EAX,DWORD [16+EDX]
   119 000000C0 C3                              	RET
   120                                          [SECTION .data]
   121 00000000                                 _keyboardTable:
   122 00000000 00                              	DB	0
   123 00000001 00                              	DB	0
   124 00000002 31                              	DB	49
   125 00000003 32                              	DB	50
   126 00000004 33                              	DB	51
   127 00000005 34                              	DB	52
   128 00000006 35                              	DB	53
   129 00000007 36                              	DB	54
   130 00000008 37                              	DB	55
   131 00000009 38                              	DB	56
   132 0000000A 39                              	DB	57
   133 0000000B 30                              	DB	48
   134 0000000C 2D                              	DB	45
   135 0000000D 3D                              	DB	61
   136 0000000E 00                              	DB	0
   137 0000000F 00                              	DB	0
   138 00000010 51                              	DB	81
   139 00000011 57                              	DB	87
   140 00000012 45                              	DB	69
   141 00000013 52                              	DB	82
   142 00000014 54                              	DB	84
   143 00000015 59                              	DB	89
   144 00000016 55                              	DB	85
   145 00000017 49                              	DB	73
   146 00000018 4F                              	DB	79
   147 00000019 50                              	DB	80
   148 0000001A 5B                              	DB	91
   149 0000001B 5D                              	DB	93
   150 0000001C 00                              	DB	0
   151 0000001D 00                              	DB	0
   152 0000001E 41                              	DB	65
   153 0000001F 53                              	DB	83
   154 00000020 44                              	DB	68
   155 00000021 46                              	DB	70
   156 00000022 47                              	DB	71
   157 00000023 48                              	DB	72
   158 00000024 4A                              	DB	74
   159 00000025 4B                              	DB	75
   160 00000026 4C                              	DB	76
   161 00000027 3B                              	DB	59
   162 00000028 27                              	DB	39
   163 00000029 60                              	DB	96
   164 0000002A 00                              	DB	0
   165 0000002B 5C                              	DB	92
   166 0000002C 5A                              	DB	90
   167 0000002D 58                              	DB	88
   168 0000002E 43                              	DB	67
   169 0000002F 56                              	DB	86
   170 00000030 42                              	DB	66
   171 00000031 4E                              	DB	78
   172 00000032 4D                              	DB	77
   173 00000033 2C                              	DB	44
   174 00000034 2E                              	DB	46
   175 00000035 2F                              	DB	47
   176 00000036 00                              	DB	0
   177 00000037 2A                              	DB	42
   178 00000038 00                              	DB	0
   179 00000039 20                              	DB	32
   180 0000003A 00                              	DB	0
   181 0000003B 00                              	DB	0
   182 0000003C 00                              	DB	0
   183 0000003D 00                              	DB	0
   184 0000003E 00                              	DB	0
   185 0000003F 00                              	DB	0
   186 00000040 00                              	DB	0
   187 00000041 00                              	DB	0
   188 00000042 00                              	DB	0
   189 00000043 00                              	DB	0
   190 00000044 00                              	DB	0
   191 00000045 00                              	DB	0
   192 00000046 00                              	DB	0
   193 00000047 37                              	DB	55
   194 00000048 38                              	DB	56
   195 00000049 39                              	DB	57
   196 0000004A 2D                              	DB	45
   197 0000004B 34                              	DB	52
   198 0000004C 35                              	DB	53
   199 0000004D 36                              	DB	54
   200 0000004E 2B                              	DB	43
   201 0000004F 31                              	DB	49
   202 00000050 32                              	DB	50
   203 00000051 33                              	DB	51
   204 00000052 30                              	DB	48
   205 00000053 2E                              	DB	46
   206 00000054 00                              	DB	0
   207 00000055 00                              	DB	0
   208 00000056 00                              	DB	0
   209 00000057 00                              	DB	0
   210 00000058 00                              	DB	0
   211 00000059 00                              	DB	0
   212 0000005A 00                              	DB	0
   213 0000005B 00                              	DB	0
   214 0000005C 00                              	DB	0
   215 0000005D 00                              	DB	0
   216 0000005E 00                              	DB	0
   217 0000005F 00                              	DB	0
   218 00000060 00                              	DB	0
   219 00000061 00                              	DB	0
   220 00000062 00                              	DB	0
   221 00000063 00                              	DB	0
   222 00000064 00                              	DB	0
   223 00000065 00                              	DB	0
   224 00000066 00                              	DB	0
   225 00000067 00                              	DB	0
   226 00000068 00                              	DB	0
   227 00000069 00                              	DB	0
   228 0000006A 00                              	DB	0
   229 0000006B 00                              	DB	0
   230 0000006C 00                              	DB	0
   231 0000006D 00                              	DB	0
   232 0000006E 00                              	DB	0
   233 0000006F 00                              	DB	0
   234 00000070 00                              	DB	0
   235 00000071 00                              	DB	0
   236 00000072 00                              	DB	0
   237 00000073 00                              	DB	0
   238 00000074 00                              	DB	0
   239 00000075 00                              	DB	0
   240 00000076 00                              	DB	0
   241 00000077 00                              	DB	0
   242 00000078 00                              	DB	0
   243 00000079 00                              	DB	0
   244 0000007A 00                              	DB	0
   245 0000007B 00                              	DB	0
   246 0000007C 00                              	DB	0
   247 0000007D 00                              	DB	0
   248 0000007E 00                              	DB	0
   249 0000007F 00                              	DB	0
   250                                          [SECTION .text]
   251 000000C1                                 	GLOBAL	_waitKeyboardControllerReady
   252 000000C1                                 _waitKeyboardControllerReady:
   253 000000C1 55                              	PUSH	EBP
   254 000000C2 89 E5                           	MOV	EBP,ESP
   255 000000C4                                 L10:
   256 000000C4 6A 64                           	PUSH	100
   257 000000C6 E8 [00000000]                   	CALL	_io_in8
   258 000000CB 5A                              	POP	EDX
   259 000000CC 83 E0 02                        	AND	EAX,2
   260 000000CF 75 F3                           	JNE	L10
   261 000000D1 C9                              	LEAVE
   262 000000D2 C3                              	RET
   263 000000D3                                 	GLOBAL	_initKeyboard
   264 000000D3                                 _initKeyboard:
   265 000000D3 55                              	PUSH	EBP
   266 000000D4 89 E5                           	MOV	EBP,ESP
   267 000000D6 8B 45 08                        	MOV	EAX,DWORD [8+EBP]
   268 000000D9 A3 [000002F4]                   	MOV	DWORD [_keybuf],EAX
   269 000000DE 8B 45 0C                        	MOV	EAX,DWORD [12+EBP]
   270 000000E1 A3 [000002F8]                   	MOV	DWORD [_keyData0],EAX
   271 000000E6 E8 FFFFFFD6                     	CALL	_waitKeyboardControllerReady
   272 000000EB 6A 60                           	PUSH	96
   273 000000ED 6A 64                           	PUSH	100
   274 000000EF E8 [00000000]                   	CALL	_io_out8
   275 000000F4 E8 FFFFFFC8                     	CALL	_waitKeyboardControllerReady
   276 000000F9 59                              	POP	ECX
   277 000000FA 58                              	POP	EAX
   278 000000FB C7 45 0C 00000047               	MOV	DWORD [12+EBP],71
   279 00000102 C7 45 08 00000060               	MOV	DWORD [8+EBP],96
   280 00000109 C9                              	LEAVE
   281 0000010A E9 [00000000]                   	JMP	_io_out8
   282 0000010F                                 	GLOBAL	_enableMouse
   283 0000010F                                 _enableMouse:
   284 0000010F 55                              	PUSH	EBP
   285 00000110 89 E5                           	MOV	EBP,ESP
   286 00000112 8B 45 08                        	MOV	EAX,DWORD [8+EBP]
   287 00000115 A3 [000002FC]                   	MOV	DWORD [_mousebuf],EAX
   288 0000011A 8B 45 0C                        	MOV	EAX,DWORD [12+EBP]
   289 0000011D A3 [00000300]                   	MOV	DWORD [_mouseData0],EAX
   290 00000122 E8 FFFFFF9A                     	CALL	_waitKeyboardControllerReady
   291 00000127 68 000000D4                     	PUSH	212
   292 0000012C 6A 64                           	PUSH	100
   293 0000012E E8 [00000000]                   	CALL	_io_out8
   294 00000133 E8 FFFFFF89                     	CALL	_waitKeyboardControllerReady
   295 00000138 68 000000F4                     	PUSH	244
   296 0000013D 6A 60                           	PUSH	96
   297 0000013F E8 [00000000]                   	CALL	_io_out8
   298 00000144 8B 45 10                        	MOV	EAX,DWORD [16+EBP]
   299 00000147 C6 40 03 00                     	MOV	BYTE [3+EAX],0
   300 0000014B C9                              	LEAVE
   301 0000014C C3                              	RET
   302 0000014D                                 	GLOBAL	_mouseDecode
   303 0000014D                                 _mouseDecode:
   304 0000014D 55                              	PUSH	EBP
   305 0000014E 89 E5                           	MOV	EBP,ESP
   306 00000150 56                              	PUSH	ESI
   307 00000151 53                              	PUSH	EBX
   308 00000152 8B 55 08                        	MOV	EDX,DWORD [8+EBP]
   309 00000155 8B 4D 0C                        	MOV	ECX,DWORD [12+EBP]
   310 00000158 89 CE                           	MOV	ESI,ECX
   311 0000015A 8A 42 03                        	MOV	AL,BYTE [3+EDX]
   312 0000015D 84 C0                           	TEST	AL,AL
   313 0000015F 75 11                           	JNE	L17
   314 00000161 80 F9 FA                        	CMP	CL,-6
   315 00000164 74 06                           	JE	L26
   316 00000166                                 L25:
   317 00000166 31 C0                           	XOR	EAX,EAX
   318 00000168                                 L16:
   319 00000168 5B                              	POP	EBX
   320 00000169 5E                              	POP	ESI
   321 0000016A 5D                              	POP	EBP
   322 0000016B C3                              	RET
   323 0000016C                                 L26:
   324 0000016C C6 42 03 01                     	MOV	BYTE [3+EDX],1
   325 00000170 EB F4                           	JMP	L25
   326 00000172                                 L17:
   327 00000172 3C 01                           	CMP	AL,1
   328 00000174 74 61                           	JE	L27
   329 00000176 3C 02                           	CMP	AL,2
   330 00000178 74 54                           	JE	L28
   331 0000017A 3C 03                           	CMP	AL,3
   332 0000017C 74 05                           	JE	L29
   333 0000017E 83 C8 FF                        	OR	EAX,-1
   334 00000181 EB E5                           	JMP	L16
   335 00000183                                 L29:
   336 00000183 8A 1A                           	MOV	BL,BYTE [EDX]
   337 00000185 81 E6 000000FF                  	AND	ESI,255
   338 0000018B 89 D8                           	MOV	EAX,EBX
   339 0000018D 88 4A 02                        	MOV	BYTE [2+EDX],CL
   340 00000190 83 E0 07                        	AND	EAX,7
   341 00000193 89 72 08                        	MOV	DWORD [8+EDX],ESI
   342 00000196 89 42 0C                        	MOV	DWORD [12+EDX],EAX
   343 00000199 88 D8                           	MOV	AL,BL
   344 0000019B 0F B6 4A 01                     	MOVZX	ECX,BYTE [1+EDX]
   345 0000019F 83 E0 10                        	AND	EAX,16
   346 000001A2 89 4A 04                        	MOV	DWORD [4+EDX],ECX
   347 000001A5 C6 42 03 01                     	MOV	BYTE [3+EDX],1
   348 000001A9 84 C0                           	TEST	AL,AL
   349 000001AB 74 09                           	JE	L23
   350 000001AD 81 C9 FFFFFF00                  	OR	ECX,-256
   351 000001B3 89 4A 04                        	MOV	DWORD [4+EDX],ECX
   352 000001B6                                 L23:
   353 000001B6 83 E3 20                        	AND	EBX,32
   354 000001B9 84 DB                           	TEST	BL,BL
   355 000001BB 74 07                           	JE	L24
   356 000001BD 81 4A 08 FFFFFF00               	OR	DWORD [8+EDX],-256
   357 000001C4                                 L24:
   358 000001C4 F7 5A 08                        	NEG	DWORD [8+EDX]
   359 000001C7 B8 00000001                     	MOV	EAX,1
   360 000001CC EB 9A                           	JMP	L16
   361 000001CE                                 L28:
   362 000001CE 88 4A 01                        	MOV	BYTE [1+EDX],CL
   363 000001D1 C6 42 03 03                     	MOV	BYTE [3+EDX],3
   364 000001D5 EB 8F                           	JMP	L25
   365 000001D7                                 L27:
   366 000001D7 83 E6 C8                        	AND	ESI,-56
   367 000001DA 89 F0                           	MOV	EAX,ESI
   368 000001DC 3C 08                           	CMP	AL,8
   369 000001DE 75 86                           	JNE	L25
   370 000001E0 88 0A                           	MOV	BYTE [EDX],CL
   371 000001E2 C6 42 03 02                     	MOV	BYTE [3+EDX],2
   372 000001E6 E9 FFFFFF7B                     	JMP	L25
   373 000001EB                                 	GLOBAL	_initPit
   374 000001EB                                 _initPit:
   375 000001EB 55                              	PUSH	EBP
   376 000001EC 89 E5                           	MOV	EBP,ESP
   377 000001EE 6A 34                           	PUSH	52
   378 000001F0 6A 43                           	PUSH	67
   379 000001F2 E8 [00000000]                   	CALL	_io_out8
   380 000001F7 68 0000009C                     	PUSH	156
   381 000001FC 6A 40                           	PUSH	64
   382 000001FE E8 [00000000]                   	CALL	_io_out8
   383 00000203 6A 2E                           	PUSH	46
   384 00000205 6A 40                           	PUSH	64
   385 00000207 E8 [00000000]                   	CALL	_io_out8
   386 0000020C BA [00002A20]                   	MOV	EDX,_timerctl+10000
   387 00000211 C7 05 [00000310] 00000000       	MOV	DWORD [_timerctl],0
   388 0000021B 83 C4 18                        	ADD	ESP,24
   389 0000021E B8 [00000324]                   	MOV	EAX,_timerctl+20
   390 00000223                                 L35:
   391 00000223 C7 00 00000000                  	MOV	DWORD [EAX],0
   392 00000229 83 C0 14                        	ADD	EAX,20
   393 0000022C 39 D0                           	CMP	EAX,EDX
   394 0000022E 7E F3                           	JLE	L35
   395 00000230 E8 00000025                     	CALL	_timerAlloc
   396 00000235 C7 40 04 FFFFFFFF               	MOV	DWORD [4+EAX],-1
   397 0000023C C7 40 08 00000002               	MOV	DWORD [8+EAX],2
   398 00000243 C7 00 00000000                  	MOV	DWORD [EAX],0
   399 00000249 A3 [00000318]                   	MOV	DWORD [_timerctl+8],EAX
   400 0000024E C7 05 [00000314] FFFFFFFF       	MOV	DWORD [_timerctl+4],-1
   401 00000258 C9                              	LEAVE
   402 00000259 C3                              	RET
   403 0000025A                                 	GLOBAL	_timerAlloc
   404 0000025A                                 _timerAlloc:
   405 0000025A 55                              	PUSH	EBP
   406 0000025B 31 D2                           	XOR	EDX,EDX
   407 0000025D 89 E5                           	MOV	EBP,ESP
   408 0000025F B8 [0000031C]                   	MOV	EAX,_timerctl+12
   409 00000264                                 L44:
   410 00000264 83 78 08 00                     	CMP	DWORD [8+EAX],0
   411 00000268 74 10                           	JE	L47
   412 0000026A 42                              	INC	EDX
   413 0000026B 83 C0 14                        	ADD	EAX,20
   414 0000026E 81 FA 000001F3                  	CMP	EDX,499
   415 00000274 7E EE                           	JLE	L44
   416 00000276 31 C0                           	XOR	EAX,EAX
   417 00000278                                 L38:
   418 00000278 5D                              	POP	EBP
   419 00000279 C3                              	RET
   420 0000027A                                 L47:
   421 0000027A C7 40 08 00000001               	MOV	DWORD [8+EAX],1
   422 00000281 EB F5                           	JMP	L38
   423 00000283                                 	GLOBAL	_timerFree
   424 00000283                                 _timerFree:
   425 00000283 55                              	PUSH	EBP
   426 00000284 89 E5                           	MOV	EBP,ESP
   427 00000286 8B 45 08                        	MOV	EAX,DWORD [8+EBP]
   428 00000289 C7 40 08 00000000               	MOV	DWORD [8+EAX],0
   429 00000290 5D                              	POP	EBP
   430 00000291 C3                              	RET
   431 00000292                                 	GLOBAL	_timerInit
   432 00000292                                 _timerInit:
   433 00000292 55                              	PUSH	EBP
   434 00000293 89 E5                           	MOV	EBP,ESP
   435 00000295 8B 45 08                        	MOV	EAX,DWORD [8+EBP]
   436 00000298 8B 55 0C                        	MOV	EDX,DWORD [12+EBP]
   437 0000029B 89 50 0C                        	MOV	DWORD [12+EAX],EDX
   438 0000029E 8B 55 10                        	MOV	EDX,DWORD [16+EBP]
   439 000002A1 88 50 10                        	MOV	BYTE [16+EAX],DL
   440 000002A4 5D                              	POP	EBP
   441 000002A5 C3                              	RET
   442 000002A6                                 	GLOBAL	_timerSetTime
   443 000002A6                                 _timerSetTime:
   444 000002A6 55                              	PUSH	EBP
   445 000002A7 A1 [00000310]                   	MOV	EAX,DWORD [_timerctl]
   446 000002AC 89 E5                           	MOV	EBP,ESP
   447 000002AE 56                              	PUSH	ESI
   448 000002AF 53                              	PUSH	EBX
   449 000002B0 8B 5D 08                        	MOV	EBX,DWORD [8+EBP]
   450 000002B3 03 45 0C                        	ADD	EAX,DWORD [12+EBP]
   451 000002B6 C7 43 08 00000002               	MOV	DWORD [8+EBX],2
   452 000002BD 89 43 04                        	MOV	DWORD [4+EBX],EAX
   453 000002C0 E8 [00000000]                   	CALL	_io_load_eflags
   454 000002C5 89 C6                           	MOV	ESI,EAX
   455 000002C7 E8 [00000000]                   	CALL	_io_cli
   456 000002CC A1 [00000318]                   	MOV	EAX,DWORD [_timerctl+8]
   457 000002D1 8B 53 04                        	MOV	EDX,DWORD [4+EBX]
   458 000002D4 3B 50 04                        	CMP	EDX,DWORD [4+EAX]
   459 000002D7 76 1C                           	JBE	L57
   460 000002D9                                 L52:
   461 000002D9 89 C1                           	MOV	ECX,EAX
   462 000002DB 8B 00                           	MOV	EAX,DWORD [EAX]
   463 000002DD 85 C0                           	TEST	EAX,EAX
   464 000002DF 74 09                           	JE	L53
   465 000002E1 3B 50 04                        	CMP	EDX,DWORD [4+EAX]
   466 000002E4 77 F3                           	JA	L52
   467 000002E6 89 19                           	MOV	DWORD [ECX],EBX
   468 000002E8 89 03                           	MOV	DWORD [EBX],EAX
   469 000002EA                                 L53:
   470 000002EA 89 75 08                        	MOV	DWORD [8+EBP],ESI
   471 000002ED 5B                              	POP	EBX
   472 000002EE 5E                              	POP	ESI
   473 000002EF 5D                              	POP	EBP
   474 000002F0 E9 [00000000]                   	JMP	_io_store_eflags
   475 000002F5                                 L57:
   476 000002F5 89 1D [00000318]                	MOV	DWORD [_timerctl+8],EBX
   477 000002FB 89 15 [00000314]                	MOV	DWORD [_timerctl+4],EDX
   478 00000301 89 03                           	MOV	DWORD [EBX],EAX
   479 00000303 EB E5                           	JMP	L53
   480 00000305                                 	GLOBAL	_processNow
   481 00000305                                 _processNow:
   482 00000305 A1 [00002A2C]                   	MOV	EAX,DWORD [_processctl]
   483 0000030A 55                              	PUSH	EBP
   484 0000030B 89 E5                           	MOV	EBP,ESP
   485 0000030D 5D                              	POP	EBP
   486 0000030E 8B 10                           	MOV	EDX,DWORD [EAX]
   487 00000310 69 D2 00000198                  	IMUL	EDX,EDX,408
   488 00000316 8D 44 02 08                     	LEA	EAX,DWORD [8+EDX+EAX*1]
   489 0000031A 8B 50 04                        	MOV	EDX,DWORD [4+EAX]
   490 0000031D 8B 44 90 08                     	MOV	EAX,DWORD [8+EAX+EDX*4]
   491 00000321 C3                              	RET
   492 00000322                                 	GLOBAL	_processAdd
   493 00000322                                 _processAdd:
   494 00000322 55                              	PUSH	EBP
   495 00000323 89 E5                           	MOV	EBP,ESP
   496 00000325 8B 4D 08                        	MOV	ECX,DWORD [8+EBP]
   497 00000328 8B 51 08                        	MOV	EDX,DWORD [8+ECX]
   498 0000032B 69 D2 00000198                  	IMUL	EDX,EDX,408
   499 00000331 03 15 [00002A2C]                	ADD	EDX,DWORD [_processctl]
   500 00000337 8B 42 08                        	MOV	EAX,DWORD [8+EDX]
   501 0000033A 89 4C 82 10                     	MOV	DWORD [16+EDX+EAX*4],ECX
   502 0000033E 40                              	INC	EAX
   503 0000033F 89 42 08                        	MOV	DWORD [8+EDX],EAX
   504 00000342 C7 41 04 00000002               	MOV	DWORD [4+ECX],2
   505 00000349 5D                              	POP	EBP
   506 0000034A C3                              	RET
   507 0000034B                                 	GLOBAL	_processRemove
   508 0000034B                                 _processRemove:
   509 0000034B 55                              	PUSH	EBP
   510 0000034C 31 C9                           	XOR	ECX,ECX
   511 0000034E 89 E5                           	MOV	EBP,ESP
   512 00000350 53                              	PUSH	EBX
   513 00000351 8B 5D 08                        	MOV	EBX,DWORD [8+EBP]
   514 00000354 8B 43 08                        	MOV	EAX,DWORD [8+EBX]
   515 00000357 69 C0 00000198                  	IMUL	EAX,EAX,408
   516 0000035D 03 05 [00002A2C]                	ADD	EAX,DWORD [_processctl]
   517 00000363 8D 50 08                        	LEA	EDX,DWORD [8+EAX]
   518 00000366 3B 48 08                        	CMP	ECX,DWORD [8+EAX]
   519 00000369 7D 0B                           	JGE	L62
   520 0000036B                                 L66:
   521 0000036B 39 5C 8A 08                     	CMP	DWORD [8+EDX+ECX*4],EBX
   522 0000036F 74 05                           	JE	L62
   523 00000371 41                              	INC	ECX
   524 00000372 3B 0A                           	CMP	ECX,DWORD [EDX]
   525 00000374 7C F5                           	JL	L66
   526 00000376                                 L62:
   527 00000376 8B 42 04                        	MOV	EAX,DWORD [4+EDX]
   528 00000379 FF 0A                           	DEC	DWORD [EDX]
   529 0000037B 39 C1                           	CMP	ECX,EAX
   530 0000037D 7D 04                           	JGE	L67
   531 0000037F 48                              	DEC	EAX
   532 00000380 89 42 04                        	MOV	DWORD [4+EDX],EAX
   533 00000383                                 L67:
   534 00000383 8B 02                           	MOV	EAX,DWORD [EDX]
   535 00000385 39 42 04                        	CMP	DWORD [4+EDX],EAX
   536 00000388 7C 07                           	JL	L68
   537 0000038A C7 42 04 00000000               	MOV	DWORD [4+EDX],0
   538 00000391                                 L68:
   539 00000391 C7 43 04 00000001               	MOV	DWORD [4+EBX],1
   540 00000398 8B 1A                           	MOV	EBX,DWORD [EDX]
   541 0000039A 39 D9                           	CMP	ECX,EBX
   542 0000039C 7D 0D                           	JGE	L76
   543 0000039E                                 L73:
   544 0000039E 8B 44 8A 0C                     	MOV	EAX,DWORD [12+EDX+ECX*4]
   545 000003A2 89 44 8A 08                     	MOV	DWORD [8+EDX+ECX*4],EAX
   546 000003A6 41                              	INC	ECX
   547 000003A7 39 D9                           	CMP	ECX,EBX
   548 000003A9 7C F3                           	JL	L73
   549 000003AB                                 L76:
   550 000003AB 5B                              	POP	EBX
   551 000003AC 5D                              	POP	EBP
   552 000003AD C3                              	RET
   553 000003AE                                 	GLOBAL	_processSwitchSub
   554 000003AE                                 _processSwitchSub:
   555 000003AE 55                              	PUSH	EBP
   556 000003AF 31 C9                           	XOR	ECX,ECX
   557 000003B1 89 E5                           	MOV	EBP,ESP
   558 000003B3 A1 [00002A2C]                   	MOV	EAX,DWORD [_processctl]
   559 000003B8 31 D2                           	XOR	EDX,EDX
   560 000003BA                                 L83:
   561 000003BA 83 7C 10 08 00                  	CMP	DWORD [8+EAX+EDX*1],0
   562 000003BF 7F 0C                           	JG	L79
   563 000003C1 41                              	INC	ECX
   564 000003C2 81 C2 00000198                  	ADD	EDX,408
   565 000003C8 83 F9 09                        	CMP	ECX,9
   566 000003CB 7E ED                           	JLE	L83
   567 000003CD                                 L79:
   568 000003CD 89 08                           	MOV	DWORD [EAX],ECX
   569 000003CF C6 40 04 00                     	MOV	BYTE [4+EAX],0
   570 000003D3 5D                              	POP	EBP
   571 000003D4 C3                              	RET
   572 000003D5                                 	GLOBAL	_processInit
   573 000003D5                                 _processInit:
   574 000003D5 55                              	PUSH	EBP
   575 000003D6 89 E5                           	MOV	EBP,ESP
   576 000003D8 57                              	PUSH	EDI
   577 000003D9 56                              	PUSH	ESI
   578 000003DA 31 FF                           	XOR	EDI,EDI
   579 000003DC 53                              	PUSH	EBX
   580 000003DD 31 F6                           	XOR	ESI,ESI
   581 000003DF 68 0001E4B8                     	PUSH	124088
   582 000003E4 BB 000003E7                     	MOV	EBX,999
   583 000003E9 FF 75 08                        	PUSH	DWORD [8+EBP]
   584 000003EC E8 00000BD5                     	CALL	_memsegAlloc4K
   585 000003F1 A3 [00002A2C]                   	MOV	DWORD [_processctl],EAX
   586 000003F6 58                              	POP	EAX
   587 000003F7 5A                              	POP	EDX
   588 000003F8                                 L90:
   589 000003F8 89 F8                           	MOV	EAX,EDI
   590 000003FA 8D 56 18                        	LEA	EDX,DWORD [24+ESI]
   591 000003FD 03 05 [00002A2C]                	ADD	EAX,DWORD [_processctl]
   592 00000403 83 C7 78                        	ADD	EDI,120
   593 00000406 C7 80 00000FFC 00000000         	MOV	DWORD [4092+EAX],0
   594 00000410 89 90 00000FF8                  	MOV	DWORD [4088+EAX],EDX
   595 00000416 05 00001008                     	ADD	EAX,4104
   596 0000041B 68 00000089                     	PUSH	137
   597 00000420 50                              	PUSH	EAX
   598 00000421 8D 86 00270018                  	LEA	EAX,DWORD [2555928+ESI]
   599 00000427 6A 67                           	PUSH	103
   600 00000429 83 C6 08                        	ADD	ESI,8
   601 0000042C 50                              	PUSH	EAX
   602 0000042D E8 0000039C                     	CALL	_setSegmdesc
   603 00000432 83 C4 10                        	ADD	ESP,16
   604 00000435 4B                              	DEC	EBX
   605 00000436 79 C0                           	JNS	L90
   606 00000438 8B 0D [00002A2C]                	MOV	ECX,DWORD [_processctl]
   607 0000043E 31 D2                           	XOR	EDX,EDX
   608 00000440 BB 00000009                     	MOV	EBX,9
   609 00000445                                 L95:
   610 00000445 8D 04 11                        	LEA	EAX,DWORD [ECX+EDX*1]
   611 00000448 81 C2 00000198                  	ADD	EDX,408
   612 0000044E 4B                              	DEC	EBX
   613 0000044F C7 40 08 00000000               	MOV	DWORD [8+EAX],0
   614 00000456 C7 40 0C 00000000               	MOV	DWORD [12+EAX],0
   615 0000045D 79 E6                           	JNS	L95
   616 0000045F E8 00000045                     	CALL	_processAlloc
   617 00000464 89 C3                           	MOV	EBX,EAX
   618 00000466 C7 40 04 00000002               	MOV	DWORD [4+EAX],2
   619 0000046D C7 40 0C 00000002               	MOV	DWORD [12+EAX],2
   620 00000474 C7 40 08 00000000               	MOV	DWORD [8+EAX],0
   621 0000047B 50                              	PUSH	EAX
   622 0000047C E8 FFFFFEA1                     	CALL	_processAdd
   623 00000481 E8 FFFFFF28                     	CALL	_processSwitchSub
   624 00000486 FF 33                           	PUSH	DWORD [EBX]
   625 00000488 E8 [00000000]                   	CALL	_loadTr
   626 0000048D E8 FFFFFDC8                     	CALL	_timerAlloc
   627 00000492 6A 02                           	PUSH	2
   628 00000494 A3 [00002A30]                   	MOV	DWORD [_mpTimer],EAX
   629 00000499 50                              	PUSH	EAX
   630 0000049A E8 FFFFFE07                     	CALL	_timerSetTime
   631 0000049F 8D 65 F4                        	LEA	ESP,DWORD [-12+EBP]
   632 000004A2 89 D8                           	MOV	EAX,EBX
   633 000004A4 5B                              	POP	EBX
   634 000004A5 5E                              	POP	ESI
   635 000004A6 5F                              	POP	EDI
   636 000004A7 5D                              	POP	EBP
   637 000004A8 C3                              	RET
   638 000004A9                                 	GLOBAL	_processAlloc
   639 000004A9                                 _processAlloc:
   640 000004A9 55                              	PUSH	EBP
   641 000004AA 31 C9                           	XOR	ECX,ECX
   642 000004AC 89 E5                           	MOV	EBP,ESP
   643 000004AE 31 D2                           	XOR	EDX,EDX
   644 000004B0                                 L106:
   645 000004B0 89 D0                           	MOV	EAX,EDX
   646 000004B2 03 05 [00002A2C]                	ADD	EAX,DWORD [_processctl]
   647 000004B8 83 B8 00000FFC 00               	CMP	DWORD [4092+EAX],0
   648 000004BF 74 10                           	JE	L109
   649 000004C1 41                              	INC	ECX
   650 000004C2 83 C2 78                        	ADD	EDX,120
   651 000004C5 81 F9 000003E7                  	CMP	ECX,999
   652 000004CB 7E E3                           	JLE	L106
   653 000004CD 31 C0                           	XOR	EAX,EAX
   654 000004CF                                 L100:
   655 000004CF 5D                              	POP	EBP
   656 000004D0 C3                              	RET
   657 000004D1                                 L109:
   658 000004D1 05 00000FF8                     	ADD	EAX,4088
   659 000004D6 C7 40 04 00000001               	MOV	DWORD [4+EAX],1
   660 000004DD C7 40 34 00000202               	MOV	DWORD [52+EAX],514
   661 000004E4 C7 40 38 00000000               	MOV	DWORD [56+EAX],0
   662 000004EB C7 40 3C 00000000               	MOV	DWORD [60+EAX],0
   663 000004F2 C7 40 40 00000000               	MOV	DWORD [64+EAX],0
   664 000004F9 C7 40 44 00000000               	MOV	DWORD [68+EAX],0
   665 00000500 C7 40 4C 00000000               	MOV	DWORD [76+EAX],0
   666 00000507 C7 40 50 00000000               	MOV	DWORD [80+EAX],0
   667 0000050E C7 40 54 00000000               	MOV	DWORD [84+EAX],0
   668 00000515 C7 40 58 00000000               	MOV	DWORD [88+EAX],0
   669 0000051C C7 40 64 00000000               	MOV	DWORD [100+EAX],0
   670 00000523 C7 40 68 00000000               	MOV	DWORD [104+EAX],0
   671 0000052A C7 40 6C 00000000               	MOV	DWORD [108+EAX],0
   672 00000531 C7 40 70 00000000               	MOV	DWORD [112+EAX],0
   673 00000538 C7 40 74 40000000               	MOV	DWORD [116+EAX],1073741824
   674 0000053F EB 8E                           	JMP	L100
   675 00000541                                 	GLOBAL	_processRun
   676 00000541                                 _processRun:
   677 00000541 55                              	PUSH	EBP
   678 00000542 89 E5                           	MOV	EBP,ESP
   679 00000544 56                              	PUSH	ESI
   680 00000545 53                              	PUSH	EBX
   681 00000546 8B 75 0C                        	MOV	ESI,DWORD [12+EBP]
   682 00000549 8B 45 10                        	MOV	EAX,DWORD [16+EBP]
   683 0000054C 8B 5D 08                        	MOV	EBX,DWORD [8+EBP]
   684 0000054F 85 F6                           	TEST	ESI,ESI
   685 00000551 78 3B                           	JS	L115
   686 00000553                                 L111:
   687 00000553 85 C0                           	TEST	EAX,EAX
   688 00000555 7E 03                           	JLE	L112
   689 00000557 89 43 0C                        	MOV	DWORD [12+EBX],EAX
   690 0000055A                                 L112:
   691 0000055A 83 7B 04 02                     	CMP	DWORD [4+EBX],2
   692 0000055E 74 20                           	JE	L116
   693 00000560                                 L113:
   694 00000560 83 7B 04 02                     	CMP	DWORD [4+EBX],2
   695 00000564 74 0A                           	JE	L114
   696 00000566 89 73 08                        	MOV	DWORD [8+EBX],ESI
   697 00000569 53                              	PUSH	EBX
   698 0000056A E8 FFFFFDB3                     	CALL	_processAdd
   699 0000056F 59                              	POP	ECX
   700 00000570                                 L114:
   701 00000570 A1 [00002A2C]                   	MOV	EAX,DWORD [_processctl]
   702 00000575 C6 40 04 01                     	MOV	BYTE [4+EAX],1
   703 00000579 8D 65 F8                        	LEA	ESP,DWORD [-8+EBP]
   704 0000057C 5B                              	POP	EBX
   705 0000057D 5E                              	POP	ESI
   706 0000057E 5D                              	POP	EBP
   707 0000057F C3                              	RET
   708 00000580                                 L116:
   709 00000580 39 73 08                        	CMP	DWORD [8+EBX],ESI
   710 00000583 74 DB                           	JE	L113
   711 00000585 53                              	PUSH	EBX
   712 00000586 E8 FFFFFDC0                     	CALL	_processRemove
   713 0000058B 58                              	POP	EAX
   714 0000058C EB D2                           	JMP	L113
   715 0000058E                                 L115:
   716 0000058E 8B 73 08                        	MOV	ESI,DWORD [8+EBX]
   717 00000591 EB C0                           	JMP	L111
   718 00000593                                 	GLOBAL	_processSwitch
   719 00000593                                 _processSwitch:
   720 00000593 55                              	PUSH	EBP
   721 00000594 89 E5                           	MOV	EBP,ESP
   722 00000596 56                              	PUSH	ESI
   723 00000597 53                              	PUSH	EBX
   724 00000598 8B 1D [00002A2C]                	MOV	EBX,DWORD [_processctl]
   725 0000059E 8B 13                           	MOV	EDX,DWORD [EBX]
   726 000005A0 69 D2 00000198                  	IMUL	EDX,EDX,408
   727 000005A6 8D 14 1A                        	LEA	EDX,DWORD [EDX+EBX*1]
   728 000005A9 8D 4A 08                        	LEA	ECX,DWORD [8+EDX]
   729 000005AC 8B 41 04                        	MOV	EAX,DWORD [4+ECX]
   730 000005AF 8B 74 81 08                     	MOV	ESI,DWORD [8+ECX+EAX*4]
   731 000005B3 40                              	INC	EAX
   732 000005B4 89 41 04                        	MOV	DWORD [4+ECX],EAX
   733 000005B7 3B 42 08                        	CMP	EAX,DWORD [8+EDX]
   734 000005BA 74 4C                           	JE	L121
   735 000005BC                                 L118:
   736 000005BC 80 7B 04 00                     	CMP	BYTE [4+EBX],0
   737 000005C0 75 2D                           	JNE	L122
   738 000005C2                                 L119:
   739 000005C2 8B 41 04                        	MOV	EAX,DWORD [4+ECX]
   740 000005C5 8B 5C 81 08                     	MOV	EBX,DWORD [8+ECX+EAX*4]
   741 000005C9 FF 73 0C                        	PUSH	DWORD [12+EBX]
   742 000005CC FF 35 [00002A30]                	PUSH	DWORD [_mpTimer]
   743 000005D2 E8 FFFFFCCF                     	CALL	_timerSetTime
   744 000005D7 39 F3                           	CMP	EBX,ESI
   745 000005D9 59                              	POP	ECX
   746 000005DA 58                              	POP	EAX
   747 000005DB 74 0B                           	JE	L117
   748 000005DD FF 33                           	PUSH	DWORD [EBX]
   749 000005DF 6A 00                           	PUSH	0
   750 000005E1 E8 [00000000]                   	CALL	_farJmp
   751 000005E6 58                              	POP	EAX
   752 000005E7 5A                              	POP	EDX
   753 000005E8                                 L117:
   754 000005E8 8D 65 F8                        	LEA	ESP,DWORD [-8+EBP]
   755 000005EB 5B                              	POP	EBX
   756 000005EC 5E                              	POP	ESI
   757 000005ED 5D                              	POP	EBP
   758 000005EE C3                              	RET
   759 000005EF                                 L122:
   760 000005EF E8 FFFFFDBA                     	CALL	_processSwitchSub
   761 000005F4 8B 15 [00002A2C]                	MOV	EDX,DWORD [_processctl]
   762 000005FA 8B 02                           	MOV	EAX,DWORD [EDX]
   763 000005FC 69 C0 00000198                  	IMUL	EAX,EAX,408
   764 00000602 8D 4C 10 08                     	LEA	ECX,DWORD [8+EAX+EDX*1]
   765 00000606 EB BA                           	JMP	L119
   766 00000608                                 L121:
   767 00000608 C7 41 04 00000000               	MOV	DWORD [4+ECX],0
   768 0000060F EB AB                           	JMP	L118
   769 00000611                                 	GLOBAL	_processSleep
   770 00000611                                 _processSleep:
   771 00000611 55                              	PUSH	EBP
   772 00000612 89 E5                           	MOV	EBP,ESP
   773 00000614 56                              	PUSH	ESI
   774 00000615 53                              	PUSH	EBX
   775 00000616 8B 75 08                        	MOV	ESI,DWORD [8+EBP]
   776 00000619 83 7E 04 02                     	CMP	DWORD [4+ESI],2
   777 0000061D 74 07                           	JE	L126
   778 0000061F                                 L123:
   779 0000061F 8D 65 F8                        	LEA	ESP,DWORD [-8+EBP]
   780 00000622 5B                              	POP	EBX
   781 00000623 5E                              	POP	ESI
   782 00000624 5D                              	POP	EBP
   783 00000625 C3                              	RET
   784 00000626                                 L126:
   785 00000626 E8 FFFFFCDA                     	CALL	_processNow
   786 0000062B 56                              	PUSH	ESI
   787 0000062C 89 C3                           	MOV	EBX,EAX
   788 0000062E E8 FFFFFD18                     	CALL	_processRemove
   789 00000633 59                              	POP	ECX
   790 00000634 39 DE                           	CMP	ESI,EBX
   791 00000636 75 E7                           	JNE	L123
   792 00000638 E8 FFFFFD71                     	CALL	_processSwitchSub
   793 0000063D E8 FFFFFCC3                     	CALL	_processNow
   794 00000642 FF 30                           	PUSH	DWORD [EAX]
   795 00000644 6A 00                           	PUSH	0
   796 00000646 E8 [00000000]                   	CALL	_farJmp
   797 0000064B 58                              	POP	EAX
   798 0000064C 5A                              	POP	EDX
   799 0000064D EB D0                           	JMP	L123
   800 0000064F                                 	GLOBAL	_init_pic
   801 0000064F                                 _init_pic:
   802 0000064F 55                              	PUSH	EBP
   803 00000650 89 E5                           	MOV	EBP,ESP
   804 00000652 68 000000FF                     	PUSH	255
   805 00000657 6A 21                           	PUSH	33
   806 00000659 E8 [00000000]                   	CALL	_io_out8
   807 0000065E 68 000000FF                     	PUSH	255
   808 00000663 68 000000A1                     	PUSH	161
   809 00000668 E8 [00000000]                   	CALL	_io_out8
   810 0000066D 6A 11                           	PUSH	17
   811 0000066F 6A 20                           	PUSH	32
   812 00000671 E8 [00000000]                   	CALL	_io_out8
   813 00000676 6A 20                           	PUSH	32
   814 00000678 6A 21                           	PUSH	33
   815 0000067A E8 [00000000]                   	CALL	_io_out8
   816 0000067F 83 C4 20                        	ADD	ESP,32
   817 00000682 6A 04                           	PUSH	4
   818 00000684 6A 21                           	PUSH	33
   819 00000686 E8 [00000000]                   	CALL	_io_out8
   820 0000068B 6A 01                           	PUSH	1
   821 0000068D 6A 21                           	PUSH	33
   822 0000068F E8 [00000000]                   	CALL	_io_out8
   823 00000694 6A 11                           	PUSH	17
   824 00000696 68 000000A0                     	PUSH	160
   825 0000069B E8 [00000000]                   	CALL	_io_out8
   826 000006A0 6A 28                           	PUSH	40
   827 000006A2 68 000000A1                     	PUSH	161
   828 000006A7 E8 [00000000]                   	CALL	_io_out8
   829 000006AC 83 C4 20                        	ADD	ESP,32
   830 000006AF 6A 02                           	PUSH	2
   831 000006B1 68 000000A1                     	PUSH	161
   832 000006B6 E8 [00000000]                   	CALL	_io_out8
   833 000006BB 6A 01                           	PUSH	1
   834 000006BD 68 000000A1                     	PUSH	161
   835 000006C2 E8 [00000000]                   	CALL	_io_out8
   836 000006C7 68 000000FB                     	PUSH	251
   837 000006CC 6A 21                           	PUSH	33
   838 000006CE E8 [00000000]                   	CALL	_io_out8
   839 000006D3 68 000000FF                     	PUSH	255
   840 000006D8 68 000000A1                     	PUSH	161
   841 000006DD E8 [00000000]                   	CALL	_io_out8
   842 000006E2 C9                              	LEAVE
   843 000006E3 C3                              	RET
   844 000006E4                                 	GLOBAL	_interruptHandler21
   845 000006E4                                 _interruptHandler21:
   846 000006E4 55                              	PUSH	EBP
   847 000006E5 89 E5                           	MOV	EBP,ESP
   848 000006E7 6A 61                           	PUSH	97
   849 000006E9 6A 20                           	PUSH	32
   850 000006EB E8 [00000000]                   	CALL	_io_out8
   851 000006F0 6A 60                           	PUSH	96
   852 000006F2 E8 [00000000]                   	CALL	_io_in8
   853 000006F7 03 05 [000002F8]                	ADD	EAX,DWORD [_keyData0]
   854 000006FD 50                              	PUSH	EAX
   855 000006FE FF 35 [000002F4]                	PUSH	DWORD [_keybuf]
   856 00000704 E8 FFFFF928                     	CALL	_QueuePush
   857 00000709 C9                              	LEAVE
   858 0000070A C3                              	RET
   859 0000070B                                 	GLOBAL	_interruptHandler27
   860 0000070B                                 _interruptHandler27:
   861 0000070B 55                              	PUSH	EBP
   862 0000070C 89 E5                           	MOV	EBP,ESP
   863 0000070E 6A 67                           	PUSH	103
   864 00000710 6A 20                           	PUSH	32
   865 00000712 E8 [00000000]                   	CALL	_io_out8
   866 00000717 C9                              	LEAVE
   867 00000718 C3                              	RET
   868 00000719                                 	GLOBAL	_interruptHandler2c
   869 00000719                                 _interruptHandler2c:
   870 00000719 55                              	PUSH	EBP
   871 0000071A 89 E5                           	MOV	EBP,ESP
   872 0000071C 6A 64                           	PUSH	100
   873 0000071E 68 000000A0                     	PUSH	160
   874 00000723 E8 [00000000]                   	CALL	_io_out8
   875 00000728 6A 62                           	PUSH	98
   876 0000072A 6A 20                           	PUSH	32
   877 0000072C E8 [00000000]                   	CALL	_io_out8
   878 00000731 6A 60                           	PUSH	96
   879 00000733 E8 [00000000]                   	CALL	_io_in8
   880 00000738 03 05 [00000300]                	ADD	EAX,DWORD [_mouseData0]
   881 0000073E 50                              	PUSH	EAX
   882 0000073F FF 35 [000002FC]                	PUSH	DWORD [_mousebuf]
   883 00000745 E8 FFFFF8E7                     	CALL	_QueuePush
   884 0000074A C9                              	LEAVE
   885 0000074B C3                              	RET
   886 0000074C                                 	GLOBAL	_interruptHandler20
   887 0000074C                                 _interruptHandler20:
   888 0000074C 55                              	PUSH	EBP
   889 0000074D 89 E5                           	MOV	EBP,ESP
   890 0000074F 56                              	PUSH	ESI
   891 00000750 53                              	PUSH	EBX
   892 00000751 31 F6                           	XOR	ESI,ESI
   893 00000753 6A 60                           	PUSH	96
   894 00000755 6A 20                           	PUSH	32
   895 00000757 E8 [00000000]                   	CALL	_io_out8
   896 0000075C A1 [00000310]                   	MOV	EAX,DWORD [_timerctl]
   897 00000761 40                              	INC	EAX
   898 00000762 A3 [00000310]                   	MOV	DWORD [_timerctl],EAX
   899 00000767 39 05 [00000314]                	CMP	DWORD [_timerctl+4],EAX
   900 0000076D 59                              	POP	ECX
   901 0000076E 5B                              	POP	EBX
   902 0000076F 77 4B                           	JA	L131
   903 00000771 8B 1D [00000318]                	MOV	EBX,DWORD [_timerctl+8]
   904 00000777                                 L133:
   905 00000777 8B 43 04                        	MOV	EAX,DWORD [4+EBX]
   906 0000077A 3B 05 [00000310]                	CMP	EAX,DWORD [_timerctl]
   907 00000780 77 29                           	JA	L134
   908 00000782 C7 43 08 00000001               	MOV	DWORD [8+EBX],1
   909 00000789 3B 1D [00002A30]                	CMP	EBX,DWORD [_mpTimer]
   910 0000078F 74 13                           	JE	L137
   911 00000791 0F B6 43 10                     	MOVZX	EAX,BYTE [16+EBX]
   912 00000795 50                              	PUSH	EAX
   913 00000796 FF 73 0C                        	PUSH	DWORD [12+EBX]
   914 00000799 E8 FFFFF893                     	CALL	_QueuePush
   915 0000079E 58                              	POP	EAX
   916 0000079F 5A                              	POP	EDX
   917 000007A0                                 L138:
   918 000007A0 8B 1B                           	MOV	EBX,DWORD [EBX]
   919 000007A2 EB D3                           	JMP	L133
   920 000007A4                                 L137:
   921 000007A4 BE 00000001                     	MOV	ESI,1
   922 000007A9 EB F5                           	JMP	L138
   923 000007AB                                 L134:
   924 000007AB A3 [00000314]                   	MOV	DWORD [_timerctl+4],EAX
   925 000007B0 89 1D [00000318]                	MOV	DWORD [_timerctl+8],EBX
   926 000007B6 89 F0                           	MOV	EAX,ESI
   927 000007B8 84 C0                           	TEST	AL,AL
   928 000007BA 75 07                           	JNE	L140
   929 000007BC                                 L131:
   930 000007BC 8D 65 F8                        	LEA	ESP,DWORD [-8+EBP]
   931 000007BF 5B                              	POP	EBX
   932 000007C0 5E                              	POP	ESI
   933 000007C1 5D                              	POP	EBP
   934 000007C2 C3                              	RET
   935 000007C3                                 L140:
   936 000007C3 8D 65 F8                        	LEA	ESP,DWORD [-8+EBP]
   937 000007C6 5B                              	POP	EBX
   938 000007C7 5E                              	POP	ESI
   939 000007C8 5D                              	POP	EBP
   940 000007C9 E9 FFFFFDC5                     	JMP	_processSwitch
   941 000007CE                                 	GLOBAL	_setSegmdesc
   942 000007CE                                 _setSegmdesc:
   943 000007CE 55                              	PUSH	EBP
   944 000007CF 89 E5                           	MOV	EBP,ESP
   945 000007D1 53                              	PUSH	EBX
   946 000007D2 8B 55 0C                        	MOV	EDX,DWORD [12+EBP]
   947 000007D5 8B 4D 10                        	MOV	ECX,DWORD [16+EBP]
   948 000007D8 8B 5D 08                        	MOV	EBX,DWORD [8+EBP]
   949 000007DB 8B 45 14                        	MOV	EAX,DWORD [20+EBP]
   950 000007DE 81 FA 000FFFFF                  	CMP	EDX,1048575
   951 000007E4 76 08                           	JBE	L142
   952 000007E6 C1 EA 0C                        	SHR	EDX,12
   953 000007E9 0D 00008000                     	OR	EAX,32768
   954 000007EE                                 L142:
   955 000007EE 66 89 13                        	MOV	WORD [EBX],DX
   956 000007F1 88 43 05                        	MOV	BYTE [5+EBX],AL
   957 000007F4 C1 EA 10                        	SHR	EDX,16
   958 000007F7 C1 F8 08                        	SAR	EAX,8
   959 000007FA 83 E2 0F                        	AND	EDX,15
   960 000007FD 66 89 4B 02                     	MOV	WORD [2+EBX],CX
   961 00000801 83 E0 F0                        	AND	EAX,-16
   962 00000804 C1 F9 10                        	SAR	ECX,16
   963 00000807 09 C2                           	OR	EDX,EAX
   964 00000809 88 4B 04                        	MOV	BYTE [4+EBX],CL
   965 0000080C 88 53 06                        	MOV	BYTE [6+EBX],DL
   966 0000080F C1 F9 08                        	SAR	ECX,8
   967 00000812 88 4B 07                        	MOV	BYTE [7+EBX],CL
   968 00000815 5B                              	POP	EBX
   969 00000816 5D                              	POP	EBP
   970 00000817 C3                              	RET
   971 00000818                                 	GLOBAL	_setGatedesc
   972 00000818                                 _setGatedesc:
   973 00000818 55                              	PUSH	EBP
   974 00000819 89 E5                           	MOV	EBP,ESP
   975 0000081B 53                              	PUSH	EBX
   976 0000081C 8B 55 08                        	MOV	EDX,DWORD [8+EBP]
   977 0000081F 8B 45 10                        	MOV	EAX,DWORD [16+EBP]
   978 00000822 8B 5D 14                        	MOV	EBX,DWORD [20+EBP]
   979 00000825 8B 4D 0C                        	MOV	ECX,DWORD [12+EBP]
   980 00000828 66 89 42 02                     	MOV	WORD [2+EDX],AX
   981 0000082C 88 5A 05                        	MOV	BYTE [5+EDX],BL
   982 0000082F 66 89 0A                        	MOV	WORD [EDX],CX
   983 00000832 89 D8                           	MOV	EAX,EBX
   984 00000834 C1 F8 08                        	SAR	EAX,8
   985 00000837 C1 F9 10                        	SAR	ECX,16
   986 0000083A 88 42 04                        	MOV	BYTE [4+EDX],AL
   987 0000083D 66 89 4A 06                     	MOV	WORD [6+EDX],CX
   988 00000841 5B                              	POP	EBX
   989 00000842 5D                              	POP	EBP
   990 00000843 C3                              	RET
   991 00000844                                 	GLOBAL	_initGdtit
   992 00000844                                 _initGdtit:
   993 00000844 55                              	PUSH	EBP
   994 00000845 89 E5                           	MOV	EBP,ESP
   995 00000847 56                              	PUSH	ESI
   996 00000848 53                              	PUSH	EBX
   997 00000849 BE 00270000                     	MOV	ESI,2555904
   998 0000084E BB 00001FFF                     	MOV	EBX,8191
   999 00000853                                 L149:
  1000 00000853 6A 00                           	PUSH	0
  1001 00000855 6A 00                           	PUSH	0
  1002 00000857 6A 00                           	PUSH	0
  1003 00000859 56                              	PUSH	ESI
  1004 0000085A 83 C6 08                        	ADD	ESI,8
  1005 0000085D E8 FFFFFF6C                     	CALL	_setSegmdesc
  1006 00000862 83 C4 10                        	ADD	ESP,16
  1007 00000865 4B                              	DEC	EBX
  1008 00000866 79 EB                           	JNS	L149
  1009 00000868 68 00004092                     	PUSH	16530
  1010 0000086D BB 000000FF                     	MOV	EBX,255
  1011 00000872 6A 00                           	PUSH	0
  1012 00000874 6A FF                           	PUSH	-1
  1013 00000876 68 00270008                     	PUSH	2555912
  1014 0000087B E8 FFFFFF4E                     	CALL	_setSegmdesc
  1015 00000880 68 0000409A                     	PUSH	16538
  1016 00000885 68 00280000                     	PUSH	2621440
  1017 0000088A 68 0007FFFF                     	PUSH	524287
  1018 0000088F 68 00270010                     	PUSH	2555920
  1019 00000894 E8 FFFFFF35                     	CALL	_setSegmdesc
  1020 00000899 83 C4 20                        	ADD	ESP,32
  1021 0000089C 68 00270000                     	PUSH	2555904
  1022 000008A1 68 0000FFFF                     	PUSH	65535
  1023 000008A6 E8 [00000000]                   	CALL	_loadGdtr
  1024 000008AB 5E                              	POP	ESI
  1025 000008AC 58                              	POP	EAX
  1026 000008AD BE 0026F800                     	MOV	ESI,2553856
  1027 000008B2                                 L154:
  1028 000008B2 6A 00                           	PUSH	0
  1029 000008B4 6A 00                           	PUSH	0
  1030 000008B6 6A 00                           	PUSH	0
  1031 000008B8 56                              	PUSH	ESI
  1032 000008B9 83 C6 08                        	ADD	ESI,8
  1033 000008BC E8 FFFFFF57                     	CALL	_setGatedesc
  1034 000008C1 83 C4 10                        	ADD	ESP,16
  1035 000008C4 4B                              	DEC	EBX
  1036 000008C5 79 EB                           	JNS	L154
  1037 000008C7 68 0026F800                     	PUSH	2553856
  1038 000008CC 68 000007FF                     	PUSH	2047
  1039 000008D1 E8 [00000000]                   	CALL	_loadIdtr
  1040 000008D6 68 0000008E                     	PUSH	142
  1041 000008DB 6A 10                           	PUSH	16
  1042 000008DD 68 [00000000]                   	PUSH	_asm_interruptHandler20
  1043 000008E2 68 0026F900                     	PUSH	2554112
  1044 000008E7 E8 FFFFFF2C                     	CALL	_setGatedesc
  1045 000008EC 68 0000008E                     	PUSH	142
  1046 000008F1 6A 10                           	PUSH	16
  1047 000008F3 68 [00000000]                   	PUSH	_asm_interruptHandler21
  1048 000008F8 68 0026F908                     	PUSH	2554120
  1049 000008FD E8 FFFFFF16                     	CALL	_setGatedesc
  1050 00000902 83 C4 28                        	ADD	ESP,40
  1051 00000905 68 0000008E                     	PUSH	142
  1052 0000090A 6A 10                           	PUSH	16
  1053 0000090C 68 [00000000]                   	PUSH	_asm_interruptHandler27
  1054 00000911 68 0026F938                     	PUSH	2554168
  1055 00000916 E8 FFFFFEFD                     	CALL	_setGatedesc
  1056 0000091B 68 0000008E                     	PUSH	142
  1057 00000920 6A 10                           	PUSH	16
  1058 00000922 68 [00000000]                   	PUSH	_asm_interruptHandler2c
  1059 00000927 68 0026F960                     	PUSH	2554208
  1060 0000092C E8 FFFFFEE7                     	CALL	_setGatedesc
  1061 00000931 8D 65 F8                        	LEA	ESP,DWORD [-8+EBP]
  1062 00000934 5B                              	POP	EBX
  1063 00000935 5E                              	POP	ESI
  1064 00000936 5D                              	POP	EBP
  1065 00000937 C3                              	RET
  1066 00000938                                 	GLOBAL	_set_palette
  1067 00000938                                 _set_palette:
  1068 00000938 55                              	PUSH	EBP
  1069 00000939 89 E5                           	MOV	EBP,ESP
  1070 0000093B 57                              	PUSH	EDI
  1071 0000093C 56                              	PUSH	ESI
  1072 0000093D 53                              	PUSH	EBX
  1073 0000093E 51                              	PUSH	ECX
  1074 0000093F 8B 5D 08                        	MOV	EBX,DWORD [8+EBP]
  1075 00000942 8B 7D 0C                        	MOV	EDI,DWORD [12+EBP]
  1076 00000945 8B 75 10                        	MOV	ESI,DWORD [16+EBP]
  1077 00000948 E8 [00000000]                   	CALL	_io_load_eflags
  1078 0000094D 89 45 F0                        	MOV	DWORD [-16+EBP],EAX
  1079 00000950 E8 [00000000]                   	CALL	_io_cli
  1080 00000955 53                              	PUSH	EBX
  1081 00000956 68 000003C8                     	PUSH	968
  1082 0000095B E8 [00000000]                   	CALL	_io_out8
  1083 00000960 39 FB                           	CMP	EBX,EDI
  1084 00000962 58                              	POP	EAX
  1085 00000963 5A                              	POP	EDX
  1086 00000964 7D 48                           	JGE	L166
  1087 00000966 29 DF                           	SUB	EDI,EBX
  1088 00000968 89 FB                           	MOV	EBX,EDI
  1089 0000096A                                 L164:
  1090 0000096A 8A 06                           	MOV	AL,BYTE [ESI]
  1091 0000096C C0 E8 02                        	SHR	AL,2
  1092 0000096F 0F B6 C0                        	MOVZX	EAX,AL
  1093 00000972 50                              	PUSH	EAX
  1094 00000973 68 000003C9                     	PUSH	969
  1095 00000978 E8 [00000000]                   	CALL	_io_out8
  1096 0000097D 8A 46 01                        	MOV	AL,BYTE [1+ESI]
  1097 00000980 C0 E8 02                        	SHR	AL,2
  1098 00000983 0F B6 C0                        	MOVZX	EAX,AL
  1099 00000986 50                              	PUSH	EAX
  1100 00000987 68 000003C9                     	PUSH	969
  1101 0000098C E8 [00000000]                   	CALL	_io_out8
  1102 00000991 8A 46 02                        	MOV	AL,BYTE [2+ESI]
  1103 00000994 C0 E8 02                        	SHR	AL,2
  1104 00000997 83 C6 03                        	ADD	ESI,3
  1105 0000099A 0F B6 C0                        	MOVZX	EAX,AL
  1106 0000099D 50                              	PUSH	EAX
  1107 0000099E 68 000003C9                     	PUSH	969
  1108 000009A3 E8 [00000000]                   	CALL	_io_out8
  1109 000009A8 83 C4 18                        	ADD	ESP,24
  1110 000009AB 4B                              	DEC	EBX
  1111 000009AC 75 BC                           	JNE	L164
  1112 000009AE                                 L166:
  1113 000009AE 8B 45 F0                        	MOV	EAX,DWORD [-16+EBP]
  1114 000009B1 89 45 08                        	MOV	DWORD [8+EBP],EAX
  1115 000009B4 8D 65 F4                        	LEA	ESP,DWORD [-12+EBP]
  1116 000009B7 5B                              	POP	EBX
  1117 000009B8 5E                              	POP	ESI
  1118 000009B9 5F                              	POP	EDI
  1119 000009BA 5D                              	POP	EBP
  1120 000009BB E9 [00000000]                   	JMP	_io_store_eflags
  1121                                          [SECTION .data]
  1122 00000080                                 _table_rgb.0:
  1123 00000080 00                              	DB	0
  1124 00000081 00                              	DB	0
  1125 00000082 00                              	DB	0
  1126 00000083 FF                              	DB	-1
  1127 00000084 00                              	DB	0
  1128 00000085 00                              	DB	0
  1129 00000086 00                              	DB	0
  1130 00000087 FF                              	DB	-1
  1131 00000088 00                              	DB	0
  1132 00000089 FF                              	DB	-1
  1133 0000008A FF                              	DB	-1
  1134 0000008B 00                              	DB	0
  1135 0000008C 00                              	DB	0
  1136 0000008D 00                              	DB	0
  1137 0000008E FF                              	DB	-1
  1138 0000008F FF                              	DB	-1
  1139 00000090 00                              	DB	0
  1140 00000091 FF                              	DB	-1
  1141 00000092 00                              	DB	0
  1142 00000093 FF                              	DB	-1
  1143 00000094 FF                              	DB	-1
  1144 00000095 FF                              	DB	-1
  1145 00000096 FF                              	DB	-1
  1146 00000097 FF                              	DB	-1
  1147 00000098 C6                              	DB	-58
  1148 00000099 C6                              	DB	-58
  1149 0000009A C6                              	DB	-58
  1150 0000009B 84                              	DB	-124
  1151 0000009C 00                              	DB	0
  1152 0000009D 00                              	DB	0
  1153 0000009E 00                              	DB	0
  1154 0000009F 84                              	DB	-124
  1155 000000A0 00                              	DB	0
  1156 000000A1 84                              	DB	-124
  1157 000000A2 84                              	DB	-124
  1158 000000A3 00                              	DB	0
  1159 000000A4 00                              	DB	0
  1160 000000A5 00                              	DB	0
  1161 000000A6 84                              	DB	-124
  1162 000000A7 84                              	DB	-124
  1163 000000A8 00                              	DB	0
  1164 000000A9 84                              	DB	-124
  1165 000000AA 00                              	DB	0
  1166 000000AB 84                              	DB	-124
  1167 000000AC 84                              	DB	-124
  1168 000000AD 84                              	DB	-124
  1169 000000AE 84                              	DB	-124
  1170 000000AF 84                              	DB	-124
  1171                                          [SECTION .text]
  1172 000009C0                                 	GLOBAL	_init_palette
  1173 000009C0                                 _init_palette:
  1174 000009C0 55                              	PUSH	EBP
  1175 000009C1 89 E5                           	MOV	EBP,ESP
  1176 000009C3 68 [00000080]                   	PUSH	_table_rgb.0
  1177 000009C8 6A 0F                           	PUSH	15
  1178 000009CA 6A 00                           	PUSH	0
  1179 000009CC E8 FFFFFF67                     	CALL	_set_palette
  1180 000009D1 C9                              	LEAVE
  1181 000009D2 C3                              	RET
  1182 000009D3                                 	GLOBAL	_boxFill8
  1183 000009D3                                 _boxFill8:
  1184 000009D3 55                              	PUSH	EBP
  1185 000009D4 89 E5                           	MOV	EBP,ESP
  1186 000009D6 57                              	PUSH	EDI
  1187 000009D7 56                              	PUSH	ESI
  1188 000009D8 53                              	PUSH	EBX
  1189 000009D9 57                              	PUSH	EDI
  1190 000009DA 57                              	PUSH	EDI
  1191 000009DB 8A 45 10                        	MOV	AL,BYTE [16+EBP]
  1192 000009DE 8B 4D 18                        	MOV	ECX,DWORD [24+EBP]
  1193 000009E1 8B 7D 1C                        	MOV	EDI,DWORD [28+EBP]
  1194 000009E4 88 45 F3                        	MOV	BYTE [-13+EBP],AL
  1195 000009E7 3B 4D 20                        	CMP	ECX,DWORD [32+EBP]
  1196 000009EA 7F 31                           	JG	L180
  1197 000009EC 8B 5D 0C                        	MOV	EBX,DWORD [12+EBP]
  1198 000009EF 0F AF D9                        	IMUL	EBX,ECX
  1199 000009F2                                 L178:
  1200 000009F2 8B 55 14                        	MOV	EDX,DWORD [20+EBP]
  1201 000009F5 39 FA                           	CMP	EDX,EDI
  1202 000009F7 7F 1B                           	JG	L182
  1203 000009F9 8B 75 08                        	MOV	ESI,DWORD [8+EBP]
  1204 000009FC 01 DE                           	ADD	ESI,EBX
  1205 000009FE 01 D6                           	ADD	ESI,EDX
  1206 00000A00 89 75 EC                        	MOV	DWORD [-20+EBP],ESI
  1207 00000A03                                 L177:
  1208 00000A03 8B 75 EC                        	MOV	ESI,DWORD [-20+EBP]
  1209 00000A06 8A 45 F3                        	MOV	AL,BYTE [-13+EBP]
  1210 00000A09 42                              	INC	EDX
  1211 00000A0A 88 06                           	MOV	BYTE [ESI],AL
  1212 00000A0C 46                              	INC	ESI
  1213 00000A0D 89 75 EC                        	MOV	DWORD [-20+EBP],ESI
  1214 00000A10 39 FA                           	CMP	EDX,EDI
  1215 00000A12 7E EF                           	JLE	L177
  1216 00000A14                                 L182:
  1217 00000A14 41                              	INC	ECX
  1218 00000A15 03 5D 0C                        	ADD	EBX,DWORD [12+EBP]
  1219 00000A18 3B 4D 20                        	CMP	ECX,DWORD [32+EBP]
  1220 00000A1B 7E D5                           	JLE	L178
  1221 00000A1D                                 L180:
  1222 00000A1D 5B                              	POP	EBX
  1223 00000A1E 5E                              	POP	ESI
  1224 00000A1F 5B                              	POP	EBX
  1225 00000A20 5E                              	POP	ESI
  1226 00000A21 5F                              	POP	EDI
  1227 00000A22 5D                              	POP	EBP
  1228 00000A23 C3                              	RET
  1229 00000A24                                 	GLOBAL	_init_GUI
  1230 00000A24                                 _init_GUI:
  1231 00000A24 55                              	PUSH	EBP
  1232 00000A25 89 E5                           	MOV	EBP,ESP
  1233 00000A27 57                              	PUSH	EDI
  1234 00000A28 56                              	PUSH	ESI
  1235 00000A29 53                              	PUSH	EBX
  1236 00000A2A 83 EC 0C                        	SUB	ESP,12
  1237 00000A2D 8B 45 10                        	MOV	EAX,DWORD [16+EBP]
  1238 00000A30 8B 7D 0C                        	MOV	EDI,DWORD [12+EBP]
  1239 00000A33 83 E8 1D                        	SUB	EAX,29
  1240 00000A36 4F                              	DEC	EDI
  1241 00000A37 50                              	PUSH	EAX
  1242 00000A38 57                              	PUSH	EDI
  1243 00000A39 6A 00                           	PUSH	0
  1244 00000A3B 6A 00                           	PUSH	0
  1245 00000A3D 6A 0E                           	PUSH	14
  1246 00000A3F FF 75 0C                        	PUSH	DWORD [12+EBP]
  1247 00000A42 FF 75 08                        	PUSH	DWORD [8+EBP]
  1248 00000A45 E8 FFFFFF89                     	CALL	_boxFill8
  1249 00000A4A 8B 45 10                        	MOV	EAX,DWORD [16+EBP]
  1250 00000A4D 83 E8 1C                        	SUB	EAX,28
  1251 00000A50 50                              	PUSH	EAX
  1252 00000A51 57                              	PUSH	EDI
  1253 00000A52 50                              	PUSH	EAX
  1254 00000A53 6A 00                           	PUSH	0
  1255 00000A55 6A 08                           	PUSH	8
  1256 00000A57 FF 75 0C                        	PUSH	DWORD [12+EBP]
  1257 00000A5A FF 75 08                        	PUSH	DWORD [8+EBP]
  1258 00000A5D E8 FFFFFF71                     	CALL	_boxFill8
  1259 00000A62 8B 45 10                        	MOV	EAX,DWORD [16+EBP]
  1260 00000A65 83 C4 38                        	ADD	ESP,56
  1261 00000A68 83 E8 1B                        	SUB	EAX,27
  1262 00000A6B 50                              	PUSH	EAX
  1263 00000A6C 57                              	PUSH	EDI
  1264 00000A6D 50                              	PUSH	EAX
  1265 00000A6E 6A 00                           	PUSH	0
  1266 00000A70 6A 07                           	PUSH	7
  1267 00000A72 FF 75 0C                        	PUSH	DWORD [12+EBP]
  1268 00000A75 FF 75 08                        	PUSH	DWORD [8+EBP]
  1269 00000A78 E8 FFFFFF56                     	CALL	_boxFill8
  1270 00000A7D 8B 45 10                        	MOV	EAX,DWORD [16+EBP]
  1271 00000A80 48                              	DEC	EAX
  1272 00000A81 50                              	PUSH	EAX
  1273 00000A82 8B 45 10                        	MOV	EAX,DWORD [16+EBP]
  1274 00000A85 57                              	PUSH	EDI
  1275 00000A86 83 E8 1A                        	SUB	EAX,26
  1276 00000A89 50                              	PUSH	EAX
  1277 00000A8A 6A 00                           	PUSH	0
  1278 00000A8C 6A 08                           	PUSH	8
  1279 00000A8E FF 75 0C                        	PUSH	DWORD [12+EBP]
  1280 00000A91 FF 75 08                        	PUSH	DWORD [8+EBP]
  1281 00000A94 E8 FFFFFF3A                     	CALL	_boxFill8
  1282 00000A99 8B 75 10                        	MOV	ESI,DWORD [16+EBP]
  1283 00000A9C 83 C4 38                        	ADD	ESP,56
  1284 00000A9F 83 EE 18                        	SUB	ESI,24
  1285 00000AA2 56                              	PUSH	ESI
  1286 00000AA3 6A 3B                           	PUSH	59
  1287 00000AA5 56                              	PUSH	ESI
  1288 00000AA6 6A 03                           	PUSH	3
  1289 00000AA8 6A 07                           	PUSH	7
  1290 00000AAA FF 75 0C                        	PUSH	DWORD [12+EBP]
  1291 00000AAD FF 75 08                        	PUSH	DWORD [8+EBP]
  1292 00000AB0 E8 FFFFFF1E                     	CALL	_boxFill8
  1293 00000AB5 8B 45 10                        	MOV	EAX,DWORD [16+EBP]
  1294 00000AB8 83 E8 04                        	SUB	EAX,4
  1295 00000ABB 50                              	PUSH	EAX
  1296 00000ABC 89 45 F0                        	MOV	DWORD [-16+EBP],EAX
  1297 00000ABF 6A 02                           	PUSH	2
  1298 00000AC1 56                              	PUSH	ESI
  1299 00000AC2 6A 02                           	PUSH	2
  1300 00000AC4 6A 07                           	PUSH	7
  1301 00000AC6 FF 75 0C                        	PUSH	DWORD [12+EBP]
  1302 00000AC9 FF 75 08                        	PUSH	DWORD [8+EBP]
  1303 00000ACC E8 FFFFFF02                     	CALL	_boxFill8
  1304 00000AD1 83 C4 38                        	ADD	ESP,56
  1305 00000AD4 FF 75 F0                        	PUSH	DWORD [-16+EBP]
  1306 00000AD7 6A 3B                           	PUSH	59
  1307 00000AD9 FF 75 F0                        	PUSH	DWORD [-16+EBP]
  1308 00000ADC 6A 03                           	PUSH	3
  1309 00000ADE 6A 0F                           	PUSH	15
  1310 00000AE0 FF 75 0C                        	PUSH	DWORD [12+EBP]
  1311 00000AE3 FF 75 08                        	PUSH	DWORD [8+EBP]
  1312 00000AE6 E8 FFFFFEE8                     	CALL	_boxFill8
  1313 00000AEB 8B 45 10                        	MOV	EAX,DWORD [16+EBP]
  1314 00000AEE 83 E8 05                        	SUB	EAX,5
  1315 00000AF1 50                              	PUSH	EAX
  1316 00000AF2 8B 45 10                        	MOV	EAX,DWORD [16+EBP]
  1317 00000AF5 6A 3B                           	PUSH	59
  1318 00000AF7 83 E8 17                        	SUB	EAX,23
  1319 00000AFA 50                              	PUSH	EAX
  1320 00000AFB 89 45 EC                        	MOV	DWORD [-20+EBP],EAX
  1321 00000AFE 6A 3B                           	PUSH	59
  1322 00000B00 6A 0F                           	PUSH	15
  1323 00000B02 FF 75 0C                        	PUSH	DWORD [12+EBP]
  1324 00000B05 FF 75 08                        	PUSH	DWORD [8+EBP]
  1325 00000B08 E8 FFFFFEC6                     	CALL	_boxFill8
  1326 00000B0D 8B 45 10                        	MOV	EAX,DWORD [16+EBP]
  1327 00000B10 83 C4 38                        	ADD	ESP,56
  1328 00000B13 83 E8 03                        	SUB	EAX,3
  1329 00000B16 89 45 E8                        	MOV	DWORD [-24+EBP],EAX
  1330 00000B19 50                              	PUSH	EAX
  1331 00000B1A 6A 3B                           	PUSH	59
  1332 00000B1C 50                              	PUSH	EAX
  1333 00000B1D 6A 02                           	PUSH	2
  1334 00000B1F 6A 00                           	PUSH	0
  1335 00000B21 FF 75 0C                        	PUSH	DWORD [12+EBP]
  1336 00000B24 FF 75 08                        	PUSH	DWORD [8+EBP]
  1337 00000B27 E8 FFFFFEA7                     	CALL	_boxFill8
  1338 00000B2C FF 75 E8                        	PUSH	DWORD [-24+EBP]
  1339 00000B2F 6A 3C                           	PUSH	60
  1340 00000B31 56                              	PUSH	ESI
  1341 00000B32 6A 3C                           	PUSH	60
  1342 00000B34 6A 00                           	PUSH	0
  1343 00000B36 FF 75 0C                        	PUSH	DWORD [12+EBP]
  1344 00000B39 FF 75 08                        	PUSH	DWORD [8+EBP]
  1345 00000B3C E8 FFFFFE92                     	CALL	_boxFill8
  1346 00000B41 8B 7D 0C                        	MOV	EDI,DWORD [12+EBP]
  1347 00000B44 83 C4 38                        	ADD	ESP,56
  1348 00000B47 8B 5D 0C                        	MOV	EBX,DWORD [12+EBP]
  1349 00000B4A 83 EB 04                        	SUB	EBX,4
  1350 00000B4D 83 EF 2F                        	SUB	EDI,47
  1351 00000B50 56                              	PUSH	ESI
  1352 00000B51 53                              	PUSH	EBX
  1353 00000B52 56                              	PUSH	ESI
  1354 00000B53 57                              	PUSH	EDI
  1355 00000B54 6A 0F                           	PUSH	15
  1356 00000B56 FF 75 0C                        	PUSH	DWORD [12+EBP]
  1357 00000B59 FF 75 08                        	PUSH	DWORD [8+EBP]
  1358 00000B5C E8 FFFFFE72                     	CALL	_boxFill8
  1359 00000B61 FF 75 F0                        	PUSH	DWORD [-16+EBP]
  1360 00000B64 57                              	PUSH	EDI
  1361 00000B65 FF 75 EC                        	PUSH	DWORD [-20+EBP]
  1362 00000B68 57                              	PUSH	EDI
  1363 00000B69 6A 0F                           	PUSH	15
  1364 00000B6B FF 75 0C                        	PUSH	DWORD [12+EBP]
  1365 00000B6E FF 75 08                        	PUSH	DWORD [8+EBP]
  1366 00000B71 E8 FFFFFE5D                     	CALL	_boxFill8
  1367 00000B76 83 C4 38                        	ADD	ESP,56
  1368 00000B79 FF 75 E8                        	PUSH	DWORD [-24+EBP]
  1369 00000B7C 53                              	PUSH	EBX
  1370 00000B7D FF 75 E8                        	PUSH	DWORD [-24+EBP]
  1371 00000B80 57                              	PUSH	EDI
  1372 00000B81 6A 07                           	PUSH	7
  1373 00000B83 FF 75 0C                        	PUSH	DWORD [12+EBP]
  1374 00000B86 FF 75 08                        	PUSH	DWORD [8+EBP]
  1375 00000B89 E8 FFFFFE45                     	CALL	_boxFill8
  1376 00000B8E 8B 45 0C                        	MOV	EAX,DWORD [12+EBP]
  1377 00000B91 FF 75 E8                        	PUSH	DWORD [-24+EBP]
  1378 00000B94 83 E8 03                        	SUB	EAX,3
  1379 00000B97 50                              	PUSH	EAX
  1380 00000B98 56                              	PUSH	ESI
  1381 00000B99 50                              	PUSH	EAX
  1382 00000B9A 6A 07                           	PUSH	7
  1383 00000B9C FF 75 0C                        	PUSH	DWORD [12+EBP]
  1384 00000B9F FF 75 08                        	PUSH	DWORD [8+EBP]
  1385 00000BA2 E8 FFFFFE2C                     	CALL	_boxFill8
  1386 00000BA7 8D 65 F4                        	LEA	ESP,DWORD [-12+EBP]
  1387 00000BAA 5B                              	POP	EBX
  1388 00000BAB 5E                              	POP	ESI
  1389 00000BAC 5F                              	POP	EDI
  1390 00000BAD 5D                              	POP	EBP
  1391 00000BAE C3                              	RET
  1392 00000BAF                                 	GLOBAL	_putFont8
  1393 00000BAF                                 _putFont8:
  1394 00000BAF 55                              	PUSH	EBP
  1395 00000BB0 89 E5                           	MOV	EBP,ESP
  1396 00000BB2 57                              	PUSH	EDI
  1397 00000BB3 56                              	PUSH	ESI
  1398 00000BB4 31 F6                           	XOR	ESI,ESI
  1399 00000BB6 53                              	PUSH	EBX
  1400 00000BB7 8B 7D 1C                        	MOV	EDI,DWORD [28+EBP]
  1401 00000BBA 8A 5D 18                        	MOV	BL,BYTE [24+EBP]
  1402 00000BBD                                 L197:
  1403 00000BBD 8B 45 14                        	MOV	EAX,DWORD [20+EBP]
  1404 00000BC0 8B 55 10                        	MOV	EDX,DWORD [16+EBP]
  1405 00000BC3 01 F0                           	ADD	EAX,ESI
  1406 00000BC5 0F AF 45 0C                     	IMUL	EAX,DWORD [12+EBP]
  1407 00000BC9 03 45 08                        	ADD	EAX,DWORD [8+EBP]
  1408 00000BCC 8D 0C 02                        	LEA	ECX,DWORD [EDX+EAX*1]
  1409 00000BCF 8A 14 3E                        	MOV	DL,BYTE [ESI+EDI*1]
  1410 00000BD2 84 D2                           	TEST	DL,DL
  1411 00000BD4 79 02                           	JNS	L189
  1412 00000BD6 88 19                           	MOV	BYTE [ECX],BL
  1413 00000BD8                                 L189:
  1414 00000BD8 88 D0                           	MOV	AL,DL
  1415 00000BDA 83 E0 40                        	AND	EAX,64
  1416 00000BDD 84 C0                           	TEST	AL,AL
  1417 00000BDF 74 03                           	JE	L190
  1418 00000BE1 88 59 01                        	MOV	BYTE [1+ECX],BL
  1419 00000BE4                                 L190:
  1420 00000BE4 88 D0                           	MOV	AL,DL
  1421 00000BE6 83 E0 20                        	AND	EAX,32
  1422 00000BE9 84 C0                           	TEST	AL,AL
  1423 00000BEB 74 03                           	JE	L191
  1424 00000BED 88 59 02                        	MOV	BYTE [2+ECX],BL
  1425 00000BF0                                 L191:
  1426 00000BF0 88 D0                           	MOV	AL,DL
  1427 00000BF2 83 E0 10                        	AND	EAX,16
  1428 00000BF5 84 C0                           	TEST	AL,AL
  1429 00000BF7 74 03                           	JE	L192
  1430 00000BF9 88 59 03                        	MOV	BYTE [3+ECX],BL
  1431 00000BFC                                 L192:
  1432 00000BFC 88 D0                           	MOV	AL,DL
  1433 00000BFE 83 E0 08                        	AND	EAX,8
  1434 00000C01 84 C0                           	TEST	AL,AL
  1435 00000C03 74 03                           	JE	L193
  1436 00000C05 88 59 04                        	MOV	BYTE [4+ECX],BL
  1437 00000C08                                 L193:
  1438 00000C08 88 D0                           	MOV	AL,DL
  1439 00000C0A 83 E0 04                        	AND	EAX,4
  1440 00000C0D 84 C0                           	TEST	AL,AL
  1441 00000C0F 74 03                           	JE	L194
  1442 00000C11 88 59 05                        	MOV	BYTE [5+ECX],BL
  1443 00000C14                                 L194:
  1444 00000C14 88 D0                           	MOV	AL,DL
  1445 00000C16 83 E0 02                        	AND	EAX,2
  1446 00000C19 84 C0                           	TEST	AL,AL
  1447 00000C1B 74 03                           	JE	L195
  1448 00000C1D 88 59 06                        	MOV	BYTE [6+ECX],BL
  1449 00000C20                                 L195:
  1450 00000C20 83 E2 01                        	AND	EDX,1
  1451 00000C23 84 D2                           	TEST	DL,DL
  1452 00000C25 74 03                           	JE	L187
  1453 00000C27 88 59 07                        	MOV	BYTE [7+ECX],BL
  1454 00000C2A                                 L187:
  1455 00000C2A 46                              	INC	ESI
  1456 00000C2B 83 FE 0F                        	CMP	ESI,15
  1457 00000C2E 7E 8D                           	JLE	L197
  1458 00000C30 5B                              	POP	EBX
  1459 00000C31 5E                              	POP	ESI
  1460 00000C32 5F                              	POP	EDI
  1461 00000C33 5D                              	POP	EBP
  1462 00000C34 C3                              	RET
  1463 00000C35                                 	GLOBAL	_putFont8_asc
  1464 00000C35                                 _putFont8_asc:
  1465 00000C35 55                              	PUSH	EBP
  1466 00000C36 89 E5                           	MOV	EBP,ESP
  1467 00000C38 57                              	PUSH	EDI
  1468 00000C39 56                              	PUSH	ESI
  1469 00000C3A 53                              	PUSH	EBX
  1470 00000C3B 50                              	PUSH	EAX
  1471 00000C3C 8B 5D 1C                        	MOV	EBX,DWORD [28+EBP]
  1472 00000C3F 8A 45 18                        	MOV	AL,BYTE [24+EBP]
  1473 00000C42 88 45 F3                        	MOV	BYTE [-13+EBP],AL
  1474 00000C45 8B 75 10                        	MOV	ESI,DWORD [16+EBP]
  1475 00000C48 8B 7D 14                        	MOV	EDI,DWORD [20+EBP]
  1476 00000C4B 80 3B 00                        	CMP	BYTE [EBX],0
  1477 00000C4E 75 08                           	JNE	L205
  1478 00000C50                                 L207:
  1479 00000C50 8D 65 F4                        	LEA	ESP,DWORD [-12+EBP]
  1480 00000C53 5B                              	POP	EBX
  1481 00000C54 5E                              	POP	ESI
  1482 00000C55 5F                              	POP	EDI
  1483 00000C56 5D                              	POP	EBP
  1484 00000C57 C3                              	RET
  1485 00000C58                                 L205:
  1486 00000C58 0F B6 03                        	MOVZX	EAX,BYTE [EBX]
  1487 00000C5B C1 E0 04                        	SAL	EAX,4
  1488 00000C5E 43                              	INC	EBX
  1489 00000C5F 05 [00000000]                   	ADD	EAX,_font
  1490 00000C64 50                              	PUSH	EAX
  1491 00000C65 0F BE 45 F3                     	MOVSX	EAX,BYTE [-13+EBP]
  1492 00000C69 50                              	PUSH	EAX
  1493 00000C6A 57                              	PUSH	EDI
  1494 00000C6B 56                              	PUSH	ESI
  1495 00000C6C 83 C6 08                        	ADD	ESI,8
  1496 00000C6F FF 75 0C                        	PUSH	DWORD [12+EBP]
  1497 00000C72 FF 75 08                        	PUSH	DWORD [8+EBP]
  1498 00000C75 E8 FFFFFF35                     	CALL	_putFont8
  1499 00000C7A 83 C4 18                        	ADD	ESP,24
  1500 00000C7D 80 3B 00                        	CMP	BYTE [EBX],0
  1501 00000C80 75 D6                           	JNE	L205
  1502 00000C82 EB CC                           	JMP	L207
  1503 00000C84                                 	GLOBAL	_putFont8AscSheet
  1504 00000C84                                 _putFont8AscSheet:
  1505 00000C84 55                              	PUSH	EBP
  1506 00000C85 89 E5                           	MOV	EBP,ESP
  1507 00000C87 57                              	PUSH	EDI
  1508 00000C88 56                              	PUSH	ESI
  1509 00000C89 53                              	PUSH	EBX
  1510 00000C8A 83 EC 0C                        	SUB	ESP,12
  1511 00000C8D 8B 45 08                        	MOV	EAX,DWORD [8+EBP]
  1512 00000C90 8B 7D 10                        	MOV	EDI,DWORD [16+EBP]
  1513 00000C93 89 45 F0                        	MOV	DWORD [-16+EBP],EAX
  1514 00000C96 8B 5D 14                        	MOV	EBX,DWORD [20+EBP]
  1515 00000C99 8B 45 0C                        	MOV	EAX,DWORD [12+EBP]
  1516 00000C9C 89 45 EC                        	MOV	DWORD [-20+EBP],EAX
  1517 00000C9F 8B 45 1C                        	MOV	EAX,DWORD [28+EBP]
  1518 00000CA2 89 45 E8                        	MOV	DWORD [-24+EBP],EAX
  1519 00000CA5 8D 47 0F                        	LEA	EAX,DWORD [15+EDI]
  1520 00000CA8 50                              	PUSH	EAX
  1521 00000CA9 8B 45 EC                        	MOV	EAX,DWORD [-20+EBP]
  1522 00000CAC 8B 75 20                        	MOV	ESI,DWORD [32+EBP]
  1523 00000CAF 0F BE DB                        	MOVSX	EBX,BL
  1524 00000CB2 8D 34 F0                        	LEA	ESI,DWORD [EAX+ESI*8]
  1525 00000CB5 8D 46 FF                        	LEA	EAX,DWORD [-1+ESI]
  1526 00000CB8 50                              	PUSH	EAX
  1527 00000CB9 57                              	PUSH	EDI
  1528 00000CBA FF 75 EC                        	PUSH	DWORD [-20+EBP]
  1529 00000CBD 0F B6 45 18                     	MOVZX	EAX,BYTE [24+EBP]
  1530 00000CC1 50                              	PUSH	EAX
  1531 00000CC2 8B 45 F0                        	MOV	EAX,DWORD [-16+EBP]
  1532 00000CC5 FF 70 04                        	PUSH	DWORD [4+EAX]
  1533 00000CC8 FF 30                           	PUSH	DWORD [EAX]
  1534 00000CCA E8 FFFFFD04                     	CALL	_boxFill8
  1535 00000CCF FF 75 E8                        	PUSH	DWORD [-24+EBP]
  1536 00000CD2 53                              	PUSH	EBX
  1537 00000CD3 57                              	PUSH	EDI
  1538 00000CD4 FF 75 EC                        	PUSH	DWORD [-20+EBP]
  1539 00000CD7 8B 45 F0                        	MOV	EAX,DWORD [-16+EBP]
  1540 00000CDA FF 70 04                        	PUSH	DWORD [4+EAX]
  1541 00000CDD FF 30                           	PUSH	DWORD [EAX]
  1542 00000CDF E8 FFFFFF51                     	CALL	_putFont8_asc
  1543 00000CE4 89 7D 10                        	MOV	DWORD [16+EBP],EDI
  1544 00000CE7 8D 47 10                        	LEA	EAX,DWORD [16+EDI]
  1545 00000CEA 89 75 14                        	MOV	DWORD [20+EBP],ESI
  1546 00000CED 89 45 18                        	MOV	DWORD [24+EBP],EAX
  1547 00000CF0 83 C4 34                        	ADD	ESP,52
  1548 00000CF3 8B 45 EC                        	MOV	EAX,DWORD [-20+EBP]
  1549 00000CF6 89 45 0C                        	MOV	DWORD [12+EBP],EAX
  1550 00000CF9 8B 45 F0                        	MOV	EAX,DWORD [-16+EBP]
  1551 00000CFC 89 45 08                        	MOV	DWORD [8+EBP],EAX
  1552 00000CFF 8D 65 F4                        	LEA	ESP,DWORD [-12+EBP]
  1553 00000D02 5B                              	POP	EBX
  1554 00000D03 5E                              	POP	ESI
  1555 00000D04 5F                              	POP	EDI
  1556 00000D05 5D                              	POP	EBP
  1557 00000D06 E9 0000065B                     	JMP	_sheetRefresh
  1558                                          [SECTION .data]
  1559 000000B0                                 _cursor.1:
  1560 000000B0 2A 2E 2E 2E 2E 2E 2E 2E 2E 2E   	DB	"*..............."
       000000BA 2E 2E 2E 2E 2E 2E 
  1561 000000C0 2A 2A 2E 2E 2E 2E 2E 2E 2E 2E   	DB	"**.............."
       000000CA 2E 2E 2E 2E 2E 2E 
  1562 000000D0 2A 4F 2A 2E 2E 2E 2E 2E 2E 2E   	DB	"*O*............."
       000000DA 2E 2E 2E 2E 2E 2E 
  1563 000000E0 2A 4F 4F 2A 2E 2E 2E 2E 2E 2E   	DB	"*OO*............"
       000000EA 2E 2E 2E 2E 2E 2E 
  1564 000000F0 2A 4F 4F 4F 2A 2E 2E 2E 2E 2E   	DB	"*OOO*..........."
       000000FA 2E 2E 2E 2E 2E 2E 
  1565 00000100 2A 4F 4F 4F 4F 2A 2E 2E 2E 2E   	DB	"*OOOO*.........."
       0000010A 2E 2E 2E 2E 2E 2E 
  1566 00000110 2A 4F 4F 4F 4F 4F 2A 2E 2E 2E   	DB	"*OOOOO*........."
       0000011A 2E 2E 2E 2E 2E 2E 
  1567 00000120 2A 4F 4F 4F 4F 4F 4F 2A 2E 2E   	DB	"*OOOOOO*........"
       0000012A 2E 2E 2E 2E 2E 2E 
  1568 00000130 2A 4F 4F 4F 4F 4F 4F 4F 2A 2E   	DB	"*OOOOOOO*......."
       0000013A 2E 2E 2E 2E 2E 2E 
  1569 00000140 2A 4F 4F 4F 4F 2A 2A 2A 2A 2A   	DB	"*OOOO*****......"
       0000014A 2E 2E 2E 2E 2E 2E 
  1570 00000150 2A 4F 4F 2A 4F 2A 2E 2E 2E 2E   	DB	"*OO*O*.........."
       0000015A 2E 2E 2E 2E 2E 2E 
  1571 00000160 2A 4F 2A 2E 2A 4F 2A 2E 2E 2E   	DB	"*O*.*O*........."
       0000016A 2E 2E 2E 2E 2E 2E 
  1572 00000170 2A 2A 2E 2E 2A 4F 2A 2E 2E 2E   	DB	"**..*O*........."
       0000017A 2E 2E 2E 2E 2E 2E 
  1573 00000180 2A 2E 2E 2E 2E 2A 4F 2A 2E 2E   	DB	"*....*O*........"
       0000018A 2E 2E 2E 2E 2E 2E 
  1574 00000190 2E 2E 2E 2E 2E 2A 4F 2A 2E 2E   	DB	".....*O*........"
       0000019A 2E 2E 2E 2E 2E 2E 
  1575 000001A0 2E 2E 2E 2E 2E 2E 2A 2E 2E 2E   	DB	"......*........."
       000001AA 2E 2E 2E 2E 2E 2E 
  1576                                          [SECTION .text]
  1577 00000D0B                                 	GLOBAL	_initMouseCursor8
  1578 00000D0B                                 _initMouseCursor8:
  1579 00000D0B 55                              	PUSH	EBP
  1580 00000D0C 89 E5                           	MOV	EBP,ESP
  1581 00000D0E 57                              	PUSH	EDI
  1582 00000D0F 56                              	PUSH	ESI
  1583 00000D10 31 FF                           	XOR	EDI,EDI
  1584 00000D12 53                              	PUSH	EBX
  1585 00000D13 31 DB                           	XOR	EBX,EBX
  1586 00000D15 50                              	PUSH	EAX
  1587 00000D16 8A 45 0C                        	MOV	AL,BYTE [12+EBP]
  1588 00000D19 8B 75 08                        	MOV	ESI,DWORD [8+EBP]
  1589 00000D1C 88 45 F3                        	MOV	BYTE [-13+EBP],AL
  1590 00000D1F                                 L222:
  1591 00000D1F 31 D2                           	XOR	EDX,EDX
  1592 00000D21                                 L221:
  1593 00000D21 8D 04 3A                        	LEA	EAX,DWORD [EDX+EDI*1]
  1594 00000D24 80 B8 [000000B0] 2A             	CMP	BYTE [_cursor.1+EAX],42
  1595 00000D2B 74 35                           	JE	L227
  1596 00000D2D                                 L218:
  1597 00000D2D 80 B8 [000000B0] 4F             	CMP	BYTE [_cursor.1+EAX],79
  1598 00000D34 74 26                           	JE	L228
  1599 00000D36                                 L219:
  1600 00000D36 80 B8 [000000B0] 2E             	CMP	BYTE [_cursor.1+EAX],46
  1601 00000D3D 74 15                           	JE	L229
  1602 00000D3F                                 L216:
  1603 00000D3F 42                              	INC	EDX
  1604 00000D40 83 FA 0F                        	CMP	EDX,15
  1605 00000D43 7E DC                           	JLE	L221
  1606 00000D45 43                              	INC	EBX
  1607 00000D46 83 C7 10                        	ADD	EDI,16
  1608 00000D49 83 FB 0F                        	CMP	EBX,15
  1609 00000D4C 7E D1                           	JLE	L222
  1610 00000D4E 58                              	POP	EAX
  1611 00000D4F 5B                              	POP	EBX
  1612 00000D50 5E                              	POP	ESI
  1613 00000D51 5F                              	POP	EDI
  1614 00000D52 5D                              	POP	EBP
  1615 00000D53 C3                              	RET
  1616 00000D54                                 L229:
  1617 00000D54 8A 4D F3                        	MOV	CL,BYTE [-13+EBP]
  1618 00000D57 88 0C 30                        	MOV	BYTE [EAX+ESI*1],CL
  1619 00000D5A EB E3                           	JMP	L216
  1620 00000D5C                                 L228:
  1621 00000D5C C6 04 30 07                     	MOV	BYTE [EAX+ESI*1],7
  1622 00000D60 EB D4                           	JMP	L219
  1623 00000D62                                 L227:
  1624 00000D62 C6 04 30 00                     	MOV	BYTE [EAX+ESI*1],0
  1625 00000D66 EB C5                           	JMP	L218
  1626 00000D68                                 	GLOBAL	_putblock8_8
  1627 00000D68                                 _putblock8_8:
  1628 00000D68 55                              	PUSH	EBP
  1629 00000D69 89 E5                           	MOV	EBP,ESP
  1630 00000D6B 57                              	PUSH	EDI
  1631 00000D6C 56                              	PUSH	ESI
  1632 00000D6D 31 F6                           	XOR	ESI,ESI
  1633 00000D6F 53                              	PUSH	EBX
  1634 00000D70 83 EC 0C                        	SUB	ESP,12
  1635 00000D73 3B 75 14                        	CMP	ESI,DWORD [20+EBP]
  1636 00000D76 7D 3E                           	JGE	L242
  1637 00000D78 31 FF                           	XOR	EDI,EDI
  1638 00000D7A                                 L240:
  1639 00000D7A 31 DB                           	XOR	EBX,EBX
  1640 00000D7C 3B 5D 10                        	CMP	EBX,DWORD [16+EBP]
  1641 00000D7F 7D 2C                           	JGE	L244
  1642 00000D81 8B 45 20                        	MOV	EAX,DWORD [32+EBP]
  1643 00000D84 01 F8                           	ADD	EAX,EDI
  1644 00000D86 89 45 EC                        	MOV	DWORD [-20+EBP],EAX
  1645 00000D89                                 L239:
  1646 00000D89 8B 45 1C                        	MOV	EAX,DWORD [28+EBP]
  1647 00000D8C 8B 55 18                        	MOV	EDX,DWORD [24+EBP]
  1648 00000D8F 01 F0                           	ADD	EAX,ESI
  1649 00000D91 01 DA                           	ADD	EDX,EBX
  1650 00000D93 0F AF 45 0C                     	IMUL	EAX,DWORD [12+EBP]
  1651 00000D97 01 D0                           	ADD	EAX,EDX
  1652 00000D99 8B 4D 08                        	MOV	ECX,DWORD [8+EBP]
  1653 00000D9C 8B 55 EC                        	MOV	EDX,DWORD [-20+EBP]
  1654 00000D9F 43                              	INC	EBX
  1655 00000DA0 8A 12                           	MOV	DL,BYTE [EDX]
  1656 00000DA2 88 14 08                        	MOV	BYTE [EAX+ECX*1],DL
  1657 00000DA5 FF 45 EC                        	INC	DWORD [-20+EBP]
  1658 00000DA8 3B 5D 10                        	CMP	EBX,DWORD [16+EBP]
  1659 00000DAB 7C DC                           	JL	L239
  1660 00000DAD                                 L244:
  1661 00000DAD 46                              	INC	ESI
  1662 00000DAE 03 7D 24                        	ADD	EDI,DWORD [36+EBP]
  1663 00000DB1 3B 75 14                        	CMP	ESI,DWORD [20+EBP]
  1664 00000DB4 7C C4                           	JL	L240
  1665 00000DB6                                 L242:
  1666 00000DB6 83 C4 0C                        	ADD	ESP,12
  1667 00000DB9 5B                              	POP	EBX
  1668 00000DBA 5E                              	POP	ESI
  1669 00000DBB 5F                              	POP	EDI
  1670 00000DBC 5D                              	POP	EBP
  1671 00000DBD C3                              	RET
  1672 00000DBE                                 	GLOBAL	_memtest
  1673 00000DBE                                 _memtest:
  1674 00000DBE 55                              	PUSH	EBP
  1675 00000DBF 89 E5                           	MOV	EBP,ESP
  1676 00000DC1 56                              	PUSH	ESI
  1677 00000DC2 53                              	PUSH	EBX
  1678 00000DC3 31 F6                           	XOR	ESI,ESI
  1679 00000DC5 E8 [00000000]                   	CALL	_io_load_eflags
  1680 00000DCA 0D 00040000                     	OR	EAX,262144
  1681 00000DCF 50                              	PUSH	EAX
  1682 00000DD0 E8 [00000000]                   	CALL	_io_store_eflags
  1683 00000DD5 E8 [00000000]                   	CALL	_io_load_eflags
  1684 00000DDA 5A                              	POP	EDX
  1685 00000DDB A9 00040000                     	TEST	EAX,262144
  1686 00000DE0 74 05                           	JE	L246
  1687 00000DE2 BE 00000001                     	MOV	ESI,1
  1688 00000DE7                                 L246:
  1689 00000DE7 25 FFFBFFFF                     	AND	EAX,-262145
  1690 00000DEC 50                              	PUSH	EAX
  1691 00000DED E8 [00000000]                   	CALL	_io_store_eflags
  1692 00000DF2 89 F0                           	MOV	EAX,ESI
  1693 00000DF4 5B                              	POP	EBX
  1694 00000DF5 84 C0                           	TEST	AL,AL
  1695 00000DF7 75 31                           	JNE	L249
  1696 00000DF9                                 L247:
  1697 00000DF9 FF 75 0C                        	PUSH	DWORD [12+EBP]
  1698 00000DFC FF 75 08                        	PUSH	DWORD [8+EBP]
  1699 00000DFF E8 [00000000]                   	CALL	_memtest_sub
  1700 00000E04 89 C3                           	MOV	EBX,EAX
  1701 00000E06 58                              	POP	EAX
  1702 00000E07 89 F0                           	MOV	EAX,ESI
  1703 00000E09 5A                              	POP	EDX
  1704 00000E0A 84 C0                           	TEST	AL,AL
  1705 00000E0C 75 09                           	JNE	L250
  1706 00000E0E                                 L248:
  1707 00000E0E 8D 65 F8                        	LEA	ESP,DWORD [-8+EBP]
  1708 00000E11 89 D8                           	MOV	EAX,EBX
  1709 00000E13 5B                              	POP	EBX
  1710 00000E14 5E                              	POP	ESI
  1711 00000E15 5D                              	POP	EBP
  1712 00000E16 C3                              	RET
  1713 00000E17                                 L250:
  1714 00000E17 E8 [00000000]                   	CALL	_loadCr0
  1715 00000E1C 25 9FFFFFFF                     	AND	EAX,-1610612737
  1716 00000E21 50                              	PUSH	EAX
  1717 00000E22 E8 [00000000]                   	CALL	_storeCr0
  1718 00000E27 58                              	POP	EAX
  1719 00000E28 EB E4                           	JMP	L248
  1720 00000E2A                                 L249:
  1721 00000E2A E8 [00000000]                   	CALL	_loadCr0
  1722 00000E2F 0D 60000000                     	OR	EAX,1610612736
  1723 00000E34 50                              	PUSH	EAX
  1724 00000E35 E8 [00000000]                   	CALL	_storeCr0
  1725 00000E3A 59                              	POP	ECX
  1726 00000E3B EB BC                           	JMP	L247
  1727 00000E3D                                 	GLOBAL	_memsegTotal
  1728 00000E3D                                 _memsegTotal:
  1729 00000E3D 55                              	PUSH	EBP
  1730 00000E3E 31 C0                           	XOR	EAX,EAX
  1731 00000E40 89 E5                           	MOV	EBP,ESP
  1732 00000E42 31 D2                           	XOR	EDX,EDX
  1733 00000E44 53                              	PUSH	EBX
  1734 00000E45 8B 5D 08                        	MOV	EBX,DWORD [8+EBP]
  1735 00000E48 8B 0B                           	MOV	ECX,DWORD [EBX]
  1736 00000E4A 39 C8                           	CMP	EAX,ECX
  1737 00000E4C 73 09                           	JAE	L258
  1738 00000E4E                                 L256:
  1739 00000E4E 03 44 D3 14                     	ADD	EAX,DWORD [20+EBX+EDX*8]
  1740 00000E52 42                              	INC	EDX
  1741 00000E53 39 CA                           	CMP	EDX,ECX
  1742 00000E55 72 F7                           	JB	L256
  1743 00000E57                                 L258:
  1744 00000E57 5B                              	POP	EBX
  1745 00000E58 5D                              	POP	EBP
  1746 00000E59 C3                              	RET
  1747 00000E5A                                 	GLOBAL	_memsegInit
  1748 00000E5A                                 _memsegInit:
  1749 00000E5A 55                              	PUSH	EBP
  1750 00000E5B 89 E5                           	MOV	EBP,ESP
  1751 00000E5D 8B 45 08                        	MOV	EAX,DWORD [8+EBP]
  1752 00000E60 C7 00 00000000                  	MOV	DWORD [EAX],0
  1753 00000E66 C7 40 04 00000000               	MOV	DWORD [4+EAX],0
  1754 00000E6D C7 40 08 00000000               	MOV	DWORD [8+EAX],0
  1755 00000E74 C7 40 0C 00000000               	MOV	DWORD [12+EAX],0
  1756 00000E7B 5D                              	POP	EBP
  1757 00000E7C C3                              	RET
  1758 00000E7D                                 	GLOBAL	_memsegAlloc
  1759 00000E7D                                 _memsegAlloc:
  1760 00000E7D 55                              	PUSH	EBP
  1761 00000E7E 31 C9                           	XOR	ECX,ECX
  1762 00000E80 89 E5                           	MOV	EBP,ESP
  1763 00000E82 57                              	PUSH	EDI
  1764 00000E83 56                              	PUSH	ESI
  1765 00000E84 53                              	PUSH	EBX
  1766 00000E85 8B 75 0C                        	MOV	ESI,DWORD [12+EBP]
  1767 00000E88 8B 5D 08                        	MOV	EBX,DWORD [8+EBP]
  1768 00000E8B 8B 03                           	MOV	EAX,DWORD [EBX]
  1769 00000E8D 39 C1                           	CMP	ECX,EAX
  1770 00000E8F 73 0D                           	JAE	L274
  1771 00000E91                                 L272:
  1772 00000E91 8B 54 CB 14                     	MOV	EDX,DWORD [20+EBX+ECX*8]
  1773 00000E95 39 F2                           	CMP	EDX,ESI
  1774 00000E97 73 0C                           	JAE	L276
  1775 00000E99 41                              	INC	ECX
  1776 00000E9A 39 C1                           	CMP	ECX,EAX
  1777 00000E9C 72 F3                           	JB	L272
  1778 00000E9E                                 L274:
  1779 00000E9E 31 C0                           	XOR	EAX,EAX
  1780 00000EA0                                 L260:
  1781 00000EA0 5B                              	POP	EBX
  1782 00000EA1 5E                              	POP	ESI
  1783 00000EA2 5F                              	POP	EDI
  1784 00000EA3 5D                              	POP	EBP
  1785 00000EA4 C3                              	RET
  1786 00000EA5                                 L276:
  1787 00000EA5 8B 7C CB 10                     	MOV	EDI,DWORD [16+EBX+ECX*8]
  1788 00000EA9 8D 04 3E                        	LEA	EAX,DWORD [ESI+EDI*1]
  1789 00000EAC 89 44 CB 10                     	MOV	DWORD [16+EBX+ECX*8],EAX
  1790 00000EB0 89 D0                           	MOV	EAX,EDX
  1791 00000EB2 29 F0                           	SUB	EAX,ESI
  1792 00000EB4 89 44 CB 14                     	MOV	DWORD [20+EBX+ECX*8],EAX
  1793 00000EB8 85 C0                           	TEST	EAX,EAX
  1794 00000EBA 75 20                           	JNE	L266
  1795 00000EBC 8B 03                           	MOV	EAX,DWORD [EBX]
  1796 00000EBE 48                              	DEC	EAX
  1797 00000EBF 89 03                           	MOV	DWORD [EBX],EAX
  1798 00000EC1 39 C1                           	CMP	ECX,EAX
  1799 00000EC3 73 17                           	JAE	L266
  1800 00000EC5 89 C6                           	MOV	ESI,EAX
  1801 00000EC7                                 L271:
  1802 00000EC7 8B 44 CB 18                     	MOV	EAX,DWORD [24+EBX+ECX*8]
  1803 00000ECB 8B 54 CB 1C                     	MOV	EDX,DWORD [28+EBX+ECX*8]
  1804 00000ECF 89 44 CB 10                     	MOV	DWORD [16+EBX+ECX*8],EAX
  1805 00000ED3 89 54 CB 14                     	MOV	DWORD [20+EBX+ECX*8],EDX
  1806 00000ED7 41                              	INC	ECX
  1807 00000ED8 39 F1                           	CMP	ECX,ESI
  1808 00000EDA 72 EB                           	JB	L271
  1809 00000EDC                                 L266:
  1810 00000EDC 89 F8                           	MOV	EAX,EDI
  1811 00000EDE EB C0                           	JMP	L260
  1812 00000EE0                                 	GLOBAL	_memsegFree
  1813 00000EE0                                 _memsegFree:
  1814 00000EE0 55                              	PUSH	EBP
  1815 00000EE1 89 E5                           	MOV	EBP,ESP
  1816 00000EE3 57                              	PUSH	EDI
  1817 00000EE4 56                              	PUSH	ESI
  1818 00000EE5 8B 75 08                        	MOV	ESI,DWORD [8+EBP]
  1819 00000EE8 53                              	PUSH	EBX
  1820 00000EE9 31 DB                           	XOR	EBX,EBX
  1821 00000EEB 8B 3E                           	MOV	EDI,DWORD [ESI]
  1822 00000EED 39 FB                           	CMP	EBX,EDI
  1823 00000EEF 7D 0E                           	JGE	L279
  1824 00000EF1                                 L283:
  1825 00000EF1 8B 45 0C                        	MOV	EAX,DWORD [12+EBP]
  1826 00000EF4 39 44 DE 10                     	CMP	DWORD [16+ESI+EBX*8],EAX
  1827 00000EF8 77 05                           	JA	L279
  1828 00000EFA 43                              	INC	EBX
  1829 00000EFB 39 FB                           	CMP	EBX,EDI
  1830 00000EFD 7C F2                           	JL	L283
  1831 00000EFF                                 L279:
  1832 00000EFF 85 DB                           	TEST	EBX,EBX
  1833 00000F01 7E 0F                           	JLE	L284
  1834 00000F03 8B 54 DE 0C                     	MOV	EDX,DWORD [12+ESI+EBX*8]
  1835 00000F07 8B 44 DE 08                     	MOV	EAX,DWORD [8+ESI+EBX*8]
  1836 00000F0B 01 D0                           	ADD	EAX,EDX
  1837 00000F0D 3B 45 0C                        	CMP	EAX,DWORD [12+EBP]
  1838 00000F10 74 73                           	JE	L304
  1839 00000F12                                 L284:
  1840 00000F12 39 FB                           	CMP	EBX,EDI
  1841 00000F14 7D 0C                           	JGE	L291
  1842 00000F16 8B 45 0C                        	MOV	EAX,DWORD [12+EBP]
  1843 00000F19 03 45 10                        	ADD	EAX,DWORD [16+EBP]
  1844 00000F1C 3B 44 DE 10                     	CMP	EAX,DWORD [16+ESI+EBX*8]
  1845 00000F20 74 53                           	JE	L305
  1846 00000F22                                 L291:
  1847 00000F22 81 FF 00000FF9                  	CMP	EDI,4089
  1848 00000F28 7F 3D                           	JG	L292
  1849 00000F2A 89 F9                           	MOV	ECX,EDI
  1850 00000F2C 39 DF                           	CMP	EDI,EBX
  1851 00000F2E 7E 15                           	JLE	L302
  1852 00000F30                                 L297:
  1853 00000F30 8B 44 CE 08                     	MOV	EAX,DWORD [8+ESI+ECX*8]
  1854 00000F34 8B 54 CE 0C                     	MOV	EDX,DWORD [12+ESI+ECX*8]
  1855 00000F38 89 44 CE 10                     	MOV	DWORD [16+ESI+ECX*8],EAX
  1856 00000F3C 89 54 CE 14                     	MOV	DWORD [20+ESI+ECX*8],EDX
  1857 00000F40 49                              	DEC	ECX
  1858 00000F41 39 D9                           	CMP	ECX,EBX
  1859 00000F43 7F EB                           	JG	L297
  1860 00000F45                                 L302:
  1861 00000F45 8D 47 01                        	LEA	EAX,DWORD [1+EDI]
  1862 00000F48 89 06                           	MOV	DWORD [ESI],EAX
  1863 00000F4A 39 46 04                        	CMP	DWORD [4+ESI],EAX
  1864 00000F4D 7D 03                           	JGE	L298
  1865 00000F4F 89 46 04                        	MOV	DWORD [4+ESI],EAX
  1866 00000F52                                 L298:
  1867 00000F52 8B 45 0C                        	MOV	EAX,DWORD [12+EBP]
  1868 00000F55 89 44 DE 10                     	MOV	DWORD [16+ESI+EBX*8],EAX
  1869 00000F59 8B 45 10                        	MOV	EAX,DWORD [16+EBP]
  1870 00000F5C 89 44 DE 14                     	MOV	DWORD [20+ESI+EBX*8],EAX
  1871 00000F60                                 L303:
  1872 00000F60 31 C0                           	XOR	EAX,EAX
  1873 00000F62                                 L277:
  1874 00000F62 5B                              	POP	EBX
  1875 00000F63 5E                              	POP	ESI
  1876 00000F64 5F                              	POP	EDI
  1877 00000F65 5D                              	POP	EBP
  1878 00000F66 C3                              	RET
  1879 00000F67                                 L292:
  1880 00000F67 8B 45 10                        	MOV	EAX,DWORD [16+EBP]
  1881 00000F6A FF 46 0C                        	INC	DWORD [12+ESI]
  1882 00000F6D 01 46 08                        	ADD	DWORD [8+ESI],EAX
  1883 00000F70 83 C8 FF                        	OR	EAX,-1
  1884 00000F73 EB ED                           	JMP	L277
  1885 00000F75                                 L305:
  1886 00000F75 8B 45 0C                        	MOV	EAX,DWORD [12+EBP]
  1887 00000F78 89 44 DE 10                     	MOV	DWORD [16+ESI+EBX*8],EAX
  1888 00000F7C 8B 45 10                        	MOV	EAX,DWORD [16+EBP]
  1889 00000F7F 01 44 DE 14                     	ADD	DWORD [20+ESI+EBX*8],EAX
  1890 00000F83 EB DB                           	JMP	L303
  1891 00000F85                                 L304:
  1892 00000F85 03 55 10                        	ADD	EDX,DWORD [16+EBP]
  1893 00000F88 89 54 DE 0C                     	MOV	DWORD [12+ESI+EBX*8],EDX
  1894 00000F8C 3B 1E                           	CMP	EBX,DWORD [ESI]
  1895 00000F8E 7D D0                           	JGE	L303
  1896 00000F90 8B 45 0C                        	MOV	EAX,DWORD [12+EBP]
  1897 00000F93 03 45 10                        	ADD	EAX,DWORD [16+EBP]
  1898 00000F96 3B 44 DE 10                     	CMP	EAX,DWORD [16+ESI+EBX*8]
  1899 00000F9A 75 C4                           	JNE	L303
  1900 00000F9C 03 54 DE 14                     	ADD	EDX,DWORD [20+ESI+EBX*8]
  1901 00000FA0 89 54 DE 0C                     	MOV	DWORD [12+ESI+EBX*8],EDX
  1902 00000FA4 8B 06                           	MOV	EAX,DWORD [ESI]
  1903 00000FA6 48                              	DEC	EAX
  1904 00000FA7 89 06                           	MOV	DWORD [ESI],EAX
  1905 00000FA9 39 C3                           	CMP	EBX,EAX
  1906 00000FAB 7D B3                           	JGE	L303
  1907 00000FAD 89 C1                           	MOV	ECX,EAX
  1908 00000FAF                                 L290:
  1909 00000FAF 8B 44 DE 18                     	MOV	EAX,DWORD [24+ESI+EBX*8]
  1910 00000FB3 8B 54 DE 1C                     	MOV	EDX,DWORD [28+ESI+EBX*8]
  1911 00000FB7 89 44 DE 10                     	MOV	DWORD [16+ESI+EBX*8],EAX
  1912 00000FBB 89 54 DE 14                     	MOV	DWORD [20+ESI+EBX*8],EDX
  1913 00000FBF 43                              	INC	EBX
  1914 00000FC0 39 CB                           	CMP	EBX,ECX
  1915 00000FC2 7C EB                           	JL	L290
  1916 00000FC4 EB 9A                           	JMP	L303
  1917 00000FC6                                 	GLOBAL	_memsegAlloc4K
  1918 00000FC6                                 _memsegAlloc4K:
  1919 00000FC6 55                              	PUSH	EBP
  1920 00000FC7 89 E5                           	MOV	EBP,ESP
  1921 00000FC9 8B 45 0C                        	MOV	EAX,DWORD [12+EBP]
  1922 00000FCC 05 00000FFF                     	ADD	EAX,4095
  1923 00000FD1 25 FFFFF000                     	AND	EAX,-4096
  1924 00000FD6 89 45 0C                        	MOV	DWORD [12+EBP],EAX
  1925 00000FD9 5D                              	POP	EBP
  1926 00000FDA E9 FFFFFE9E                     	JMP	_memsegAlloc
  1927 00000FDF                                 	GLOBAL	_memsegFree4K
  1928 00000FDF                                 _memsegFree4K:
  1929 00000FDF 55                              	PUSH	EBP
  1930 00000FE0 89 E5                           	MOV	EBP,ESP
  1931 00000FE2 8B 45 10                        	MOV	EAX,DWORD [16+EBP]
  1932 00000FE5 05 00000FFF                     	ADD	EAX,4095
  1933 00000FEA 25 FFFFF000                     	AND	EAX,-4096
  1934 00000FEF 89 45 10                        	MOV	DWORD [16+EBP],EAX
  1935 00000FF2 5D                              	POP	EBP
  1936 00000FF3 E9 FFFFFEE8                     	JMP	_memsegFree
  1937 00000FF8                                 	GLOBAL	_shtctlInit
  1938 00000FF8                                 _shtctlInit:
  1939 00000FF8 55                              	PUSH	EBP
  1940 00000FF9 89 E5                           	MOV	EBP,ESP
  1941 00000FFB 57                              	PUSH	EDI
  1942 00000FFC 56                              	PUSH	ESI
  1943 00000FFD 53                              	PUSH	EBX
  1944 00000FFE 8B 75 08                        	MOV	ESI,DWORD [8+EBP]
  1945 00001001 68 00002814                     	PUSH	10260
  1946 00001006 8B 7D 10                        	MOV	EDI,DWORD [16+EBP]
  1947 00001009 56                              	PUSH	ESI
  1948 0000100A E8 FFFFFFB7                     	CALL	_memsegAlloc4K
  1949 0000100F 59                              	POP	ECX
  1950 00001010 89 C3                           	MOV	EBX,EAX
  1951 00001012 58                              	POP	EAX
  1952 00001013 31 C0                           	XOR	EAX,EAX
  1953 00001015 85 DB                           	TEST	EBX,EBX
  1954 00001017 74 4C                           	JE	L308
  1955 00001019 8B 45 14                        	MOV	EAX,DWORD [20+EBP]
  1956 0000101C 0F AF C7                        	IMUL	EAX,EDI
  1957 0000101F 50                              	PUSH	EAX
  1958 00001020 56                              	PUSH	ESI
  1959 00001021 E8 FFFFFFA0                     	CALL	_memsegAlloc4K
  1960 00001026 85 C0                           	TEST	EAX,EAX
  1961 00001028 89 43 04                        	MOV	DWORD [4+EBX],EAX
  1962 0000102B 59                              	POP	ECX
  1963 0000102C 5A                              	POP	EDX
  1964 0000102D 74 3E                           	JE	L319
  1965 0000102F 8B 45 0C                        	MOV	EAX,DWORD [12+EBP]
  1966 00001032 89 7B 08                        	MOV	DWORD [8+EBX],EDI
  1967 00001035 89 03                           	MOV	DWORD [EBX],EAX
  1968 00001037 8D 93 000023DC                  	LEA	EDX,DWORD [9180+EBX]
  1969 0000103D 8B 45 14                        	MOV	EAX,DWORD [20+EBP]
  1970 00001040 89 43 0C                        	MOV	DWORD [12+EBX],EAX
  1971 00001043 89 D8                           	MOV	EAX,EBX
  1972 00001045 C7 43 10 FFFFFFFF               	MOV	DWORD [16+EBX],-1
  1973 0000104C                                 L315:
  1974 0000104C C7 80 00000430 00000000         	MOV	DWORD [1072+EAX],0
  1975 00001056 89 98 00000434                  	MOV	DWORD [1076+EAX],EBX
  1976 0000105C 83 C0 24                        	ADD	EAX,36
  1977 0000105F 39 D0                           	CMP	EAX,EDX
  1978 00001061 7E E9                           	JLE	L315
  1979 00001063                                 L318:
  1980 00001063 89 D8                           	MOV	EAX,EBX
  1981 00001065                                 L308:
  1982 00001065 8D 65 F4                        	LEA	ESP,DWORD [-12+EBP]
  1983 00001068 5B                              	POP	EBX
  1984 00001069 5E                              	POP	ESI
  1985 0000106A 5F                              	POP	EDI
  1986 0000106B 5D                              	POP	EBP
  1987 0000106C C3                              	RET
  1988 0000106D                                 L319:
  1989 0000106D 68 00002814                     	PUSH	10260
  1990 00001072 53                              	PUSH	EBX
  1991 00001073 56                              	PUSH	ESI
  1992 00001074 E8 FFFFFF66                     	CALL	_memsegFree4K
  1993 00001079 EB E8                           	JMP	L318
  1994 0000107B                                 	GLOBAL	_sheetAlloc
  1995 0000107B                                 _sheetAlloc:
  1996 0000107B 55                              	PUSH	EBP
  1997 0000107C 31 D2                           	XOR	EDX,EDX
  1998 0000107E 89 E5                           	MOV	EBP,ESP
  1999 00001080 8B 45 08                        	MOV	EAX,DWORD [8+EBP]
  2000 00001083 05 00000414                     	ADD	EAX,1044
  2001 00001088                                 L326:
  2002 00001088 83 78 1C 00                     	CMP	DWORD [28+EAX],0
  2003 0000108C 74 10                           	JE	L329
  2004 0000108E 42                              	INC	EDX
  2005 0000108F 83 C0 24                        	ADD	EAX,36
  2006 00001092 81 FA 000000FF                  	CMP	EDX,255
  2007 00001098 7E EE                           	JLE	L326
  2008 0000109A 31 C0                           	XOR	EAX,EAX
  2009 0000109C                                 L320:
  2010 0000109C 5D                              	POP	EBP
  2011 0000109D C3                              	RET
  2012 0000109E                                 L329:
  2013 0000109E C7 40 1C 00000001               	MOV	DWORD [28+EAX],1
  2014 000010A5 C7 40 18 FFFFFFFF               	MOV	DWORD [24+EAX],-1
  2015 000010AC EB EE                           	JMP	L320
  2016 000010AE                                 	GLOBAL	_sheetSetbuf
  2017 000010AE                                 _sheetSetbuf:
  2018 000010AE 55                              	PUSH	EBP
  2019 000010AF 89 E5                           	MOV	EBP,ESP
  2020 000010B1 8B 55 08                        	MOV	EDX,DWORD [8+EBP]
  2021 000010B4 8B 45 0C                        	MOV	EAX,DWORD [12+EBP]
  2022 000010B7 89 02                           	MOV	DWORD [EDX],EAX
  2023 000010B9 8B 45 10                        	MOV	EAX,DWORD [16+EBP]
  2024 000010BC 89 42 04                        	MOV	DWORD [4+EDX],EAX
  2025 000010BF 8B 45 14                        	MOV	EAX,DWORD [20+EBP]
  2026 000010C2 89 42 08                        	MOV	DWORD [8+EDX],EAX
  2027 000010C5 8B 45 18                        	MOV	EAX,DWORD [24+EBP]
  2028 000010C8 89 42 14                        	MOV	DWORD [20+EDX],EAX
  2029 000010CB 5D                              	POP	EBP
  2030 000010CC C3                              	RET
  2031 000010CD                                 	GLOBAL	_sheetRefreshMap
  2032 000010CD                                 _sheetRefreshMap:
  2033 000010CD 55                              	PUSH	EBP
  2034 000010CE 89 E5                           	MOV	EBP,ESP
  2035 000010D0 57                              	PUSH	EDI
  2036 000010D1 56                              	PUSH	ESI
  2037 000010D2 53                              	PUSH	EBX
  2038 000010D3 83 EC 28                        	SUB	ESP,40
  2039 000010D6 8B 45 08                        	MOV	EAX,DWORD [8+EBP]
  2040 000010D9 83 7D 0C 00                     	CMP	DWORD [12+EBP],0
  2041 000010DD 8B 40 04                        	MOV	EAX,DWORD [4+EAX]
  2042 000010E0 89 45 D8                        	MOV	DWORD [-40+EBP],EAX
  2043 000010E3 0F 88 00000135                  	JS	L362
  2044 000010E9                                 L332:
  2045 000010E9 83 7D 10 00                     	CMP	DWORD [16+EBP],0
  2046 000010ED 0F 88 0000011F                  	JS	L363
  2047 000010F3                                 L333:
  2048 000010F3 8B 55 08                        	MOV	EDX,DWORD [8+EBP]
  2049 000010F6 8B 42 08                        	MOV	EAX,DWORD [8+EDX]
  2050 000010F9 39 45 14                        	CMP	DWORD [20+EBP],EAX
  2051 000010FC 7E 03                           	JLE	L334
  2052 000010FE 89 45 14                        	MOV	DWORD [20+EBP],EAX
  2053 00001101                                 L334:
  2054 00001101 8B 75 08                        	MOV	ESI,DWORD [8+EBP]
  2055 00001104 8B 46 0C                        	MOV	EAX,DWORD [12+ESI]
  2056 00001107 39 45 18                        	CMP	DWORD [24+EBP],EAX
  2057 0000110A 7E 03                           	JLE	L335
  2058 0000110C 89 45 18                        	MOV	DWORD [24+EBP],EAX
  2059 0000110F                                 L335:
  2060 0000110F 8B 45 08                        	MOV	EAX,DWORD [8+EBP]
  2061 00001112 8B 7D 1C                        	MOV	EDI,DWORD [28+EBP]
  2062 00001115 89 7D F0                        	MOV	DWORD [-16+EBP],EDI
  2063 00001118 3B 78 10                        	CMP	EDI,DWORD [16+EAX]
  2064 0000111B 0F 8F 000000D6                  	JG	L357
  2065 00001121                                 L355:
  2066 00001121 8B 75 08                        	MOV	ESI,DWORD [8+EBP]
  2067 00001124 8B 55 F0                        	MOV	EDX,DWORD [-16+EBP]
  2068 00001127 8B 5D 10                        	MOV	EBX,DWORD [16+EBP]
  2069 0000112A 8B 4C 96 14                     	MOV	ECX,DWORD [20+ESI+EDX*4]
  2070 0000112E 89 C8                           	MOV	EAX,ECX
  2071 00001130 29 F0                           	SUB	EAX,ESI
  2072 00001132 8B 39                           	MOV	EDI,DWORD [ECX]
  2073 00001134 2D 00000414                     	SUB	EAX,1044
  2074 00001139 8B 51 10                        	MOV	EDX,DWORD [16+ECX]
  2075 0000113C C1 F8 02                        	SAR	EAX,2
  2076 0000113F 89 7D E0                        	MOV	DWORD [-32+EBP],EDI
  2077 00001142 69 C0 38E38E39                  	IMUL	EAX,EAX,954437177
  2078 00001148 8B 7D 18                        	MOV	EDI,DWORD [24+EBP]
  2079 0000114B 29 D3                           	SUB	EBX,EDX
  2080 0000114D 29 D7                           	SUB	EDI,EDX
  2081 0000114F 88 45 DF                        	MOV	BYTE [-33+EBP],AL
  2082 00001152 8B 75 14                        	MOV	ESI,DWORD [20+EBP]
  2083 00001155 8B 55 0C                        	MOV	EDX,DWORD [12+EBP]
  2084 00001158 8B 41 0C                        	MOV	EAX,DWORD [12+ECX]
  2085 0000115B 89 7D D4                        	MOV	DWORD [-44+EBP],EDI
  2086 0000115E 29 C6                           	SUB	ESI,EAX
  2087 00001160 29 C2                           	SUB	EDX,EAX
  2088 00001162 89 75 CC                        	MOV	DWORD [-52+EBP],ESI
  2089 00001165 89 55 E4                        	MOV	DWORD [-28+EBP],EDX
  2090 00001168 0F 88 00000098                  	JS	L364
  2091 0000116E                                 L340:
  2092 0000116E 85 DB                           	TEST	EBX,EBX
  2093 00001170 0F 88 00000089                  	JS	L365
  2094 00001176                                 L341:
  2095 00001176 8B 41 04                        	MOV	EAX,DWORD [4+ECX]
  2096 00001179 39 45 CC                        	CMP	DWORD [-52+EBP],EAX
  2097 0000117C 7E 03                           	JLE	L342
  2098 0000117E 89 45 CC                        	MOV	DWORD [-52+EBP],EAX
  2099 00001181                                 L342:
  2100 00001181 8B 41 08                        	MOV	EAX,DWORD [8+ECX]
  2101 00001184 39 45 D4                        	CMP	DWORD [-44+EBP],EAX
  2102 00001187 7E 03                           	JLE	L343
  2103 00001189 89 45 D4                        	MOV	DWORD [-44+EBP],EAX
  2104 0000118C                                 L343:
  2105 0000118C 3B 5D D4                        	CMP	EBX,DWORD [-44+EBP]
  2106 0000118F 7D 54                           	JGE	L359
  2107 00001191                                 L354:
  2108 00001191 8B 71 10                        	MOV	ESI,DWORD [16+ECX]
  2109 00001194 8B 55 E4                        	MOV	EDX,DWORD [-28+EBP]
  2110 00001197 01 DE                           	ADD	ESI,EBX
  2111 00001199 3B 55 CC                        	CMP	EDX,DWORD [-52+EBP]
  2112 0000119C 89 75 E8                        	MOV	DWORD [-24+EBP],ESI
  2113 0000119F 7D 3E                           	JGE	L361
  2114 000011A1                                 L353:
  2115 000011A1 89 D8                           	MOV	EAX,EBX
  2116 000011A3 8B 79 0C                        	MOV	EDI,DWORD [12+ECX]
  2117 000011A6 0F AF 41 04                     	IMUL	EAX,DWORD [4+ECX]
  2118 000011AA 01 D7                           	ADD	EDI,EDX
  2119 000011AC 8B 75 E0                        	MOV	ESI,DWORD [-32+EBP]
  2120 000011AF 01 D0                           	ADD	EAX,EDX
  2121 000011B1 89 7D EC                        	MOV	DWORD [-20+EBP],EDI
  2122 000011B4 0F B6 34 30                     	MOVZX	ESI,BYTE [EAX+ESI*1]
  2123 000011B8 3B 71 14                        	CMP	ESI,DWORD [20+ECX]
  2124 000011BB 74 1C                           	JE	L350
  2125 000011BD 8B 7D 08                        	MOV	EDI,DWORD [8+EBP]
  2126 000011C0 8B 45 E8                        	MOV	EAX,DWORD [-24+EBP]
  2127 000011C3 8B 75 D8                        	MOV	ESI,DWORD [-40+EBP]
  2128 000011C6 0F AF 47 08                     	IMUL	EAX,DWORD [8+EDI]
  2129 000011CA 03 45 EC                        	ADD	EAX,DWORD [-20+EBP]
  2130 000011CD 89 45 D0                        	MOV	DWORD [-48+EBP],EAX
  2131 000011D0 8A 45 DF                        	MOV	AL,BYTE [-33+EBP]
  2132 000011D3 8B 7D D0                        	MOV	EDI,DWORD [-48+EBP]
  2133 000011D6 88 04 37                        	MOV	BYTE [EDI+ESI*1],AL
  2134 000011D9                                 L350:
  2135 000011D9 42                              	INC	EDX
  2136 000011DA 3B 55 CC                        	CMP	EDX,DWORD [-52+EBP]
  2137 000011DD 7C C2                           	JL	L353
  2138 000011DF                                 L361:
  2139 000011DF 43                              	INC	EBX
  2140 000011E0 3B 5D D4                        	CMP	EBX,DWORD [-44+EBP]
  2141 000011E3 7C AC                           	JL	L354
  2142 000011E5                                 L359:
  2143 000011E5 8B 55 08                        	MOV	EDX,DWORD [8+EBP]
  2144 000011E8 FF 45 F0                        	INC	DWORD [-16+EBP]
  2145 000011EB 8B 45 F0                        	MOV	EAX,DWORD [-16+EBP]
  2146 000011EE 3B 42 10                        	CMP	EAX,DWORD [16+EDX]
  2147 000011F1 0F 8E FFFFFF2A                  	JLE	L355
  2148 000011F7                                 L357:
  2149 000011F7 83 C4 28                        	ADD	ESP,40
  2150 000011FA 5B                              	POP	EBX
  2151 000011FB 5E                              	POP	ESI
  2152 000011FC 5F                              	POP	EDI
  2153 000011FD 5D                              	POP	EBP
  2154 000011FE C3                              	RET
  2155 000011FF                                 L365:
  2156 000011FF 31 DB                           	XOR	EBX,EBX
  2157 00001201 E9 FFFFFF70                     	JMP	L341
  2158 00001206                                 L364:
  2159 00001206 C7 45 E4 00000000               	MOV	DWORD [-28+EBP],0
  2160 0000120D E9 FFFFFF5C                     	JMP	L340
  2161 00001212                                 L363:
  2162 00001212 C7 45 10 00000000               	MOV	DWORD [16+EBP],0
  2163 00001219 E9 FFFFFED5                     	JMP	L333
  2164 0000121E                                 L362:
  2165 0000121E C7 45 0C 00000000               	MOV	DWORD [12+EBP],0
  2166 00001225 E9 FFFFFEBF                     	JMP	L332
  2167 0000122A                                 	GLOBAL	_sheetUpdown
  2168 0000122A                                 _sheetUpdown:
  2169 0000122A 55                              	PUSH	EBP
  2170 0000122B 89 E5                           	MOV	EBP,ESP
  2171 0000122D 57                              	PUSH	EDI
  2172 0000122E 56                              	PUSH	ESI
  2173 0000122F 8B 7D 08                        	MOV	EDI,DWORD [8+EBP]
  2174 00001232 53                              	PUSH	EBX
  2175 00001233 8B 75 0C                        	MOV	ESI,DWORD [12+EBP]
  2176 00001236 8B 5F 20                        	MOV	EBX,DWORD [32+EDI]
  2177 00001239 8B 47 18                        	MOV	EAX,DWORD [24+EDI]
  2178 0000123C 8B 53 10                        	MOV	EDX,DWORD [16+EBX]
  2179 0000123F 42                              	INC	EDX
  2180 00001240 39 D6                           	CMP	ESI,EDX
  2181 00001242 7E 02                           	JLE	L367
  2182 00001244 89 D6                           	MOV	ESI,EDX
  2183 00001246                                 L367:
  2184 00001246 83 FE FF                        	CMP	ESI,-1
  2185 00001249 7D 03                           	JGE	L368
  2186 0000124B 83 CE FF                        	OR	ESI,-1
  2187 0000124E                                 L368:
  2188 0000124E 89 77 18                        	MOV	DWORD [24+EDI],ESI
  2189 00001251 39 F0                           	CMP	EAX,ESI
  2190 00001253 0F 8E 000000A5                  	JLE	L369
  2191 00001259 85 F6                           	TEST	ESI,ESI
  2192 0000125B 78 5E                           	JS	L370
  2193 0000125D 89 C1                           	MOV	ECX,EAX
  2194 0000125F                                 L375:
  2195 0000125F 8B 44 8B 10                     	MOV	EAX,DWORD [16+EBX+ECX*4]
  2196 00001263 89 44 8B 14                     	MOV	DWORD [20+EBX+ECX*4],EAX
  2197 00001267 89 48 18                        	MOV	DWORD [24+EAX],ECX
  2198 0000126A 49                              	DEC	ECX
  2199 0000126B 39 F1                           	CMP	ECX,ESI
  2200 0000126D 7F F0                           	JG	L375
  2201 0000126F 89 7C B3 14                     	MOV	DWORD [20+EBX+ESI*4],EDI
  2202 00001273 8D 5E 01                        	LEA	EBX,DWORD [1+ESI]
  2203 00001276 53                              	PUSH	EBX
  2204 00001277 8B 4F 10                        	MOV	ECX,DWORD [16+EDI]
  2205 0000127A 89 C8                           	MOV	EAX,ECX
  2206 0000127C 03 47 08                        	ADD	EAX,DWORD [8+EDI]
  2207 0000127F 50                              	PUSH	EAX
  2208 00001280 8B 57 0C                        	MOV	EDX,DWORD [12+EDI]
  2209 00001283 89 D0                           	MOV	EAX,EDX
  2210 00001285 03 47 04                        	ADD	EAX,DWORD [4+EDI]
  2211 00001288 50                              	PUSH	EAX
  2212 00001289 51                              	PUSH	ECX
  2213 0000128A 52                              	PUSH	EDX
  2214 0000128B FF 77 20                        	PUSH	DWORD [32+EDI]
  2215 0000128E E8 FFFFFE3A                     	CALL	_sheetRefreshMap
  2216 00001293 53                              	PUSH	EBX
  2217 00001294                                 L404:
  2218 00001294 8B 4F 10                        	MOV	ECX,DWORD [16+EDI]
  2219 00001297 89 C8                           	MOV	EAX,ECX
  2220 00001299 03 47 08                        	ADD	EAX,DWORD [8+EDI]
  2221 0000129C 50                              	PUSH	EAX
  2222 0000129D 8B 57 0C                        	MOV	EDX,DWORD [12+EDI]
  2223 000012A0 89 D0                           	MOV	EAX,EDX
  2224 000012A2 03 47 04                        	ADD	EAX,DWORD [4+EDI]
  2225 000012A5 50                              	PUSH	EAX
  2226 000012A6 51                              	PUSH	ECX
  2227 000012A7 52                              	PUSH	EDX
  2228 000012A8 FF 77 20                        	PUSH	DWORD [32+EDI]
  2229 000012AB E8 000000EF                     	CALL	_sheetRefreshSub
  2230 000012B0 83 C4 30                        	ADD	ESP,48
  2231 000012B3                                 L366:
  2232 000012B3 8D 65 F4                        	LEA	ESP,DWORD [-12+EBP]
  2233 000012B6 5B                              	POP	EBX
  2234 000012B7 5E                              	POP	ESI
  2235 000012B8 5F                              	POP	EDI
  2236 000012B9 5D                              	POP	EBP
  2237 000012BA C3                              	RET
  2238 000012BB                                 L370:
  2239 000012BB 8B 53 10                        	MOV	EDX,DWORD [16+EBX]
  2240 000012BE 39 C2                           	CMP	EDX,EAX
  2241 000012C0 7E 17                           	JLE	L377
  2242 000012C2 89 C1                           	MOV	ECX,EAX
  2243 000012C4 39 D0                           	CMP	EAX,EDX
  2244 000012C6 7D 11                           	JGE	L377
  2245 000012C8                                 L382:
  2246 000012C8 8B 44 8B 18                     	MOV	EAX,DWORD [24+EBX+ECX*4]
  2247 000012CC 89 44 8B 14                     	MOV	DWORD [20+EBX+ECX*4],EAX
  2248 000012D0 89 48 18                        	MOV	DWORD [24+EAX],ECX
  2249 000012D3 41                              	INC	ECX
  2250 000012D4 3B 4B 10                        	CMP	ECX,DWORD [16+EBX]
  2251 000012D7 7C EF                           	JL	L382
  2252 000012D9                                 L377:
  2253 000012D9 FF 4B 10                        	DEC	DWORD [16+EBX]
  2254 000012DC 6A 00                           	PUSH	0
  2255 000012DE 8B 4F 10                        	MOV	ECX,DWORD [16+EDI]
  2256 000012E1 89 C8                           	MOV	EAX,ECX
  2257 000012E3 03 47 08                        	ADD	EAX,DWORD [8+EDI]
  2258 000012E6 50                              	PUSH	EAX
  2259 000012E7 8B 57 0C                        	MOV	EDX,DWORD [12+EDI]
  2260 000012EA 89 D0                           	MOV	EAX,EDX
  2261 000012EC 03 47 04                        	ADD	EAX,DWORD [4+EDI]
  2262 000012EF 50                              	PUSH	EAX
  2263 000012F0 51                              	PUSH	ECX
  2264 000012F1 52                              	PUSH	EDX
  2265 000012F2 FF 77 20                        	PUSH	DWORD [32+EDI]
  2266 000012F5 E8 FFFFFDD3                     	CALL	_sheetRefreshMap
  2267 000012FA 6A 00                           	PUSH	0
  2268 000012FC EB 96                           	JMP	L404
  2269 000012FE                                 L369:
  2270 000012FE 39 F0                           	CMP	EAX,ESI
  2271 00001300 7D B1                           	JGE	L366
  2272 00001302 85 C0                           	TEST	EAX,EAX
  2273 00001304 78 3D                           	JS	L385
  2274 00001306 89 C1                           	MOV	ECX,EAX
  2275 00001308 39 F0                           	CMP	EAX,ESI
  2276 0000130A 7D 10                           	JGE	L401
  2277 0000130C                                 L390:
  2278 0000130C 8B 44 8B 18                     	MOV	EAX,DWORD [24+EBX+ECX*4]
  2279 00001310 89 44 8B 14                     	MOV	DWORD [20+EBX+ECX*4],EAX
  2280 00001314 89 48 18                        	MOV	DWORD [24+EAX],ECX
  2281 00001317 41                              	INC	ECX
  2282 00001318 39 F1                           	CMP	ECX,ESI
  2283 0000131A 7C F0                           	JL	L390
  2284 0000131C                                 L401:
  2285 0000131C 89 7C B3 14                     	MOV	DWORD [20+EBX+ESI*4],EDI
  2286 00001320                                 L391:
  2287 00001320 56                              	PUSH	ESI
  2288 00001321 8B 4F 10                        	MOV	ECX,DWORD [16+EDI]
  2289 00001324 89 C8                           	MOV	EAX,ECX
  2290 00001326 03 47 08                        	ADD	EAX,DWORD [8+EDI]
  2291 00001329 50                              	PUSH	EAX
  2292 0000132A 8B 57 0C                        	MOV	EDX,DWORD [12+EDI]
  2293 0000132D 89 D0                           	MOV	EAX,EDX
  2294 0000132F 03 47 04                        	ADD	EAX,DWORD [4+EDI]
  2295 00001332 50                              	PUSH	EAX
  2296 00001333 51                              	PUSH	ECX
  2297 00001334 52                              	PUSH	EDX
  2298 00001335 FF 77 20                        	PUSH	DWORD [32+EDI]
  2299 00001338 E8 FFFFFD90                     	CALL	_sheetRefreshMap
  2300 0000133D 56                              	PUSH	ESI
  2301 0000133E E9 FFFFFF51                     	JMP	L404
  2302 00001343                                 L385:
  2303 00001343 8B 4B 10                        	MOV	ECX,DWORD [16+EBX]
  2304 00001346 39 F1                           	CMP	ECX,ESI
  2305 00001348 7C 13                           	JL	L403
  2306 0000134A                                 L396:
  2307 0000134A 8B 54 8B 14                     	MOV	EDX,DWORD [20+EBX+ECX*4]
  2308 0000134E 8D 41 01                        	LEA	EAX,DWORD [1+ECX]
  2309 00001351 89 54 8B 18                     	MOV	DWORD [24+EBX+ECX*4],EDX
  2310 00001355 49                              	DEC	ECX
  2311 00001356 89 42 18                        	MOV	DWORD [24+EDX],EAX
  2312 00001359 39 F1                           	CMP	ECX,ESI
  2313 0000135B 7D ED                           	JGE	L396
  2314 0000135D                                 L403:
  2315 0000135D 89 7C B3 14                     	MOV	DWORD [20+EBX+ESI*4],EDI
  2316 00001361 FF 43 10                        	INC	DWORD [16+EBX]
  2317 00001364 EB BA                           	JMP	L391
  2318 00001366                                 	GLOBAL	_sheetRefresh
  2319 00001366                                 _sheetRefresh:
  2320 00001366 55                              	PUSH	EBP
  2321 00001367 89 E5                           	MOV	EBP,ESP
  2322 00001369 53                              	PUSH	EBX
  2323 0000136A 8B 5D 08                        	MOV	EBX,DWORD [8+EBP]
  2324 0000136D 8B 43 18                        	MOV	EAX,DWORD [24+EBX]
  2325 00001370 85 C0                           	TEST	EAX,EAX
  2326 00001372 78 26                           	JS	L405
  2327 00001374 50                              	PUSH	EAX
  2328 00001375 8B 4B 10                        	MOV	ECX,DWORD [16+EBX]
  2329 00001378 89 C8                           	MOV	EAX,ECX
  2330 0000137A 03 4D 10                        	ADD	ECX,DWORD [16+EBP]
  2331 0000137D 03 45 18                        	ADD	EAX,DWORD [24+EBP]
  2332 00001380 50                              	PUSH	EAX
  2333 00001381 8B 53 0C                        	MOV	EDX,DWORD [12+EBX]
  2334 00001384 89 D0                           	MOV	EAX,EDX
  2335 00001386 03 55 0C                        	ADD	EDX,DWORD [12+EBP]
  2336 00001389 03 45 14                        	ADD	EAX,DWORD [20+EBP]
  2337 0000138C 50                              	PUSH	EAX
  2338 0000138D 51                              	PUSH	ECX
  2339 0000138E 52                              	PUSH	EDX
  2340 0000138F FF 73 20                        	PUSH	DWORD [32+EBX]
  2341 00001392 E8 00000008                     	CALL	_sheetRefreshSub
  2342 00001397 83 C4 18                        	ADD	ESP,24
  2343 0000139A                                 L405:
  2344 0000139A 8B 5D FC                        	MOV	EBX,DWORD [-4+EBP]
  2345 0000139D C9                              	LEAVE
  2346 0000139E C3                              	RET
  2347 0000139F                                 	GLOBAL	_sheetRefreshSub
  2348 0000139F                                 _sheetRefreshSub:
  2349 0000139F 55                              	PUSH	EBP
  2350 000013A0 89 E5                           	MOV	EBP,ESP
  2351 000013A2 57                              	PUSH	EDI
  2352 000013A3 56                              	PUSH	ESI
  2353 000013A4 53                              	PUSH	EBX
  2354 000013A5 83 EC 2C                        	SUB	ESP,44
  2355 000013A8 8B 45 08                        	MOV	EAX,DWORD [8+EBP]
  2356 000013AB 8B 55 08                        	MOV	EDX,DWORD [8+EBP]
  2357 000013AE 83 7D 0C 00                     	CMP	DWORD [12+EBP],0
  2358 000013B2 8B 00                           	MOV	EAX,DWORD [EAX]
  2359 000013B4 8B 52 04                        	MOV	EDX,DWORD [4+EDX]
  2360 000013B7 89 45 DC                        	MOV	DWORD [-36+EBP],EAX
  2361 000013BA 89 55 D8                        	MOV	DWORD [-40+EBP],EDX
  2362 000013BD 0F 88 00000137                  	JS	L438
  2363 000013C3                                 L408:
  2364 000013C3 83 7D 10 00                     	CMP	DWORD [16+EBP],0
  2365 000013C7 0F 88 00000121                  	JS	L439
  2366 000013CD                                 L409:
  2367 000013CD 8B 75 08                        	MOV	ESI,DWORD [8+EBP]
  2368 000013D0 8B 46 08                        	MOV	EAX,DWORD [8+ESI]
  2369 000013D3 39 45 14                        	CMP	DWORD [20+EBP],EAX
  2370 000013D6 7E 03                           	JLE	L410
  2371 000013D8 89 45 14                        	MOV	DWORD [20+EBP],EAX
  2372 000013DB                                 L410:
  2373 000013DB 8B 7D 08                        	MOV	EDI,DWORD [8+EBP]
  2374 000013DE 8B 47 0C                        	MOV	EAX,DWORD [12+EDI]
  2375 000013E1 39 45 18                        	CMP	DWORD [24+EBP],EAX
  2376 000013E4 7E 03                           	JLE	L411
  2377 000013E6 89 45 18                        	MOV	DWORD [24+EBP],EAX
  2378 000013E9                                 L411:
  2379 000013E9 8B 55 08                        	MOV	EDX,DWORD [8+EBP]
  2380 000013EC 8B 45 1C                        	MOV	EAX,DWORD [28+EBP]
  2381 000013EF 89 45 F0                        	MOV	DWORD [-16+EBP],EAX
  2382 000013F2 3B 42 10                        	CMP	EAX,DWORD [16+EDX]
  2383 000013F5 0F 8F 000000BF                  	JG	L433
  2384 000013FB                                 L431:
  2385 000013FB 8B 7D 08                        	MOV	EDI,DWORD [8+EBP]
  2386 000013FE 8B 75 F0                        	MOV	ESI,DWORD [-16+EBP]
  2387 00001401 8B 4D 10                        	MOV	ECX,DWORD [16+EBP]
  2388 00001404 8B 5C B7 14                     	MOV	EBX,DWORD [20+EDI+ESI*4]
  2389 00001408 8B 75 14                        	MOV	ESI,DWORD [20+EBP]
  2390 0000140B 89 D8                           	MOV	EAX,EBX
  2391 0000140D 29 F8                           	SUB	EAX,EDI
  2392 0000140F 8B 53 10                        	MOV	EDX,DWORD [16+EBX]
  2393 00001412 2D 00000414                     	SUB	EAX,1044
  2394 00001417 8B 7D 18                        	MOV	EDI,DWORD [24+EBP]
  2395 0000141A C1 F8 02                        	SAR	EAX,2
  2396 0000141D 29 D7                           	SUB	EDI,EDX
  2397 0000141F 69 C0 38E38E39                  	IMUL	EAX,EAX,954437177
  2398 00001425 88 45 D7                        	MOV	BYTE [-41+EBP],AL
  2399 00001428 29 D1                           	SUB	ECX,EDX
  2400 0000142A 8B 03                           	MOV	EAX,DWORD [EBX]
  2401 0000142C 8B 55 0C                        	MOV	EDX,DWORD [12+EBP]
  2402 0000142F 89 45 E0                        	MOV	DWORD [-32+EBP],EAX
  2403 00001432 89 7D C8                        	MOV	DWORD [-56+EBP],EDI
  2404 00001435 8B 43 0C                        	MOV	EAX,DWORD [12+EBX]
  2405 00001438 29 C6                           	SUB	ESI,EAX
  2406 0000143A 29 C2                           	SUB	EDX,EAX
  2407 0000143C 89 75 E4                        	MOV	DWORD [-28+EBP],ESI
  2408 0000143F 89 55 E8                        	MOV	DWORD [-24+EBP],EDX
  2409 00001442 0F 88 0000009A                  	JS	L440
  2410 00001448                                 L416:
  2411 00001448 85 C9                           	TEST	ECX,ECX
  2412 0000144A 0F 88 0000008B                  	JS	L441
  2413 00001450                                 L417:
  2414 00001450 8B 43 04                        	MOV	EAX,DWORD [4+EBX]
  2415 00001453 39 45 E4                        	CMP	DWORD [-28+EBP],EAX
  2416 00001456 7E 03                           	JLE	L418
  2417 00001458 89 45 E4                        	MOV	DWORD [-28+EBP],EAX
  2418 0000145B                                 L418:
  2419 0000145B 8B 43 08                        	MOV	EAX,DWORD [8+EBX]
  2420 0000145E 39 45 C8                        	CMP	DWORD [-56+EBP],EAX
  2421 00001461 7E 03                           	JLE	L419
  2422 00001463 89 45 C8                        	MOV	DWORD [-56+EBP],EAX
  2423 00001466                                 L419:
  2424 00001466 89 CE                           	MOV	ESI,ECX
  2425 00001468 3B 4D C8                        	CMP	ECX,DWORD [-56+EBP]
  2426 0000146B 7D 3B                           	JGE	L435
  2427 0000146D                                 L430:
  2428 0000146D 8B 7B 10                        	MOV	EDI,DWORD [16+EBX]
  2429 00001470 8B 4D E8                        	MOV	ECX,DWORD [-24+EBP]
  2430 00001473 01 F7                           	ADD	EDI,ESI
  2431 00001475 3B 4D E4                        	CMP	ECX,DWORD [-28+EBP]
  2432 00001478 89 7D EC                        	MOV	DWORD [-20+EBP],EDI
  2433 0000147B 7D 25                           	JGE	L437
  2434 0000147D                                 L429:
  2435 0000147D 8B 55 08                        	MOV	EDX,DWORD [8+EBP]
  2436 00001480 8B 7D EC                        	MOV	EDI,DWORD [-20+EBP]
  2437 00001483 8B 43 0C                        	MOV	EAX,DWORD [12+EBX]
  2438 00001486 0F AF 7A 08                     	IMUL	EDI,DWORD [8+EDX]
  2439 0000148A 01 C8                           	ADD	EAX,ECX
  2440 0000148C 8A 55 D7                        	MOV	DL,BYTE [-41+EBP]
  2441 0000148F 01 F8                           	ADD	EAX,EDI
  2442 00001491 8B 7D D8                        	MOV	EDI,DWORD [-40+EBP]
  2443 00001494 89 45 CC                        	MOV	DWORD [-52+EBP],EAX
  2444 00001497 38 14 38                        	CMP	BYTE [EAX+EDI*1],DL
  2445 0000149A 74 26                           	JE	L442
  2446 0000149C                                 L426:
  2447 0000149C 41                              	INC	ECX
  2448 0000149D 3B 4D E4                        	CMP	ECX,DWORD [-28+EBP]
  2449 000014A0 7C DB                           	JL	L429
  2450 000014A2                                 L437:
  2451 000014A2 46                              	INC	ESI
  2452 000014A3 3B 75 C8                        	CMP	ESI,DWORD [-56+EBP]
  2453 000014A6 7C C5                           	JL	L430
  2454 000014A8                                 L435:
  2455 000014A8 8B 7D 08                        	MOV	EDI,DWORD [8+EBP]
  2456 000014AB FF 45 F0                        	INC	DWORD [-16+EBP]
  2457 000014AE 8B 75 F0                        	MOV	ESI,DWORD [-16+EBP]
  2458 000014B1 3B 77 10                        	CMP	ESI,DWORD [16+EDI]
  2459 000014B4 0F 8E FFFFFF41                  	JLE	L431
  2460 000014BA                                 L433:
  2461 000014BA 83 C4 2C                        	ADD	ESP,44
  2462 000014BD 5B                              	POP	EBX
  2463 000014BE 5E                              	POP	ESI
  2464 000014BF 5F                              	POP	EDI
  2465 000014C0 5D                              	POP	EBP
  2466 000014C1 C3                              	RET
  2467 000014C2                                 L442:
  2468 000014C2 89 F0                           	MOV	EAX,ESI
  2469 000014C4 8B 55 E0                        	MOV	EDX,DWORD [-32+EBP]
  2470 000014C7 0F AF 43 04                     	IMUL	EAX,DWORD [4+EBX]
  2471 000014CB 01 C8                           	ADD	EAX,ECX
  2472 000014CD 8B 7D DC                        	MOV	EDI,DWORD [-36+EBP]
  2473 000014D0 8A 04 10                        	MOV	AL,BYTE [EAX+EDX*1]
  2474 000014D3 8B 55 CC                        	MOV	EDX,DWORD [-52+EBP]
  2475 000014D6 88 04 3A                        	MOV	BYTE [EDX+EDI*1],AL
  2476 000014D9 EB C1                           	JMP	L426
  2477 000014DB                                 L441:
  2478 000014DB 31 C9                           	XOR	ECX,ECX
  2479 000014DD E9 FFFFFF6E                     	JMP	L417
  2480 000014E2                                 L440:
  2481 000014E2 C7 45 E8 00000000               	MOV	DWORD [-24+EBP],0
  2482 000014E9 E9 FFFFFF5A                     	JMP	L416
  2483 000014EE                                 L439:
  2484 000014EE C7 45 10 00000000               	MOV	DWORD [16+EBP],0
  2485 000014F5 E9 FFFFFED3                     	JMP	L409
  2486 000014FA                                 L438:
  2487 000014FA C7 45 0C 00000000               	MOV	DWORD [12+EBP],0
  2488 00001501 E9 FFFFFEBD                     	JMP	L408
  2489 00001506                                 	GLOBAL	_sheetSlide
  2490 00001506                                 _sheetSlide:
  2491 00001506 55                              	PUSH	EBP
  2492 00001507 89 E5                           	MOV	EBP,ESP
  2493 00001509 57                              	PUSH	EDI
  2494 0000150A 56                              	PUSH	ESI
  2495 0000150B 53                              	PUSH	EBX
  2496 0000150C 8B 45 0C                        	MOV	EAX,DWORD [12+EBP]
  2497 0000150F 8B 5D 08                        	MOV	EBX,DWORD [8+EBP]
  2498 00001512 8B 7B 0C                        	MOV	EDI,DWORD [12+EBX]
  2499 00001515 8B 73 10                        	MOV	ESI,DWORD [16+EBX]
  2500 00001518 89 43 0C                        	MOV	DWORD [12+EBX],EAX
  2501 0000151B 8B 45 10                        	MOV	EAX,DWORD [16+EBP]
  2502 0000151E 89 43 10                        	MOV	DWORD [16+EBX],EAX
  2503 00001521 83 7B 18 00                     	CMP	DWORD [24+EBX],0
  2504 00001525 78 74                           	JS	L443
  2505 00001527 6A 00                           	PUSH	0
  2506 00001529 89 F0                           	MOV	EAX,ESI
  2507 0000152B 03 43 08                        	ADD	EAX,DWORD [8+EBX]
  2508 0000152E 50                              	PUSH	EAX
  2509 0000152F 89 F8                           	MOV	EAX,EDI
  2510 00001531 03 43 04                        	ADD	EAX,DWORD [4+EBX]
  2511 00001534 50                              	PUSH	EAX
  2512 00001535 56                              	PUSH	ESI
  2513 00001536 57                              	PUSH	EDI
  2514 00001537 FF 73 20                        	PUSH	DWORD [32+EBX]
  2515 0000153A E8 FFFFFB8E                     	CALL	_sheetRefreshMap
  2516 0000153F 8B 45 10                        	MOV	EAX,DWORD [16+EBP]
  2517 00001542 FF 73 18                        	PUSH	DWORD [24+EBX]
  2518 00001545 03 43 08                        	ADD	EAX,DWORD [8+EBX]
  2519 00001548 50                              	PUSH	EAX
  2520 00001549 8B 45 0C                        	MOV	EAX,DWORD [12+EBP]
  2521 0000154C 03 43 04                        	ADD	EAX,DWORD [4+EBX]
  2522 0000154F 50                              	PUSH	EAX
  2523 00001550 FF 75 10                        	PUSH	DWORD [16+EBP]
  2524 00001553 FF 75 0C                        	PUSH	DWORD [12+EBP]
  2525 00001556 FF 73 20                        	PUSH	DWORD [32+EBX]
  2526 00001559 E8 FFFFFB6F                     	CALL	_sheetRefreshMap
  2527 0000155E 89 F0                           	MOV	EAX,ESI
  2528 00001560 83 C4 30                        	ADD	ESP,48
  2529 00001563 6A 00                           	PUSH	0
  2530 00001565 03 43 08                        	ADD	EAX,DWORD [8+EBX]
  2531 00001568 50                              	PUSH	EAX
  2532 00001569 89 F8                           	MOV	EAX,EDI
  2533 0000156B 03 43 04                        	ADD	EAX,DWORD [4+EBX]
  2534 0000156E 50                              	PUSH	EAX
  2535 0000156F 56                              	PUSH	ESI
  2536 00001570 57                              	PUSH	EDI
  2537 00001571 FF 73 20                        	PUSH	DWORD [32+EBX]
  2538 00001574 E8 FFFFFE26                     	CALL	_sheetRefreshSub
  2539 00001579 8B 45 10                        	MOV	EAX,DWORD [16+EBP]
  2540 0000157C FF 73 18                        	PUSH	DWORD [24+EBX]
  2541 0000157F 03 43 08                        	ADD	EAX,DWORD [8+EBX]
  2542 00001582 50                              	PUSH	EAX
  2543 00001583 8B 45 0C                        	MOV	EAX,DWORD [12+EBP]
  2544 00001586 03 43 04                        	ADD	EAX,DWORD [4+EBX]
  2545 00001589 50                              	PUSH	EAX
  2546 0000158A FF 75 10                        	PUSH	DWORD [16+EBP]
  2547 0000158D FF 75 0C                        	PUSH	DWORD [12+EBP]
  2548 00001590 FF 73 20                        	PUSH	DWORD [32+EBX]
  2549 00001593 E8 FFFFFE07                     	CALL	_sheetRefreshSub
  2550 00001598 83 C4 30                        	ADD	ESP,48
  2551 0000159B                                 L443:
  2552 0000159B 8D 65 F4                        	LEA	ESP,DWORD [-12+EBP]
  2553 0000159E 5B                              	POP	EBX
  2554 0000159F 5E                              	POP	ESI
  2555 000015A0 5F                              	POP	EDI
  2556 000015A1 5D                              	POP	EBP
  2557 000015A2 C3                              	RET
  2558 000015A3                                 	GLOBAL	_sheetFree
  2559 000015A3                                 _sheetFree:
  2560 000015A3 55                              	PUSH	EBP
  2561 000015A4 89 E5                           	MOV	EBP,ESP
  2562 000015A6 53                              	PUSH	EBX
  2563 000015A7 8B 5D 08                        	MOV	EBX,DWORD [8+EBP]
  2564 000015AA 83 7B 18 00                     	CMP	DWORD [24+EBX],0
  2565 000015AE 78 0A                           	JS	L446
  2566 000015B0 6A FF                           	PUSH	-1
  2567 000015B2 53                              	PUSH	EBX
  2568 000015B3 E8 FFFFFC72                     	CALL	_sheetUpdown
  2569 000015B8 58                              	POP	EAX
  2570 000015B9 5A                              	POP	EDX
  2571 000015BA                                 L446:
  2572 000015BA C7 43 1C 00000000               	MOV	DWORD [28+EBX],0
  2573 000015C1 8B 5D FC                        	MOV	EBX,DWORD [-4+EBP]
  2574 000015C4 C9                              	LEAVE
  2575 000015C5 C3                              	RET
  2576                                          [SECTION .data]
  2577 000001B0                                 LC0:
  2578 000001B0 25 30 31 31 64 00               	DB	"%011d",0x00
  2579                                          [SECTION .text]
  2580 000015C6                                 	GLOBAL	_taskBmain
  2581 000015C6                                 _taskBmain:
  2582 000015C6 55                              	PUSH	EBP
  2583 000015C7 89 E5                           	MOV	EBP,ESP
  2584 000015C9 57                              	PUSH	EDI
  2585 000015CA 56                              	PUSH	ESI
  2586 000015CB 31 FF                           	XOR	EDI,EDI
  2587 000015CD 53                              	PUSH	EBX
  2588 000015CE 8D 85 FFFFFDD4                  	LEA	EAX,DWORD [-556+EBP]
  2589 000015D4 81 EC 00000234                  	SUB	ESP,564
  2590 000015DA 8D 5D D4                        	LEA	EBX,DWORD [-44+EBP]
  2591 000015DD C7 85 FFFFFDC0 00000000         	MOV	DWORD [-576+EBP],0
  2592 000015E7 6A 00                           	PUSH	0
  2593 000015E9 50                              	PUSH	EAX
  2594 000015EA 68 00000080                     	PUSH	128
  2595 000015EF 53                              	PUSH	EBX
  2596 000015F0 E8 FFFFEA0B                     	CALL	_QueueInit
  2597 000015F5 E8 FFFFEC60                     	CALL	_timerAlloc
  2598 000015FA 6A 64                           	PUSH	100
  2599 000015FC 53                              	PUSH	EBX
  2600 000015FD 89 C6                           	MOV	ESI,EAX
  2601 000015FF 50                              	PUSH	EAX
  2602 00001600 E8 FFFFEC8D                     	CALL	_timerInit
  2603 00001605 6A 64                           	PUSH	100
  2604 00001607 56                              	PUSH	ESI
  2605 00001608 E8 FFFFEC99                     	CALL	_timerSetTime
  2606 0000160D 83 C4 24                        	ADD	ESP,36
  2607 00001610                                 L448:
  2608 00001610 8D 5D D4                        	LEA	EBX,DWORD [-44+EBP]
  2609 00001613 E8 [00000000]                   	CALL	_io_cli
  2610 00001618 53                              	PUSH	EBX
  2611 00001619 47                              	INC	EDI
  2612 0000161A E8 FFFFEA94                     	CALL	_QueueSize
  2613 0000161F 5A                              	POP	EDX
  2614 00001620 85 C0                           	TEST	EAX,EAX
  2615 00001622 74 55                           	JE	L454
  2616 00001624 53                              	PUSH	EBX
  2617 00001625 E8 FFFFEA57                     	CALL	_QueuePop
  2618 0000162A 89 C3                           	MOV	EBX,EAX
  2619 0000162C E8 [00000000]                   	CALL	_io_sti
  2620 00001631 58                              	POP	EAX
  2621 00001632 83 FB 64                        	CMP	EBX,100
  2622 00001635 75 D9                           	JNE	L448
  2623 00001637 89 F8                           	MOV	EAX,EDI
  2624 00001639 8D 9D FFFFFDC4                  	LEA	EBX,DWORD [-572+EBP]
  2625 0000163F 2B 85 FFFFFDC0                  	SUB	EAX,DWORD [-576+EBP]
  2626 00001645 50                              	PUSH	EAX
  2627 00001646 68 [000001B0]                   	PUSH	LC0
  2628 0000164B 53                              	PUSH	EBX
  2629 0000164C E8 [00000000]                   	CALL	_sprintf
  2630 00001651 6A 0B                           	PUSH	11
  2631 00001653 53                              	PUSH	EBX
  2632 00001654 6A 08                           	PUSH	8
  2633 00001656 6A 00                           	PUSH	0
  2634 00001658 6A 1C                           	PUSH	28
  2635 0000165A 6A 18                           	PUSH	24
  2636 0000165C FF 75 08                        	PUSH	DWORD [8+EBP]
  2637 0000165F E8 FFFFF620                     	CALL	_putFont8AscSheet
  2638 00001664 83 C4 28                        	ADD	ESP,40
  2639 00001667 89 BD FFFFFDC0                  	MOV	DWORD [-576+EBP],EDI
  2640 0000166D 6A 64                           	PUSH	100
  2641 0000166F 56                              	PUSH	ESI
  2642 00001670 E8 FFFFEC31                     	CALL	_timerSetTime
  2643 00001675 59                              	POP	ECX
  2644 00001676 5B                              	POP	EBX
  2645 00001677 EB 97                           	JMP	L448
  2646 00001679                                 L454:
  2647 00001679 E8 [00000000]                   	CALL	_io_sti
  2648 0000167E EB 90                           	JMP	L448
  2649 00001680                                 	GLOBAL	_makeTextBox
  2650 00001680                                 _makeTextBox:
  2651 00001680 55                              	PUSH	EBP
  2652 00001681 89 E5                           	MOV	EBP,ESP
  2653 00001683 57                              	PUSH	EDI
  2654 00001684 56                              	PUSH	ESI
  2655 00001685 53                              	PUSH	EBX
  2656 00001686 83 EC 14                        	SUB	ESP,20
  2657 00001689 8B 45 0C                        	MOV	EAX,DWORD [12+EBP]
  2658 0000168C 8B 75 10                        	MOV	ESI,DWORD [16+EBP]
  2659 0000168F 03 45 14                        	ADD	EAX,DWORD [20+EBP]
  2660 00001692 83 EE 03                        	SUB	ESI,3
  2661 00001695 56                              	PUSH	ESI
  2662 00001696 89 45 F0                        	MOV	DWORD [-16+EBP],EAX
  2663 00001699 8B 45 10                        	MOV	EAX,DWORD [16+EBP]
  2664 0000169C 03 45 18                        	ADD	EAX,DWORD [24+EBP]
  2665 0000169F 89 45 EC                        	MOV	DWORD [-20+EBP],EAX
  2666 000016A2 8B 45 F0                        	MOV	EAX,DWORD [-16+EBP]
  2667 000016A5 40                              	INC	EAX
  2668 000016A6 50                              	PUSH	EAX
  2669 000016A7 89 45 E8                        	MOV	DWORD [-24+EBP],EAX
  2670 000016AA 8B 45 0C                        	MOV	EAX,DWORD [12+EBP]
  2671 000016AD 56                              	PUSH	ESI
  2672 000016AE 83 E8 02                        	SUB	EAX,2
  2673 000016B1 50                              	PUSH	EAX
  2674 000016B2 89 45 E4                        	MOV	DWORD [-28+EBP],EAX
  2675 000016B5 8B 45 08                        	MOV	EAX,DWORD [8+EBP]
  2676 000016B8 6A 0F                           	PUSH	15
  2677 000016BA FF 70 04                        	PUSH	DWORD [4+EAX]
  2678 000016BD FF 30                           	PUSH	DWORD [EAX]
  2679 000016BF E8 FFFFF30F                     	CALL	_boxFill8
  2680 000016C4 8B 7D 0C                        	MOV	EDI,DWORD [12+EBP]
  2681 000016C7 8B 45 EC                        	MOV	EAX,DWORD [-20+EBP]
  2682 000016CA 83 EF 03                        	SUB	EDI,3
  2683 000016CD 40                              	INC	EAX
  2684 000016CE 50                              	PUSH	EAX
  2685 000016CF 89 45 E0                        	MOV	DWORD [-32+EBP],EAX
  2686 000016D2 57                              	PUSH	EDI
  2687 000016D3 8B 45 08                        	MOV	EAX,DWORD [8+EBP]
  2688 000016D6 56                              	PUSH	ESI
  2689 000016D7 57                              	PUSH	EDI
  2690 000016D8 6A 0F                           	PUSH	15
  2691 000016DA FF 70 04                        	PUSH	DWORD [4+EAX]
  2692 000016DD FF 30                           	PUSH	DWORD [EAX]
  2693 000016DF E8 FFFFF2EF                     	CALL	_boxFill8
  2694 000016E4 8B 45 08                        	MOV	EAX,DWORD [8+EBP]
  2695 000016E7 83 C4 38                        	ADD	ESP,56
  2696 000016EA 8B 5D EC                        	MOV	EBX,DWORD [-20+EBP]
  2697 000016ED 83 C3 02                        	ADD	EBX,2
  2698 000016F0 53                              	PUSH	EBX
  2699 000016F1 FF 75 E8                        	PUSH	DWORD [-24+EBP]
  2700 000016F4 53                              	PUSH	EBX
  2701 000016F5 57                              	PUSH	EDI
  2702 000016F6 6A 07                           	PUSH	7
  2703 000016F8 FF 70 04                        	PUSH	DWORD [4+EAX]
  2704 000016FB FF 30                           	PUSH	DWORD [EAX]
  2705 000016FD E8 FFFFF2D1                     	CALL	_boxFill8
  2706 00001702 8B 45 F0                        	MOV	EAX,DWORD [-16+EBP]
  2707 00001705 53                              	PUSH	EBX
  2708 00001706 83 C0 02                        	ADD	EAX,2
  2709 00001709 50                              	PUSH	EAX
  2710 0000170A 56                              	PUSH	ESI
  2711 0000170B 50                              	PUSH	EAX
  2712 0000170C 8B 45 08                        	MOV	EAX,DWORD [8+EBP]
  2713 0000170F 6A 07                           	PUSH	7
  2714 00001711 FF 70 04                        	PUSH	DWORD [4+EAX]
  2715 00001714 FF 30                           	PUSH	DWORD [EAX]
  2716 00001716 E8 FFFFF2B8                     	CALL	_boxFill8
  2717 0000171B 8B 45 08                        	MOV	EAX,DWORD [8+EBP]
  2718 0000171E 83 C4 38                        	ADD	ESP,56
  2719 00001721 8B 5D 10                        	MOV	EBX,DWORD [16+EBP]
  2720 00001724 83 EB 02                        	SUB	EBX,2
  2721 00001727 8B 7D 0C                        	MOV	EDI,DWORD [12+EBP]
  2722 0000172A 53                              	PUSH	EBX
  2723 0000172B 4F                              	DEC	EDI
  2724 0000172C FF 75 F0                        	PUSH	DWORD [-16+EBP]
  2725 0000172F 53                              	PUSH	EBX
  2726 00001730 57                              	PUSH	EDI
  2727 00001731 6A 00                           	PUSH	0
  2728 00001733 FF 70 04                        	PUSH	DWORD [4+EAX]
  2729 00001736 FF 30                           	PUSH	DWORD [EAX]
  2730 00001738 E8 FFFFF296                     	CALL	_boxFill8
  2731 0000173D 8B 45 08                        	MOV	EAX,DWORD [8+EBP]
  2732 00001740 FF 75 EC                        	PUSH	DWORD [-20+EBP]
  2733 00001743 FF 75 E4                        	PUSH	DWORD [-28+EBP]
  2734 00001746 53                              	PUSH	EBX
  2735 00001747 FF 75 E4                        	PUSH	DWORD [-28+EBP]
  2736 0000174A 6A 00                           	PUSH	0
  2737 0000174C FF 70 04                        	PUSH	DWORD [4+EAX]
  2738 0000174F FF 30                           	PUSH	DWORD [EAX]
  2739 00001751 E8 FFFFF27D                     	CALL	_boxFill8
  2740 00001756 8B 45 08                        	MOV	EAX,DWORD [8+EBP]
  2741 00001759 83 C4 38                        	ADD	ESP,56
  2742 0000175C FF 75 E0                        	PUSH	DWORD [-32+EBP]
  2743 0000175F FF 75 F0                        	PUSH	DWORD [-16+EBP]
  2744 00001762 FF 75 E0                        	PUSH	DWORD [-32+EBP]
  2745 00001765 FF 75 E4                        	PUSH	DWORD [-28+EBP]
  2746 00001768 6A 08                           	PUSH	8
  2747 0000176A FF 70 04                        	PUSH	DWORD [4+EAX]
  2748 0000176D FF 30                           	PUSH	DWORD [EAX]
  2749 0000176F E8 FFFFF25F                     	CALL	_boxFill8
  2750 00001774 8B 45 08                        	MOV	EAX,DWORD [8+EBP]
  2751 00001777 FF 75 E0                        	PUSH	DWORD [-32+EBP]
  2752 0000177A FF 75 E8                        	PUSH	DWORD [-24+EBP]
  2753 0000177D 53                              	PUSH	EBX
  2754 0000177E FF 75 E8                        	PUSH	DWORD [-24+EBP]
  2755 00001781 6A 08                           	PUSH	8
  2756 00001783 FF 70 04                        	PUSH	DWORD [4+EAX]
  2757 00001786 FF 30                           	PUSH	DWORD [EAX]
  2758 00001788 E8 FFFFF246                     	CALL	_boxFill8
  2759 0000178D 8B 45 10                        	MOV	EAX,DWORD [16+EBP]
  2760 00001790 83 C4 38                        	ADD	ESP,56
  2761 00001793 48                              	DEC	EAX
  2762 00001794 FF 75 EC                        	PUSH	DWORD [-20+EBP]
  2763 00001797 FF 75 F0                        	PUSH	DWORD [-16+EBP]
  2764 0000179A 50                              	PUSH	EAX
  2765 0000179B 57                              	PUSH	EDI
  2766 0000179C 0F B6 45 1C                     	MOVZX	EAX,BYTE [28+EBP]
  2767 000017A0 50                              	PUSH	EAX
  2768 000017A1 8B 45 08                        	MOV	EAX,DWORD [8+EBP]
  2769 000017A4 FF 70 04                        	PUSH	DWORD [4+EAX]
  2770 000017A7 FF 30                           	PUSH	DWORD [EAX]
  2771 000017A9 E8 FFFFF225                     	CALL	_boxFill8
  2772 000017AE 8D 65 F4                        	LEA	ESP,DWORD [-12+EBP]
  2773 000017B1 5B                              	POP	EBX
  2774 000017B2 5E                              	POP	ESI
  2775 000017B3 5F                              	POP	EDI
  2776 000017B4 5D                              	POP	EBP
  2777 000017B5 C3                              	RET
  2778                                          [SECTION .data]
  2779 000001B6                                 _closeBtn.2:
  2780 000001B6 4F 4F 4F 4F 4F 4F 4F 4F 4F 4F   	DB	"OOOOOOOOOOOOOOO@"
       000001C0 4F 4F 4F 4F 4F 40 
  2781 000001C6 4F 51 51 51 51 51 51 51 51 51   	DB	"OQQQQQQQQQQQQQ$@"
       000001D0 51 51 51 51 24 40 
  2782 000001D6 4F 51 51 51 51 51 51 51 51 51   	DB	"OQQQQQQQQQQQQQ$@"
       000001E0 51 51 51 51 24 40 
  2783 000001E6 4F 51 51 51 40 40 51 51 51 51   	DB	"OQQQ@@QQQQ@@QQ$@"
       000001F0 40 40 51 51 24 40 
  2784 000001F6 4F 51 51 51 51 40 40 51 51 40   	DB	"OQQQQ@@QQ@@QQQ$@"
       00000200 40 51 51 51 24 40 
  2785 00000206 4F 51 51 51 51 51 40 40 40 40   	DB	"OQQQQQ@@@@QQQQ$@"
       00000210 51 51 51 51 24 40 
  2786 00000216 4F 51 51 51 51 51 51 40 40 51   	DB	"OQQQQQQ@@QQQQQ$@"
       00000220 51 51 51 51 24 40 
  2787 00000226 4F 51 51 51 51 51 40 40 40 40   	DB	"OQQQQQ@@@@QQQQ$@"
       00000230 51 51 51 51 24 40 
  2788 00000236 4F 51 51 51 51 40 40 51 51 40   	DB	"OQQQQ@@QQ@@QQQ$@"
       00000240 40 51 51 51 24 40 
  2789 00000246 4F 51 51 51 40 40 51 51 51 51   	DB	"OQQQ@@QQQQ@@QQ$@"
       00000250 40 40 51 51 24 40 
  2790 00000256 4F 51 51 51 51 51 51 51 51 51   	DB	"OQQQQQQQQQQQQQ$@"
       00000260 51 51 51 51 24 40 
  2791 00000266 4F 51 51 51 51 51 51 51 51 51   	DB	"OQQQQQQQQQQQQQ$@"
       00000270 51 51 51 51 24 40 
  2792 00000276 4F 24 24 24 24 24 24 24 24 24   	DB	"O$$$$$$$$$$$$$$@"
       00000280 24 24 24 24 24 40 
  2793 00000286 40 40 40 40 40 40 40 40 40 40   	DB	"@@@@@@@@@@@@@@@@"
       00000290 40 40 40 40 40 40 
  2794                                          [SECTION .text]
  2795 000017B6                                 	GLOBAL	_makeWindow
  2796 000017B6                                 _makeWindow:
  2797 000017B6 55                              	PUSH	EBP
  2798 000017B7 89 E5                           	MOV	EBP,ESP
  2799 000017B9 57                              	PUSH	EDI
  2800 000017BA 56                              	PUSH	ESI
  2801 000017BB 53                              	PUSH	EBX
  2802 000017BC 83 EC 0C                        	SUB	ESP,12
  2803 000017BF 80 7D 18 00                     	CMP	BYTE [24+EBP],0
  2804 000017C3 0F 84 00000180                  	JE	L457
  2805 000017C9 C6 45 EF 07                     	MOV	BYTE [-17+EBP],7
  2806 000017CD C6 45 EE 0C                     	MOV	BYTE [-18+EBP],12
  2807 000017D1                                 L458:
  2808 000017D1 8B 45 0C                        	MOV	EAX,DWORD [12+EBP]
  2809 000017D4 6A 00                           	PUSH	0
  2810 000017D6 48                              	DEC	EAX
  2811 000017D7 50                              	PUSH	EAX
  2812 000017D8 89 45 E8                        	MOV	DWORD [-24+EBP],EAX
  2813 000017DB 6A 00                           	PUSH	0
  2814 000017DD 6A 00                           	PUSH	0
  2815 000017DF 6A 08                           	PUSH	8
  2816 000017E1 FF 75 0C                        	PUSH	DWORD [12+EBP]
  2817 000017E4 FF 75 08                        	PUSH	DWORD [8+EBP]
  2818 000017E7 E8 FFFFF1E7                     	CALL	_boxFill8
  2819 000017EC 8B 75 0C                        	MOV	ESI,DWORD [12+EBP]
  2820 000017EF 6A 01                           	PUSH	1
  2821 000017F1 83 EE 02                        	SUB	ESI,2
  2822 000017F4 56                              	PUSH	ESI
  2823 000017F5 6A 01                           	PUSH	1
  2824 000017F7 6A 01                           	PUSH	1
  2825 000017F9 6A 07                           	PUSH	7
  2826 000017FB FF 75 0C                        	PUSH	DWORD [12+EBP]
  2827 000017FE FF 75 08                        	PUSH	DWORD [8+EBP]
  2828 00001801 E8 FFFFF1CD                     	CALL	_boxFill8
  2829 00001806 8B 7D 10                        	MOV	EDI,DWORD [16+EBP]
  2830 00001809 83 C4 38                        	ADD	ESP,56
  2831 0000180C 4F                              	DEC	EDI
  2832 0000180D 57                              	PUSH	EDI
  2833 0000180E 6A 00                           	PUSH	0
  2834 00001810 6A 00                           	PUSH	0
  2835 00001812 6A 00                           	PUSH	0
  2836 00001814 6A 08                           	PUSH	8
  2837 00001816 FF 75 0C                        	PUSH	DWORD [12+EBP]
  2838 00001819 FF 75 08                        	PUSH	DWORD [8+EBP]
  2839 0000181C E8 FFFFF1B2                     	CALL	_boxFill8
  2840 00001821 8B 5D 10                        	MOV	EBX,DWORD [16+EBP]
  2841 00001824 83 EB 02                        	SUB	EBX,2
  2842 00001827 53                              	PUSH	EBX
  2843 00001828 6A 01                           	PUSH	1
  2844 0000182A 6A 01                           	PUSH	1
  2845 0000182C 6A 01                           	PUSH	1
  2846 0000182E 6A 07                           	PUSH	7
  2847 00001830 FF 75 0C                        	PUSH	DWORD [12+EBP]
  2848 00001833 FF 75 08                        	PUSH	DWORD [8+EBP]
  2849 00001836 E8 FFFFF198                     	CALL	_boxFill8
  2850 0000183B 83 C4 38                        	ADD	ESP,56
  2851 0000183E 53                              	PUSH	EBX
  2852 0000183F 56                              	PUSH	ESI
  2853 00001840 6A 01                           	PUSH	1
  2854 00001842 56                              	PUSH	ESI
  2855 00001843 6A 0F                           	PUSH	15
  2856 00001845 FF 75 0C                        	PUSH	DWORD [12+EBP]
  2857 00001848 FF 75 08                        	PUSH	DWORD [8+EBP]
  2858 0000184B E8 FFFFF183                     	CALL	_boxFill8
  2859 00001850 57                              	PUSH	EDI
  2860 00001851 FF 75 E8                        	PUSH	DWORD [-24+EBP]
  2861 00001854 6A 00                           	PUSH	0
  2862 00001856 FF 75 E8                        	PUSH	DWORD [-24+EBP]
  2863 00001859 6A 00                           	PUSH	0
  2864 0000185B FF 75 0C                        	PUSH	DWORD [12+EBP]
  2865 0000185E FF 75 08                        	PUSH	DWORD [8+EBP]
  2866 00001861 E8 FFFFF16D                     	CALL	_boxFill8
  2867 00001866 8B 45 10                        	MOV	EAX,DWORD [16+EBP]
  2868 00001869 83 C4 38                        	ADD	ESP,56
  2869 0000186C 83 E8 03                        	SUB	EAX,3
  2870 0000186F 50                              	PUSH	EAX
  2871 00001870 8B 45 0C                        	MOV	EAX,DWORD [12+EBP]
  2872 00001873 83 E8 03                        	SUB	EAX,3
  2873 00001876 50                              	PUSH	EAX
  2874 00001877 6A 02                           	PUSH	2
  2875 00001879 6A 02                           	PUSH	2
  2876 0000187B 6A 08                           	PUSH	8
  2877 0000187D FF 75 0C                        	PUSH	DWORD [12+EBP]
  2878 00001880 FF 75 08                        	PUSH	DWORD [8+EBP]
  2879 00001883 E8 FFFFF14B                     	CALL	_boxFill8
  2880 00001888 8B 45 0C                        	MOV	EAX,DWORD [12+EBP]
  2881 0000188B 6A 14                           	PUSH	20
  2882 0000188D 83 E8 04                        	SUB	EAX,4
  2883 00001890 50                              	PUSH	EAX
  2884 00001891 6A 03                           	PUSH	3
  2885 00001893 6A 03                           	PUSH	3
  2886 00001895 0F B6 45 EE                     	MOVZX	EAX,BYTE [-18+EBP]
  2887 00001899 50                              	PUSH	EAX
  2888 0000189A FF 75 0C                        	PUSH	DWORD [12+EBP]
  2889 0000189D FF 75 08                        	PUSH	DWORD [8+EBP]
  2890 000018A0 E8 FFFFF12E                     	CALL	_boxFill8
  2891 000018A5 83 C4 38                        	ADD	ESP,56
  2892 000018A8 53                              	PUSH	EBX
  2893 000018A9 56                              	PUSH	ESI
  2894 000018AA 53                              	PUSH	EBX
  2895 000018AB 6A 01                           	PUSH	1
  2896 000018AD 6A 0F                           	PUSH	15
  2897 000018AF FF 75 0C                        	PUSH	DWORD [12+EBP]
  2898 000018B2 FF 75 08                        	PUSH	DWORD [8+EBP]
  2899 000018B5 E8 FFFFF119                     	CALL	_boxFill8
  2900 000018BA 57                              	PUSH	EDI
  2901 000018BB FF 75 E8                        	PUSH	DWORD [-24+EBP]
  2902 000018BE 57                              	PUSH	EDI
  2903 000018BF 31 FF                           	XOR	EDI,EDI
  2904 000018C1 6A 00                           	PUSH	0
  2905 000018C3 6A 00                           	PUSH	0
  2906 000018C5 FF 75 0C                        	PUSH	DWORD [12+EBP]
  2907 000018C8 FF 75 08                        	PUSH	DWORD [8+EBP]
  2908 000018CB E8 FFFFF103                     	CALL	_boxFill8
  2909 000018D0 83 C4 38                        	ADD	ESP,56
  2910 000018D3 FF 75 14                        	PUSH	DWORD [20+EBP]
  2911 000018D6 0F BE 45 EF                     	MOVSX	EAX,BYTE [-17+EBP]
  2912 000018DA 50                              	PUSH	EAX
  2913 000018DB 6A 04                           	PUSH	4
  2914 000018DD 6A 18                           	PUSH	24
  2915 000018DF FF 75 0C                        	PUSH	DWORD [12+EBP]
  2916 000018E2 FF 75 08                        	PUSH	DWORD [8+EBP]
  2917 000018E5 E8 FFFFF34B                     	CALL	_putFont8_asc
  2918 000018EA 83 C4 18                        	ADD	ESP,24
  2919 000018ED 6B 5D 0C 05                     	IMUL	EBX,DWORD [12+EBP],5
  2920 000018F1 C7 45 F0 00000000               	MOV	DWORD [-16+EBP],0
  2921 000018F8                                 L474:
  2922 000018F8 8B 45 0C                        	MOV	EAX,DWORD [12+EBP]
  2923 000018FB 8B 55 08                        	MOV	EDX,DWORD [8+EBP]
  2924 000018FE 01 D8                           	ADD	EAX,EBX
  2925 00001900 31 F6                           	XOR	ESI,ESI
  2926 00001902 8D 4C 02 EB                     	LEA	ECX,DWORD [-21+EDX+EAX*1]
  2927 00001906                                 L473:
  2928 00001906 8A 94 3E [000001B6]             	MOV	DL,BYTE [_closeBtn.2+ESI+EDI*1]
  2929 0000190D 80 FA 40                        	CMP	DL,64
  2930 00001910 74 33                           	JE	L479
  2931 00001912 80 FA 24                        	CMP	DL,36
  2932 00001915 74 2A                           	JE	L480
  2933 00001917 80 FA 51                        	CMP	DL,81
  2934 0000191A B2 08                           	MOV	DL,8
  2935 0000191C 0F 95 C0                        	SETNE	AL
  2936 0000191F 28 C2                           	SUB	DL,AL
  2937 00001921                                 L468:
  2938 00001921 46                              	INC	ESI
  2939 00001922 88 11                           	MOV	BYTE [ECX],DL
  2940 00001924 41                              	INC	ECX
  2941 00001925 83 FE 0F                        	CMP	ESI,15
  2942 00001928 7E DC                           	JLE	L473
  2943 0000192A FF 45 F0                        	INC	DWORD [-16+EBP]
  2944 0000192D 83 C7 10                        	ADD	EDI,16
  2945 00001930 03 5D 0C                        	ADD	EBX,DWORD [12+EBP]
  2946 00001933 83 7D F0 0D                     	CMP	DWORD [-16+EBP],13
  2947 00001937 7E BF                           	JLE	L474
  2948 00001939 8D 65 F4                        	LEA	ESP,DWORD [-12+EBP]
  2949 0000193C 5B                              	POP	EBX
  2950 0000193D 5E                              	POP	ESI
  2951 0000193E 5F                              	POP	EDI
  2952 0000193F 5D                              	POP	EBP
  2953 00001940 C3                              	RET
  2954 00001941                                 L480:
  2955 00001941 B2 0F                           	MOV	DL,15
  2956 00001943 EB DC                           	JMP	L468
  2957 00001945                                 L479:
  2958 00001945 31 D2                           	XOR	EDX,EDX
  2959 00001947 EB D8                           	JMP	L468
  2960 00001949                                 L457:
  2961 00001949 C6 45 EF 08                     	MOV	BYTE [-17+EBP],8
  2962 0000194D C6 45 EE 0F                     	MOV	BYTE [-18+EBP],15
  2963 00001951 E9 FFFFFE7B                     	JMP	L458
  2964                                          [SECTION .data]
  2965 00000296                                 LC1:
  2966 00000296 70 72 6F 63 65 73 73 42 25 64   	DB	"processB%d",0x00
       000002A0 00 
  2967 000002A1                                 LC2:
  2968 000002A1 70 72 6F 63 65 73 73 41 00      	DB	"processA",0x00
  2969 000002AA                                 LC3:
  2970 000002AA 57 65 6C 63 6F 6D 65 20 74 6F   	DB	"Welcome to DickOS",0x00
       000002B4 20 44 69 63 6B 4F 53 00 
  2971 000002BC                                 LC4:
  2972 000002BC 28 25 33 64 2C 20 25 33 64 29   	DB	"(%3d, %3d)",0x00
       000002C6 00 
  2973 000002C7                                 LC5:
  2974 000002C7 6D 65 6D 6F 72 79 20 25 64 4D   	DB	"memory %dMB free : %dKB",0x00
       000002D1 42 20 66 72 65 65 20 3A 20 25 
       000002DB 64 4B 42 00 
  2975 000002DF                                 LC8:
  2976 000002DF 5B 6C 63 72 20 25 34 64 20 25   	DB	"[lcr %4d %4d]",0x00
       000002E9 34 64 5D 00 
  2977 000002ED                                 LC6:
  2978 000002ED 25 30 32 58 00                  	DB	"%02X",0x00
  2979 000002F2                                 LC7:
  2980 000002F2 20 00                           	DB	" ",0x00
  2981                                          [SECTION .text]
  2982 00001956                                 	GLOBAL	_Main
  2983 00001956                                 _Main:
  2984 00001956 55                              	PUSH	EBP
  2985 00001957 89 E5                           	MOV	EBP,ESP
  2986 00001959 57                              	PUSH	EDI
  2987 0000195A 56                              	PUSH	ESI
  2988 0000195B 31 F6                           	XOR	ESI,ESI
  2989 0000195D 53                              	PUSH	EBX
  2990 0000195E 8D 9D FFFFFC84                  	LEA	EBX,DWORD [-892+EBP]
  2991 00001964 81 EC 000003AC                  	SUB	ESP,940
  2992 0000196A E8 FFFFEED5                     	CALL	_initGdtit
  2993 0000196F E8 FFFFECDB                     	CALL	_init_pic
  2994 00001974 E8 [00000000]                   	CALL	_io_sti
  2995 00001979 8D 85 FFFFFDC4                  	LEA	EAX,DWORD [-572+EBP]
  2996 0000197F 6A 00                           	PUSH	0
  2997 00001981 50                              	PUSH	EAX
  2998 00001982 68 00000080                     	PUSH	128
  2999 00001987 53                              	PUSH	EBX
  3000 00001988 E8 FFFFE673                     	CALL	_QueueInit
  3001 0000198D E8 FFFFE859                     	CALL	_initPit
  3002 00001992 68 00000100                     	PUSH	256
  3003 00001997 53                              	PUSH	EBX
  3004 00001998 E8 FFFFE736                     	CALL	_initKeyboard
  3005 0000199D 8D 85 FFFFFDB4                  	LEA	EAX,DWORD [-588+EBP]
  3006 000019A3 50                              	PUSH	EAX
  3007 000019A4 68 00000200                     	PUSH	512
  3008 000019A9 53                              	PUSH	EBX
  3009 000019AA E8 FFFFE760                     	CALL	_enableMouse
  3010 000019AF 83 C4 24                        	ADD	ESP,36
  3011 000019B2 68 000000F8                     	PUSH	248
  3012 000019B7 6A 21                           	PUSH	33
  3013 000019B9 E8 [00000000]                   	CALL	_io_out8
  3014 000019BE 68 000000EF                     	PUSH	239
  3015 000019C3 68 000000A1                     	PUSH	161
  3016 000019C8 E8 [00000000]                   	CALL	_io_out8
  3017 000019CD E8 FFFFE888                     	CALL	_timerAlloc
  3018 000019D2 6A 01                           	PUSH	1
  3019 000019D4 53                              	PUSH	EBX
  3020 000019D5 50                              	PUSH	EAX
  3021 000019D6 89 85 FFFFFC54                  	MOV	DWORD [-940+EBP],EAX
  3022 000019DC E8 FFFFE8B1                     	CALL	_timerInit
  3023 000019E1 6A 32                           	PUSH	50
  3024 000019E3 FF B5 FFFFFC54                  	PUSH	DWORD [-940+EBP]
  3025 000019E9 E8 FFFFE8B8                     	CALL	_timerSetTime
  3026 000019EE 83 C4 24                        	ADD	ESP,36
  3027 000019F1 68 BFFFFFFF                     	PUSH	-1073741825
  3028 000019F6 68 00400000                     	PUSH	4194304
  3029 000019FB E8 FFFFF3BE                     	CALL	_memtest
  3030 00001A00 68 003C0000                     	PUSH	3932160
  3031 00001A05 89 C3                           	MOV	EBX,EAX
  3032 00001A07 E8 FFFFF44E                     	CALL	_memsegInit
  3033 00001A0C 68 0009E000                     	PUSH	647168
  3034 00001A11 68 00001000                     	PUSH	4096
  3035 00001A16 68 003C0000                     	PUSH	3932160
  3036 00001A1B E8 FFFFF4C0                     	CALL	_memsegFree
  3037 00001A20 8D 83 FFC00000                  	LEA	EAX,DWORD [-4194304+EBX]
  3038 00001A26 50                              	PUSH	EAX
  3039 00001A27 68 00400000                     	PUSH	4194304
  3040 00001A2C 68 003C0000                     	PUSH	3932160
  3041 00001A31 E8 FFFFF4AA                     	CALL	_memsegFree
  3042 00001A36 83 C4 24                        	ADD	ESP,36
  3043 00001A39 E8 FFFFEF82                     	CALL	_init_palette
  3044 00001A3E 0F BF 05 00000FF6               	MOVSX	EAX,WORD [4086]
  3045 00001A45 50                              	PUSH	EAX
  3046 00001A46 0F BF 05 00000FF4               	MOVSX	EAX,WORD [4084]
  3047 00001A4D 50                              	PUSH	EAX
  3048 00001A4E FF 35 00000FF8                  	PUSH	DWORD [4088]
  3049 00001A54 68 003C0000                     	PUSH	3932160
  3050 00001A59 E8 FFFFF59A                     	CALL	_shtctlInit
  3051 00001A5E 68 003C0000                     	PUSH	3932160
  3052 00001A63 89 85 FFFFFC60                  	MOV	DWORD [-928+EBP],EAX
  3053 00001A69 E8 FFFFE967                     	CALL	_processInit
  3054 00001A6E 6A 00                           	PUSH	0
  3055 00001A70 6A 01                           	PUSH	1
  3056 00001A72 89 85 FFFFFC50                  	MOV	DWORD [-944+EBP],EAX
  3057 00001A78 50                              	PUSH	EAX
  3058 00001A79 89 85 FFFFFC9C                  	MOV	DWORD [-868+EBP],EAX
  3059 00001A7F E8 FFFFEABD                     	CALL	_processRun
  3060 00001A84 83 C4 20                        	ADD	ESP,32
  3061 00001A87 FF B5 FFFFFC60                  	PUSH	DWORD [-928+EBP]
  3062 00001A8D E8 FFFFF5E9                     	CALL	_sheetAlloc
  3063 00001A92 0F BF 15 00000FF6               	MOVSX	EDX,WORD [4086]
  3064 00001A99 89 85 FFFFFC5C                  	MOV	DWORD [-932+EBP],EAX
  3065 00001A9F 0F BF 05 00000FF4               	MOVSX	EAX,WORD [4084]
  3066 00001AA6 0F AF C2                        	IMUL	EAX,EDX
  3067 00001AA9 50                              	PUSH	EAX
  3068 00001AAA 68 003C0000                     	PUSH	3932160
  3069 00001AAF E8 FFFFF512                     	CALL	_memsegAlloc4K
  3070 00001AB4 6A FF                           	PUSH	-1
  3071 00001AB6 89 C3                           	MOV	EBX,EAX
  3072 00001AB8 0F BF 05 00000FF6               	MOVSX	EAX,WORD [4086]
  3073 00001ABF 50                              	PUSH	EAX
  3074 00001AC0 0F BF 05 00000FF4               	MOVSX	EAX,WORD [4084]
  3075 00001AC7 50                              	PUSH	EAX
  3076 00001AC8 53                              	PUSH	EBX
  3077 00001AC9 FF B5 FFFFFC5C                  	PUSH	DWORD [-932+EBP]
  3078 00001ACF E8 FFFFF5DA                     	CALL	_sheetSetbuf
  3079 00001AD4 83 C4 20                        	ADD	ESP,32
  3080 00001AD7 0F BF 05 00000FF6               	MOVSX	EAX,WORD [4086]
  3081 00001ADE 50                              	PUSH	EAX
  3082 00001ADF 0F BF 05 00000FF4               	MOVSX	EAX,WORD [4084]
  3083 00001AE6 50                              	PUSH	EAX
  3084 00001AE7 53                              	PUSH	EBX
  3085 00001AE8 E8 FFFFEF37                     	CALL	_init_GUI
  3086 00001AED 83 C4 0C                        	ADD	ESP,12
  3087 00001AF0                                 L486:
  3088 00001AF0 FF B5 FFFFFC60                  	PUSH	DWORD [-928+EBP]
  3089 00001AF6 E8 FFFFF580                     	CALL	_sheetAlloc
  3090 00001AFB 68 00001D40                     	PUSH	7488
  3091 00001B00 68 003C0000                     	PUSH	3932160
  3092 00001B05 89 84 B5 FFFFFDA4               	MOV	DWORD [-604+EBP+ESI*4],EAX
  3093 00001B0C E8 FFFFF4B5                     	CALL	_memsegAlloc4K
  3094 00001B11 6A FF                           	PUSH	-1
  3095 00001B13 89 C3                           	MOV	EBX,EAX
  3096 00001B15 6A 34                           	PUSH	52
  3097 00001B17 68 00000090                     	PUSH	144
  3098 00001B1C 50                              	PUSH	EAX
  3099 00001B1D FF B4 B5 FFFFFDA4               	PUSH	DWORD [-604+EBP+ESI*4]
  3100 00001B24 E8 FFFFF585                     	CALL	_sheetSetbuf
  3101 00001B29 8D 45 C4                        	LEA	EAX,DWORD [-60+EBP]
  3102 00001B2C 83 C4 20                        	ADD	ESP,32
  3103 00001B2F 56                              	PUSH	ESI
  3104 00001B30 68 [00000296]                   	PUSH	LC1
  3105 00001B35 50                              	PUSH	EAX
  3106 00001B36 E8 [00000000]                   	CALL	_sprintf
  3107 00001B3B 8D 55 C4                        	LEA	EDX,DWORD [-60+EBP]
  3108 00001B3E 6A 00                           	PUSH	0
  3109 00001B40 52                              	PUSH	EDX
  3110 00001B41 6A 34                           	PUSH	52
  3111 00001B43 68 00000090                     	PUSH	144
  3112 00001B48 53                              	PUSH	EBX
  3113 00001B49 E8 FFFFFC68                     	CALL	_makeWindow
  3114 00001B4E 83 C4 20                        	ADD	ESP,32
  3115 00001B51 E8 FFFFE953                     	CALL	_processAlloc
  3116 00001B56 68 00010000                     	PUSH	65536
  3117 00001B5B 89 C3                           	MOV	EBX,EAX
  3118 00001B5D 68 003C0000                     	PUSH	3932160
  3119 00001B62 89 84 B5 FFFFFC74               	MOV	DWORD [-908+EBP+ESI*4],EAX
  3120 00001B69 E8 FFFFF458                     	CALL	_memsegAlloc4K
  3121 00001B6E 05 0000FFF8                     	ADD	EAX,65528
  3122 00001B73 89 43 48                        	MOV	DWORD [72+EBX],EAX
  3123 00001B76 8B 9C B5 FFFFFDA4               	MOV	EBX,DWORD [-604+EBP+ESI*4]
  3124 00001B7D 8B 84 B5 FFFFFC74               	MOV	EAX,DWORD [-908+EBP+ESI*4]
  3125 00001B84 8B 48 48                        	MOV	ECX,DWORD [72+EAX]
  3126 00001B87 89 59 04                        	MOV	DWORD [4+ECX],EBX
  3127 00001B8A 8D 5E 01                        	LEA	EBX,DWORD [1+ESI]
  3128 00001B8D C7 40 30 [000015C6]             	MOV	DWORD [48+EAX],_taskBmain
  3129 00001B94 C7 40 58 00000008               	MOV	DWORD [88+EAX],8
  3130 00001B9B C7 40 5C 00000010               	MOV	DWORD [92+EAX],16
  3131 00001BA2 C7 40 60 00000008               	MOV	DWORD [96+EAX],8
  3132 00001BA9 C7 40 64 00000008               	MOV	DWORD [100+EAX],8
  3133 00001BB0 C7 40 68 00000008               	MOV	DWORD [104+EAX],8
  3134 00001BB7 C7 40 6C 00000008               	MOV	DWORD [108+EAX],8
  3135 00001BBE 53                              	PUSH	EBX
  3136 00001BBF 89 DE                           	MOV	ESI,EBX
  3137 00001BC1 6A 02                           	PUSH	2
  3138 00001BC3 50                              	PUSH	EAX
  3139 00001BC4 E8 FFFFE978                     	CALL	_processRun
  3140 00001BC9 83 C4 14                        	ADD	ESP,20
  3141 00001BCC 83 FB 02                        	CMP	EBX,2
  3142 00001BCF 0F 8E FFFFFF1B                  	JLE	L486
  3143 00001BD5 FF B5 FFFFFC60                  	PUSH	DWORD [-928+EBP]
  3144 00001BDB E8 FFFFF49B                     	CALL	_sheetAlloc
  3145 00001BE0 68 00002080                     	PUSH	8320
  3146 00001BE5 68 003C0000                     	PUSH	3932160
  3147 00001BEA 89 C7                           	MOV	EDI,EAX
  3148 00001BEC E8 FFFFF3D5                     	CALL	_memsegAlloc4K
  3149 00001BF1 6A FF                           	PUSH	-1
  3150 00001BF3 6A 34                           	PUSH	52
  3151 00001BF5 89 C3                           	MOV	EBX,EAX
  3152 00001BF7 68 00000090                     	PUSH	144
  3153 00001BFC 50                              	PUSH	EAX
  3154 00001BFD 57                              	PUSH	EDI
  3155 00001BFE E8 FFFFF4AB                     	CALL	_sheetSetbuf
  3156 00001C03 83 C4 20                        	ADD	ESP,32
  3157 00001C06 6A 01                           	PUSH	1
  3158 00001C08 68 [000002A1]                   	PUSH	LC2
  3159 00001C0D 6A 34                           	PUSH	52
  3160 00001C0F 68 00000090                     	PUSH	144
  3161 00001C14 53                              	PUSH	EBX
  3162 00001C15 8D 9D FFFFFCA4                  	LEA	EBX,DWORD [-860+EBP]
  3163 00001C1B E8 FFFFFB96                     	CALL	_makeWindow
  3164 00001C20 6A 07                           	PUSH	7
  3165 00001C22 6A 10                           	PUSH	16
  3166 00001C24 68 00000080                     	PUSH	128
  3167 00001C29 6A 1C                           	PUSH	28
  3168 00001C2B 6A 08                           	PUSH	8
  3169 00001C2D 57                              	PUSH	EDI
  3170 00001C2E E8 FFFFFA4D                     	CALL	_makeTextBox
  3171 00001C33 83 C4 2C                        	ADD	ESP,44
  3172 00001C36 FF B5 FFFFFC60                  	PUSH	DWORD [-928+EBP]
  3173 00001C3C C7 85 FFFFFC68 00000008         	MOV	DWORD [-920+EBP],8
  3174 00001C46 C7 85 FFFFFC64 00000007         	MOV	DWORD [-924+EBP],7
  3175 00001C50 E8 FFFFF426                     	CALL	_sheetAlloc
  3176 00001C55 6A 0E                           	PUSH	14
  3177 00001C57 6A 10                           	PUSH	16
  3178 00001C59 6A 10                           	PUSH	16
  3179 00001C5B 89 85 FFFFFC58                  	MOV	DWORD [-936+EBP],EAX
  3180 00001C61 53                              	PUSH	EBX
  3181 00001C62 50                              	PUSH	EAX
  3182 00001C63 E8 FFFFF446                     	CALL	_sheetSetbuf
  3183 00001C68 6A 0E                           	PUSH	14
  3184 00001C6A 53                              	PUSH	EBX
  3185 00001C6B BB 00000002                     	MOV	EBX,2
  3186 00001C70 E8 FFFFF096                     	CALL	_initMouseCursor8
  3187 00001C75 83 C4 20                        	ADD	ESP,32
  3188 00001C78 0F BF 05 00000FF4               	MOVSX	EAX,WORD [4084]
  3189 00001C7F 8D 48 F0                        	LEA	ECX,DWORD [-16+EAX]
  3190 00001C82 89 C8                           	MOV	EAX,ECX
  3191 00001C84 99                              	CDQ
  3192 00001C85 F7 FB                           	IDIV	EBX
  3193 00001C87 89 85 FFFFFC70                  	MOV	DWORD [-912+EBP],EAX
  3194 00001C8D 0F BF 05 00000FF6               	MOVSX	EAX,WORD [4086]
  3195 00001C94 6A 00                           	PUSH	0
  3196 00001C96 8D 48 D4                        	LEA	ECX,DWORD [-44+EAX]
  3197 00001C99 6A 00                           	PUSH	0
  3198 00001C9B 89 C8                           	MOV	EAX,ECX
  3199 00001C9D 99                              	CDQ
  3200 00001C9E F7 FB                           	IDIV	EBX
  3201 00001CA0 FF B5 FFFFFC5C                  	PUSH	DWORD [-932+EBP]
  3202 00001CA6 89 85 FFFFFC6C                  	MOV	DWORD [-916+EBP],EAX
  3203 00001CAC 8D 5D C4                        	LEA	EBX,DWORD [-60+EBP]
  3204 00001CAF E8 FFFFF852                     	CALL	_sheetSlide
  3205 00001CB4 6A 40                           	PUSH	64
  3206 00001CB6 68 000000A8                     	PUSH	168
  3207 00001CBB FF B5 FFFFFDA4                  	PUSH	DWORD [-604+EBP]
  3208 00001CC1 E8 FFFFF840                     	CALL	_sheetSlide
  3209 00001CC6 6A 7C                           	PUSH	124
  3210 00001CC8 6A 08                           	PUSH	8
  3211 00001CCA FF B5 FFFFFDA8                  	PUSH	DWORD [-600+EBP]
  3212 00001CD0 E8 FFFFF831                     	CALL	_sheetSlide
  3213 00001CD5 83 C4 24                        	ADD	ESP,36
  3214 00001CD8 6A 7C                           	PUSH	124
  3215 00001CDA 68 000000A8                     	PUSH	168
  3216 00001CDF FF B5 FFFFFDAC                  	PUSH	DWORD [-596+EBP]
  3217 00001CE5 E8 FFFFF81C                     	CALL	_sheetSlide
  3218 00001CEA 6A 40                           	PUSH	64
  3219 00001CEC 6A 08                           	PUSH	8
  3220 00001CEE 57                              	PUSH	EDI
  3221 00001CEF E8 FFFFF812                     	CALL	_sheetSlide
  3222 00001CF4 FF B5 FFFFFC6C                  	PUSH	DWORD [-916+EBP]
  3223 00001CFA FF B5 FFFFFC70                  	PUSH	DWORD [-912+EBP]
  3224 00001D00 FF B5 FFFFFC58                  	PUSH	DWORD [-936+EBP]
  3225 00001D06 E8 FFFFF7FB                     	CALL	_sheetSlide
  3226 00001D0B 83 C4 24                        	ADD	ESP,36
  3227 00001D0E 6A 00                           	PUSH	0
  3228 00001D10 FF B5 FFFFFC5C                  	PUSH	DWORD [-932+EBP]
  3229 00001D16 E8 FFFFF50F                     	CALL	_sheetUpdown
  3230 00001D1B 6A 01                           	PUSH	1
  3231 00001D1D FF B5 FFFFFDA4                  	PUSH	DWORD [-604+EBP]
  3232 00001D23 E8 FFFFF502                     	CALL	_sheetUpdown
  3233 00001D28 6A 02                           	PUSH	2
  3234 00001D2A FF B5 FFFFFDA8                  	PUSH	DWORD [-600+EBP]
  3235 00001D30 E8 FFFFF4F5                     	CALL	_sheetUpdown
  3236 00001D35 6A 03                           	PUSH	3
  3237 00001D37 FF B5 FFFFFDAC                  	PUSH	DWORD [-596+EBP]
  3238 00001D3D E8 FFFFF4E8                     	CALL	_sheetUpdown
  3239 00001D42 83 C4 20                        	ADD	ESP,32
  3240 00001D45 6A 04                           	PUSH	4
  3241 00001D47 57                              	PUSH	EDI
  3242 00001D48 E8 FFFFF4DD                     	CALL	_sheetUpdown
  3243 00001D4D 6A 05                           	PUSH	5
  3244 00001D4F FF B5 FFFFFC58                  	PUSH	DWORD [-936+EBP]
  3245 00001D55 E8 FFFFF4D0                     	CALL	_sheetUpdown
  3246 00001D5A 6A 11                           	PUSH	17
  3247 00001D5C 68 [000002AA]                   	PUSH	LC3
  3248 00001D61 6A 0E                           	PUSH	14
  3249 00001D63 6A 07                           	PUSH	7
  3250 00001D65 6A 20                           	PUSH	32
  3251 00001D67 6A 00                           	PUSH	0
  3252 00001D69 FF B5 FFFFFC5C                  	PUSH	DWORD [-932+EBP]
  3253 00001D6F E8 FFFFEF10                     	CALL	_putFont8AscSheet
  3254 00001D74 83 C4 2C                        	ADD	ESP,44
  3255 00001D77 FF B5 FFFFFC6C                  	PUSH	DWORD [-916+EBP]
  3256 00001D7D FF B5 FFFFFC70                  	PUSH	DWORD [-912+EBP]
  3257 00001D83 68 [000002BC]                   	PUSH	LC4
  3258 00001D88 53                              	PUSH	EBX
  3259 00001D89 E8 [00000000]                   	CALL	_sprintf
  3260 00001D8E 6A 0A                           	PUSH	10
  3261 00001D90 53                              	PUSH	EBX
  3262 00001D91 6A 0E                           	PUSH	14
  3263 00001D93 6A 07                           	PUSH	7
  3264 00001D95 6A 00                           	PUSH	0
  3265 00001D97 6A 00                           	PUSH	0
  3266 00001D99 FF B5 FFFFFC5C                  	PUSH	DWORD [-932+EBP]
  3267 00001D9F E8 FFFFEEE0                     	CALL	_putFont8AscSheet
  3268 00001DA4 83 C4 2C                        	ADD	ESP,44
  3269 00001DA7 68 003C0000                     	PUSH	3932160
  3270 00001DAC E8 FFFFF08C                     	CALL	_memsegTotal
  3271 00001DB1 C1 E8 0A                        	SHR	EAX,10
  3272 00001DB4 89 04 24                        	MOV	DWORD [ESP],EAX
  3273 00001DB7 68 BFFFFFFF                     	PUSH	-1073741825
  3274 00001DBC 68 00400000                     	PUSH	4194304
  3275 00001DC1 E8 FFFFEFF8                     	CALL	_memtest
  3276 00001DC6 5E                              	POP	ESI
  3277 00001DC7 C1 E8 14                        	SHR	EAX,20
  3278 00001DCA 5A                              	POP	EDX
  3279 00001DCB 50                              	PUSH	EAX
  3280 00001DCC 68 [000002C7]                   	PUSH	LC5
  3281 00001DD1 53                              	PUSH	EBX
  3282 00001DD2 E8 [00000000]                   	CALL	_sprintf
  3283 00001DD7 6A 1A                           	PUSH	26
  3284 00001DD9 53                              	PUSH	EBX
  3285 00001DDA 6A 0E                           	PUSH	14
  3286 00001DDC 6A 07                           	PUSH	7
  3287 00001DDE 6A 30                           	PUSH	48
  3288 00001DE0 6A 00                           	PUSH	0
  3289 00001DE2 FF B5 FFFFFC5C                  	PUSH	DWORD [-932+EBP]
  3290 00001DE8 E8 FFFFEE97                     	CALL	_putFont8AscSheet
  3291 00001DED 83 C4 2C                        	ADD	ESP,44
  3292 00001DF0                                 L487:
  3293 00001DF0 8D B5 FFFFFC84                  	LEA	ESI,DWORD [-892+EBP]
  3294 00001DF6 E8 [00000000]                   	CALL	_io_cli
  3295 00001DFB 56                              	PUSH	ESI
  3296 00001DFC E8 FFFFE2B2                     	CALL	_QueueSize
  3297 00001E01 5B                              	POP	EBX
  3298 00001E02 85 C0                           	TEST	EAX,EAX
  3299 00001E04 0F 84 00000302                  	JE	L513
  3300 00001E0A 56                              	PUSH	ESI
  3301 00001E0B E8 FFFFE271                     	CALL	_QueuePop
  3302 00001E10 89 C3                           	MOV	EBX,EAX
  3303 00001E12 E8 [00000000]                   	CALL	_io_sti
  3304 00001E17 5A                              	POP	EDX
  3305 00001E18 8D 83 FFFFFF00                  	LEA	EAX,DWORD [-256+EBX]
  3306 00001E1E 3D 000000FF                     	CMP	EAX,255
  3307 00001E23 0F 86 000001FB                  	JBE	L514
  3308 00001E29 8D 83 FFFFFE00                  	LEA	EAX,DWORD [-512+EBX]
  3309 00001E2F 3D 000000FF                     	CMP	EAX,255
  3310 00001E34 0F 86 00000093                  	JBE	L515
  3311 00001E3A 83 FB 01                        	CMP	EBX,1
  3312 00001E3D 7F B1                           	JG	L487
  3313 00001E3F 4B                              	DEC	EBX
  3314 00001E40 74 71                           	JE	L516
  3315 00001E42 6A 01                           	PUSH	1
  3316 00001E44 56                              	PUSH	ESI
  3317 00001E45 FF B5 FFFFFC54                  	PUSH	DWORD [-940+EBP]
  3318 00001E4B E8 FFFFE442                     	CALL	_timerInit
  3319 00001E50 C7 85 FFFFFC64 00000007         	MOV	DWORD [-924+EBP],7
  3320 00001E5A                                 L512:
  3321 00001E5A 83 C4 0C                        	ADD	ESP,12
  3322 00001E5D 8B 85 FFFFFC68                  	MOV	EAX,DWORD [-920+EBP]
  3323 00001E63 83 C0 07                        	ADD	EAX,7
  3324 00001E66 6A 2B                           	PUSH	43
  3325 00001E68 50                              	PUSH	EAX
  3326 00001E69 6A 1C                           	PUSH	28
  3327 00001E6B FF B5 FFFFFC68                  	PUSH	DWORD [-920+EBP]
  3328 00001E71 FF B5 FFFFFC64                  	PUSH	DWORD [-924+EBP]
  3329 00001E77 FF 77 04                        	PUSH	DWORD [4+EDI]
  3330 00001E7A FF 37                           	PUSH	DWORD [EDI]
  3331 00001E7C E8 FFFFEB52                     	CALL	_boxFill8
  3332 00001E81 6A 32                           	PUSH	50
  3333 00001E83 FF B5 FFFFFC54                  	PUSH	DWORD [-940+EBP]
  3334 00001E89 E8 FFFFE418                     	CALL	_timerSetTime
  3335 00001E8E 8B 85 FFFFFC68                  	MOV	EAX,DWORD [-920+EBP]
  3336 00001E94 83 C4 24                        	ADD	ESP,36
  3337 00001E97 83 C0 08                        	ADD	EAX,8
  3338 00001E9A 6A 2C                           	PUSH	44
  3339 00001E9C 50                              	PUSH	EAX
  3340 00001E9D 6A 1C                           	PUSH	28
  3341 00001E9F FF B5 FFFFFC68                  	PUSH	DWORD [-920+EBP]
  3342 00001EA5 57                              	PUSH	EDI
  3343 00001EA6 E8 FFFFF4BB                     	CALL	_sheetRefresh
  3344 00001EAB 83 C4 14                        	ADD	ESP,20
  3345 00001EAE E9 FFFFFF3D                     	JMP	L487
  3346 00001EB3                                 L516:
  3347 00001EB3 6A 00                           	PUSH	0
  3348 00001EB5 56                              	PUSH	ESI
  3349 00001EB6 FF B5 FFFFFC54                  	PUSH	DWORD [-940+EBP]
  3350 00001EBC E8 FFFFE3D1                     	CALL	_timerInit
  3351 00001EC1 C7 85 FFFFFC64 00000000         	MOV	DWORD [-924+EBP],0
  3352 00001ECB EB 8D                           	JMP	L512
  3353 00001ECD                                 L515:
  3354 00001ECD 0F B6 C3                        	MOVZX	EAX,BL
  3355 00001ED0 50                              	PUSH	EAX
  3356 00001ED1 8D 85 FFFFFDB4                  	LEA	EAX,DWORD [-588+EBP]
  3357 00001ED7 50                              	PUSH	EAX
  3358 00001ED8 E8 FFFFE270                     	CALL	_mouseDecode
  3359 00001EDD 59                              	POP	ECX
  3360 00001EDE 5B                              	POP	EBX
  3361 00001EDF 85 C0                           	TEST	EAX,EAX
  3362 00001EE1 0F 84 FFFFFF09                  	JE	L487
  3363 00001EE7 FF B5 FFFFFDBC                  	PUSH	DWORD [-580+EBP]
  3364 00001EED FF B5 FFFFFDB8                  	PUSH	DWORD [-584+EBP]
  3365 00001EF3 68 [000002DF]                   	PUSH	LC8
  3366 00001EF8 8D 5D C4                        	LEA	EBX,DWORD [-60+EBP]
  3367 00001EFB 53                              	PUSH	EBX
  3368 00001EFC E8 [00000000]                   	CALL	_sprintf
  3369 00001F01 83 C4 10                        	ADD	ESP,16
  3370 00001F04 F7 85 FFFFFDC0 00000001         	TEST	DWORD [-576+EBP],1
  3371 00001F0E 74 21                           	JE	L499
  3372 00001F10 8B 85 FFFFFC6C                  	MOV	EAX,DWORD [-916+EBP]
  3373 00001F16 83 E8 08                        	SUB	EAX,8
  3374 00001F19 50                              	PUSH	EAX
  3375 00001F1A 8B 85 FFFFFC70                  	MOV	EAX,DWORD [-912+EBP]
  3376 00001F20 83 E8 50                        	SUB	EAX,80
  3377 00001F23 50                              	PUSH	EAX
  3378 00001F24 57                              	PUSH	EDI
  3379 00001F25 C6 45 C5 4C                     	MOV	BYTE [-59+EBP],76
  3380 00001F29 E8 FFFFF5D8                     	CALL	_sheetSlide
  3381 00001F2E 83 C4 0C                        	ADD	ESP,12
  3382 00001F31                                 L499:
  3383 00001F31 8B 85 FFFFFDC0                  	MOV	EAX,DWORD [-576+EBP]
  3384 00001F37 A9 00000002                     	TEST	EAX,2
  3385 00001F3C 74 04                           	JE	L500
  3386 00001F3E C6 45 C7 52                     	MOV	BYTE [-57+EBP],82
  3387 00001F42                                 L500:
  3388 00001F42 83 E0 04                        	AND	EAX,4
  3389 00001F45 74 04                           	JE	L501
  3390 00001F47 C6 45 C6 43                     	MOV	BYTE [-58+EBP],67
  3391 00001F4B                                 L501:
  3392 00001F4B 6A 0F                           	PUSH	15
  3393 00001F4D 53                              	PUSH	EBX
  3394 00001F4E 6A 0E                           	PUSH	14
  3395 00001F50 6A 07                           	PUSH	7
  3396 00001F52 6A 10                           	PUSH	16
  3397 00001F54 6A 20                           	PUSH	32
  3398 00001F56 FF B5 FFFFFC5C                  	PUSH	DWORD [-932+EBP]
  3399 00001F5C E8 FFFFED23                     	CALL	_putFont8AscSheet
  3400 00001F61 8B 95 FFFFFDB8                  	MOV	EDX,DWORD [-584+EBP]
  3401 00001F67 8B 85 FFFFFDBC                  	MOV	EAX,DWORD [-580+EBP]
  3402 00001F6D 83 C4 1C                        	ADD	ESP,28
  3403 00001F70 01 85 FFFFFC6C                  	ADD	DWORD [-916+EBP],EAX
  3404 00001F76 01 95 FFFFFC70                  	ADD	DWORD [-912+EBP],EDX
  3405 00001F7C 0F 88 00000093                  	JS	L517
  3406 00001F82                                 L502:
  3407 00001F82 83 BD FFFFFC6C 00               	CMP	DWORD [-916+EBP],0
  3408 00001F89 78 7B                           	JS	L518
  3409 00001F8B                                 L503:
  3410 00001F8B 0F BF 05 00000FF4               	MOVSX	EAX,WORD [4084]
  3411 00001F92 48                              	DEC	EAX
  3412 00001F93 39 85 FFFFFC70                  	CMP	DWORD [-912+EBP],EAX
  3413 00001F99 7E 06                           	JLE	L504
  3414 00001F9B 89 85 FFFFFC70                  	MOV	DWORD [-912+EBP],EAX
  3415 00001FA1                                 L504:
  3416 00001FA1 0F BF 05 00000FF6               	MOVSX	EAX,WORD [4086]
  3417 00001FA8 48                              	DEC	EAX
  3418 00001FA9 39 85 FFFFFC6C                  	CMP	DWORD [-916+EBP],EAX
  3419 00001FAF 7E 06                           	JLE	L505
  3420 00001FB1 89 85 FFFFFC6C                  	MOV	DWORD [-916+EBP],EAX
  3421 00001FB7                                 L505:
  3422 00001FB7 FF B5 FFFFFC6C                  	PUSH	DWORD [-916+EBP]
  3423 00001FBD FF B5 FFFFFC70                  	PUSH	DWORD [-912+EBP]
  3424 00001FC3 68 [000002BC]                   	PUSH	LC4
  3425 00001FC8 53                              	PUSH	EBX
  3426 00001FC9 E8 [00000000]                   	CALL	_sprintf
  3427 00001FCE 6A 0A                           	PUSH	10
  3428 00001FD0 53                              	PUSH	EBX
  3429 00001FD1 6A 0E                           	PUSH	14
  3430 00001FD3 6A 07                           	PUSH	7
  3431 00001FD5 6A 00                           	PUSH	0
  3432 00001FD7 6A 00                           	PUSH	0
  3433 00001FD9 FF B5 FFFFFC5C                  	PUSH	DWORD [-932+EBP]
  3434 00001FDF E8 FFFFECA0                     	CALL	_putFont8AscSheet
  3435 00001FE4 83 C4 2C                        	ADD	ESP,44
  3436 00001FE7 FF B5 FFFFFC6C                  	PUSH	DWORD [-916+EBP]
  3437 00001FED FF B5 FFFFFC70                  	PUSH	DWORD [-912+EBP]
  3438 00001FF3 FF B5 FFFFFC58                  	PUSH	DWORD [-936+EBP]
  3439 00001FF9 E8 FFFFF508                     	CALL	_sheetSlide
  3440 00001FFE 83 C4 0C                        	ADD	ESP,12
  3441 00002001 E9 FFFFFDEA                     	JMP	L487
  3442 00002006                                 L518:
  3443 00002006 C7 85 FFFFFC6C 00000000         	MOV	DWORD [-916+EBP],0
  3444 00002010 E9 FFFFFF76                     	JMP	L503
  3445 00002015                                 L517:
  3446 00002015 C7 85 FFFFFC70 00000000         	MOV	DWORD [-912+EBP],0
  3447 0000201F E9 FFFFFF5E                     	JMP	L502
  3448 00002024                                 L514:
  3449 00002024 50                              	PUSH	EAX
  3450 00002025 8D 75 C4                        	LEA	ESI,DWORD [-60+EBP]
  3451 00002028 68 [000002ED]                   	PUSH	LC6
  3452 0000202D 56                              	PUSH	ESI
  3453 0000202E E8 [00000000]                   	CALL	_sprintf
  3454 00002033 6A 02                           	PUSH	2
  3455 00002035 56                              	PUSH	ESI
  3456 00002036 6A 0E                           	PUSH	14
  3457 00002038 6A 07                           	PUSH	7
  3458 0000203A 6A 10                           	PUSH	16
  3459 0000203C 6A 00                           	PUSH	0
  3460 0000203E FF B5 FFFFFC5C                  	PUSH	DWORD [-932+EBP]
  3461 00002044 E8 FFFFEC3B                     	CALL	_putFont8AscSheet
  3462 00002049 83 C4 28                        	ADD	ESP,40
  3463 0000204C 81 FB 0000017F                  	CMP	EBX,383
  3464 00002052 7F 3C                           	JG	L493
  3465 00002054 8A 83 [FFFFFF00]                	MOV	AL,BYTE [_keyboardTable-256+EBX]
  3466 0000205A 84 C0                           	TEST	AL,AL
  3467 0000205C 74 32                           	JE	L493
  3468 0000205E 81 BD FFFFFC68 0000008F         	CMP	DWORD [-920+EBP],143
  3469 00002068 7F 26                           	JG	L493
  3470 0000206A 6A 01                           	PUSH	1
  3471 0000206C 88 45 C4                        	MOV	BYTE [-60+EBP],AL
  3472 0000206F 56                              	PUSH	ESI
  3473 00002070 6A 07                           	PUSH	7
  3474 00002072 6A 00                           	PUSH	0
  3475 00002074 6A 1C                           	PUSH	28
  3476 00002076 FF B5 FFFFFC68                  	PUSH	DWORD [-920+EBP]
  3477 0000207C 57                              	PUSH	EDI
  3478 0000207D C6 45 C5 00                     	MOV	BYTE [-59+EBP],0
  3479 00002081 E8 FFFFEBFE                     	CALL	_putFont8AscSheet
  3480 00002086 83 C4 1C                        	ADD	ESP,28
  3481 00002089 83 85 FFFFFC68 08               	ADD	DWORD [-920+EBP],8
  3482 00002090                                 L493:
  3483 00002090 81 FB 0000010E                  	CMP	EBX,270
  3484 00002096 74 46                           	JE	L519
  3485 00002098                                 L495:
  3486 00002098 8B 85 FFFFFC68                  	MOV	EAX,DWORD [-920+EBP]
  3487 0000209E 6A 2B                           	PUSH	43
  3488 000020A0 83 C0 07                        	ADD	EAX,7
  3489 000020A3 50                              	PUSH	EAX
  3490 000020A4 6A 1C                           	PUSH	28
  3491 000020A6 FF B5 FFFFFC68                  	PUSH	DWORD [-920+EBP]
  3492 000020AC FF B5 FFFFFC64                  	PUSH	DWORD [-924+EBP]
  3493 000020B2 FF 77 04                        	PUSH	DWORD [4+EDI]
  3494 000020B5 FF 37                           	PUSH	DWORD [EDI]
  3495 000020B7 E8 FFFFE917                     	CALL	_boxFill8
  3496 000020BC 8B 85 FFFFFC68                  	MOV	EAX,DWORD [-920+EBP]
  3497 000020C2 6A 2C                           	PUSH	44
  3498 000020C4 83 C0 08                        	ADD	EAX,8
  3499 000020C7 50                              	PUSH	EAX
  3500 000020C8 6A 1C                           	PUSH	28
  3501 000020CA FF B5 FFFFFC68                  	PUSH	DWORD [-920+EBP]
  3502 000020D0 57                              	PUSH	EDI
  3503 000020D1 E8 FFFFF290                     	CALL	_sheetRefresh
  3504 000020D6 83 C4 30                        	ADD	ESP,48
  3505 000020D9 E9 FFFFFD12                     	JMP	L487
  3506 000020DE                                 L519:
  3507 000020DE 83 BD FFFFFC68 08               	CMP	DWORD [-920+EBP],8
  3508 000020E5 7E B1                           	JLE	L495
  3509 000020E7 6A 01                           	PUSH	1
  3510 000020E9 68 [000002F2]                   	PUSH	LC7
  3511 000020EE 6A 07                           	PUSH	7
  3512 000020F0 6A 00                           	PUSH	0
  3513 000020F2 6A 1C                           	PUSH	28
  3514 000020F4 FF B5 FFFFFC68                  	PUSH	DWORD [-920+EBP]
  3515 000020FA 57                              	PUSH	EDI
  3516 000020FB E8 FFFFEB84                     	CALL	_putFont8AscSheet
  3517 00002100 83 C4 1C                        	ADD	ESP,28
  3518 00002103 83 AD FFFFFC68 08               	SUB	DWORD [-920+EBP],8
  3519 0000210A EB 8C                           	JMP	L495
  3520 0000210C                                 L513:
  3521 0000210C FF B5 FFFFFC50                  	PUSH	DWORD [-944+EBP]
  3522 00002112 E8 FFFFE4FA                     	CALL	_processSleep
  3523 00002117 E8 [00000000]                   	CALL	_io_sti
  3524 0000211C 59                              	POP	ECX
  3525 0000211D E9 FFFFFCCE                     	JMP	L487
  3526 00002122                                 	GLOBAL	_keybuf
  3527                                          [SECTION .data]
  3528 000002F4                                 	ALIGNB	4
  3529 000002F4                                 _keybuf:
  3530 000002F4 00 00 00 00                     	RESB	4
  3531 000002F8                                 	GLOBAL	_keyData0
  3532                                          [SECTION .data]
  3533 000002F8                                 	ALIGNB	4
  3534 000002F8                                 _keyData0:
  3535 000002F8 00 00 00 00                     	RESB	4
  3536 000002FC                                 	GLOBAL	_mousebuf
  3537                                          [SECTION .data]
  3538 000002FC                                 	ALIGNB	4
  3539 000002FC                                 _mousebuf:
  3540 000002FC 00 00 00 00                     	RESB	4
  3541 00000300                                 	GLOBAL	_mouseData0
  3542                                          [SECTION .data]
  3543 00000300                                 	ALIGNB	4
  3544 00000300                                 _mouseData0:
  3545 00000300 00 00 00 00                     	RESB	4
  3546 00000304                                 	GLOBAL	_timerctl
  3547                                          [SECTION .data]
  3548 00000304 00 00 00 00 00 00 00 00 00 00   	ALIGNB	16
       0000030E 00 00 
  3549 00000310                                 _timerctl:
  3550 00000310 00 00 00 00 00 00 00 00 00 00   	RESB	10012
       0000031A 00 00 00 00 00 00 00 00 00 00 
       00000324 00 00 00 00 00 00 00 00 00 00 
       0000032E 00 00 00 00 00 00 00 00 00 00 
       00000338 00 00 00 00 00 00 00 00 00 00 
       00000342 00 00 00 00 00 00 00 00 00 00 
       0000034C 00 00 00 00 00 00 00 00 00 00 
       00000356 00 00 00 00 00 00 00 00 00 00 
       00000360 00 00 00 00 00 00 00 00 00 00 
       0000036A 00 00 00 00 00 00 00 00 00 00 
       00000374 00 00 00 00 00 00 00 00 00 00 
       0000037E 00 00 00 00 00 00 00 00 00 00 
       00000388 00 00 00 00 00 00 00 00 00 00 
       00000392 00 00 00 00 00 00 00 00 00 00 
       0000039C 00 00 00 00 00 00 00 00 00 00 
       000003A6 00 00 00 00 00 00 00 00 00 00 
       000003B0 00 00 00 00 00 00 00 00 00 00 
       000003BA 00 00 00 00 00 00 00 00 00 00 
       000003C4 00 00 00 00 00 00 00 00 00 00 
       000003CE 00 00 00 00 00 00 00 00 00 00 
       000003D8 00 00 00 00 00 00 00 00 00 00 
       000003E2 00 00 00 00 00 00 00 00 00 00 
       000003EC 00 00 00 00 00 00 00 00 00 00 
       000003F6 00 00 00 00 00 00 00 00 00 00 
       00000400 00 00 00 00 00 00 00 00 00 00 
       0000040A 00 00 00 00 00 00 00 00 00 00 
       00000414 00 00 00 00 00 00 00 00 00 00 
       0000041E 00 00 00 00 00 00 00 00 00 00 
       00000428 00 00 00 00 00 00 00 00 00 00 
       00000432 00 00 00 00 00 00 00 00 00 00 
       0000043C 00 00 00 00 00 00 00 00 00 00 
       00000446 00 00 00 00 00 00 00 00 00 00 
       00000450 00 00 00 00 00 00 00 00 00 00 
       0000045A 00 00 00 00 00 00 00 00 00 00 
       00000464 00 00 00 00 00 00 00 00 00 00 
       0000046E 00 00 00 00 00 00 00 00 00 00 
       00000478 00 00 00 00 00 00 00 00 00 00 
       00000482 00 00 00 00 00 00 00 00 00 00 
       0000048C 00 00 00 00 00 00 00 00 00 00 
       00000496 00 00 00 00 00 00 00 00 00 00 
       000004A0 00 00 00 00 00 00 00 00 00 00 
       000004AA 00 00 00 00 00 00 00 00 00 00 
       000004B4 00 00 00 00 00 00 00 00 00 00 
       000004BE 00 00 00 00 00 00 00 00 00 00 
       000004C8 00 00 00 00 00 00 00 00 00 00 
       000004D2 00 00 00 00 00 00 00 00 00 00 
       000004DC 00 00 00 00 00 00 00 00 00 00 
       000004E6 00 00 00 00 00 00 00 00 00 00 
       000004F0 00 00 00 00 00 00 00 00 00 00 
       000004FA 00 00 00 00 00 00 00 00 00 00 
       00000504 00 00 00 00 00 00 00 00 00 00 
       0000050E 00 00 00 00 00 00 00 00 00 00 
       00000518 00 00 00 00 00 00 00 00 00 00 
       00000522 00 00 00 00 00 00 00 00 00 00 
       0000052C 00 00 00 00 00 00 00 00 00 00 
       00000536 00 00 00 00 00 00 00 00 00 00 
       00000540 00 00 00 00 00 00 00 00 00 00 
       0000054A 00 00 00 00 00 00 00 00 00 00 
       00000554 00 00 00 00 00 00 00 00 00 00 
       0000055E 00 00 00 00 00 00 00 00 00 00 
       00000568 00 00 00 00 00 00 00 00 00 00 
       00000572 00 00 00 00 00 00 00 00 00 00 
       0000057C 00 00 00 00 00 00 00 00 00 00 
       00000586 00 00 00 00 00 00 00 00 00 00 
       00000590 00 00 00 00 00 00 00 00 00 00 
       0000059A 00 00 00 00 00 00 00 00 00 00 
       000005A4 00 00 00 00 00 00 00 00 00 00 
       000005AE 00 00 00 00 00 00 00 00 00 00 
       000005B8 00 00 00 00 00 00 00 00 00 00 
       000005C2 00 00 00 00 00 00 00 00 00 00 
       000005CC 00 00 00 00 00 00 00 00 00 00 
       000005D6 00 00 00 00 00 00 00 00 00 00 
       000005E0 00 00 00 00 00 00 00 00 00 00 
       000005EA 00 00 00 00 00 00 00 00 00 00 
       000005F4 00 00 00 00 00 00 00 00 00 00 
       000005FE 00 00 00 00 00 00 00 00 00 00 
       00000608 00 00 00 00 00 00 00 00 00 00 
       00000612 00 00 00 00 00 00 00 00 00 00 
       0000061C 00 00 00 00 00 00 00 00 00 00 
       00000626 00 00 00 00 00 00 00 00 00 00 
       00000630 00 00 00 00 00 00 00 00 00 00 
       0000063A 00 00 00 00 00 00 00 00 00 00 
       00000644 00 00 00 00 00 00 00 00 00 00 
       0000064E 00 00 00 00 00 00 00 00 00 00 
       00000658 00 00 00 00 00 00 00 00 00 00 
       00000662 00 00 00 00 00 00 00 00 00 00 
       0000066C 00 00 00 00 00 00 00 00 00 00 
       00000676 00 00 00 00 00 00 00 00 00 00 
       00000680 00 00 00 00 00 00 00 00 00 00 
       0000068A 00 00 00 00 00 00 00 00 00 00 
       00000694 00 00 00 00 00 00 00 00 00 00 
       0000069E 00 00 00 00 00 00 00 00 00 00 
       000006A8 00 00 00 00 00 00 00 00 00 00 
       000006B2 00 00 00 00 00 00 00 00 00 00 
       000006BC 00 00 00 00 00 00 00 00 00 00 
       000006C6 00 00 00 00 00 00 00 00 00 00 
       000006D0 00 00 00 00 00 00 00 00 00 00 
       000006DA 00 00 00 00 00 00 00 00 00 00 
       000006E4 00 00 00 00 00 00 00 00 00 00 
       000006EE 00 00 00 00 00 00 00 00 00 00 
       000006F8 00 00 00 00 00 00 00 00 00 00 
       00000702 00 00 00 00 00 00 00 00 00 00 
       0000070C 00 00 00 00 00 00 00 00 00 00 
       00000716 00 00 00 00 00 00 00 00 00 00 
       00000720 00 00 00 00 00 00 00 00 00 00 
       0000072A 00 00 00 00 00 00 00 00 00 00 
       00000734 00 00 00 00 00 00 00 00 00 00 
       0000073E 00 00 00 00 00 00 00 00 00 00 
       00000748 00 00 00 00 00 00 00 00 00 00 
       00000752 00 00 00 00 00 00 00 00 00 00 
       0000075C 00 00 00 00 00 00 00 00 00 00 
       00000766 00 00 00 00 00 00 00 00 00 00 
       00000770 00 00 00 00 00 00 00 00 00 00 
       0000077A 00 00 00 00 00 00 00 00 00 00 
       00000784 00 00 00 00 00 00 00 00 00 00 
       0000078E 00 00 00 00 00 00 00 00 00 00 
       00000798 00 00 00 00 00 00 00 00 00 00 
       000007A2 00 00 00 00 00 00 00 00 00 00 
       000007AC 00 00 00 00 00 00 00 00 00 00 
       000007B6 00 00 00 00 00 00 00 00 00 00 
       000007C0 00 00 00 00 00 00 00 00 00 00 
       000007CA 00 00 00 00 00 00 00 00 00 00 
       000007D4 00 00 00 00 00 00 00 00 00 00 
       000007DE 00 00 00 00 00 00 00 00 00 00 
       000007E8 00 00 00 00 00 00 00 00 00 00 
       000007F2 00 00 00 00 00 00 00 00 00 00 
       000007FC 00 00 00 00 00 00 00 00 00 00 
       00000806 00 00 00 00 00 00 00 00 00 00 
       00000810 00 00 00 00 00 00 00 00 00 00 
       0000081A 00 00 00 00 00 00 00 00 00 00 
       00000824 00 00 00 00 00 00 00 00 00 00 
       0000082E 00 00 00 00 00 00 00 00 00 00 
       00000838 00 00 00 00 00 00 00 00 00 00 
       00000842 00 00 00 00 00 00 00 00 00 00 
       0000084C 00 00 00 00 00 00 00 00 00 00 
       00000856 00 00 00 00 00 00 00 00 00 00 
       00000860 00 00 00 00 00 00 00 00 00 00 
       0000086A 00 00 00 00 00 00 00 00 00 00 
       00000874 00 00 00 00 00 00 00 00 00 00 
       0000087E 00 00 00 00 00 00 00 00 00 00 
       00000888 00 00 00 00 00 00 00 00 00 00 
       00000892 00 00 00 00 00 00 00 00 00 00 
       0000089C 00 00 00 00 00 00 00 00 00 00 
       000008A6 00 00 00 00 00 00 00 00 00 00 
       000008B0 00 00 00 00 00 00 00 00 00 00 
       000008BA 00 00 00 00 00 00 00 00 00 00 
       000008C4 00 00 00 00 00 00 00 00 00 00 
       000008CE 00 00 00 00 00 00 00 00 00 00 
       000008D8 00 00 00 00 00 00 00 00 00 00 
       000008E2 00 00 00 00 00 00 00 00 00 00 
       000008EC 00 00 00 00 00 00 00 00 00 00 
       000008F6 00 00 00 00 00 00 00 00 00 00 
       00000900 00 00 00 00 00 00 00 00 00 00 
       0000090A 00 00 00 00 00 00 00 00 00 00 
       00000914 00 00 00 00 00 00 00 00 00 00 
       0000091E 00 00 00 00 00 00 00 00 00 00 
       00000928 00 00 00 00 00 00 00 00 00 00 
       00000932 00 00 00 00 00 00 00 00 00 00 
       0000093C 00 00 00 00 00 00 00 00 00 00 
       00000946 00 00 00 00 00 00 00 00 00 00 
       00000950 00 00 00 00 00 00 00 00 00 00 
       0000095A 00 00 00 00 00 00 00 00 00 00 
       00000964 00 00 00 00 00 00 00 00 00 00 
       0000096E 00 00 00 00 00 00 00 00 00 00 
       00000978 00 00 00 00 00 00 00 00 00 00 
       00000982 00 00 00 00 00 00 00 00 00 00 
       0000098C 00 00 00 00 00 00 00 00 00 00 
       00000996 00 00 00 00 00 00 00 00 00 00 
       000009A0 00 00 00 00 00 00 00 00 00 00 
       000009AA 00 00 00 00 00 00 00 00 00 00 
       000009B4 00 00 00 00 00 00 00 00 00 00 
       000009BE 00 00 00 00 00 00 00 00 00 00 
       000009C8 00 00 00 00 00 00 00 00 00 00 
       000009D2 00 00 00 00 00 00 00 00 00 00 
       000009DC 00 00 00 00 00 00 00 00 00 00 
       000009E6 00 00 00 00 00 00 00 00 00 00 
       000009F0 00 00 00 00 00 00 00 00 00 00 
       000009FA 00 00 00 00 00 00 00 00 00 00 
       00000A04 00 00 00 00 00 00 00 00 00 00 
       00000A0E 00 00 00 00 00 00 00 00 00 00 
       00000A18 00 00 00 00 00 00 00 00 00 00 
       00000A22 00 00 00 00 00 00 00 00 00 00 
       00000A2C 00 00 00 00 00 00 00 00 00 00 
       00000A36 00 00 00 00 00 00 00 00 00 00 
       00000A40 00 00 00 00 00 00 00 00 00 00 
       00000A4A 00 00 00 00 00 00 00 00 00 00 
       00000A54 00 00 00 00 00 00 00 00 00 00 
       00000A5E 00 00 00 00 00 00 00 00 00 00 
       00000A68 00 00 00 00 00 00 00 00 00 00 
       00000A72 00 00 00 00 00 00 00 00 00 00 
       00000A7C 00 00 00 00 00 00 00 00 00 00 
       00000A86 00 00 00 00 00 00 00 00 00 00 
       00000A90 00 00 00 00 00 00 00 00 00 00 
       00000A9A 00 00 00 00 00 00 00 00 00 00 
       00000AA4 00 00 00 00 00 00 00 00 00 00 
       00000AAE 00 00 00 00 00 00 00 00 00 00 
       00000AB8 00 00 00 00 00 00 00 00 00 00 
       00000AC2 00 00 00 00 00 00 00 00 00 00 
       00000ACC 00 00 00 00 00 00 00 00 00 00 
       00000AD6 00 00 00 00 00 00 00 00 00 00 
       00000AE0 00 00 00 00 00 00 00 00 00 00 
       00000AEA 00 00 00 00 00 00 00 00 00 00 
       00000AF4 00 00 00 00 00 00 00 00 00 00 
       00000AFE 00 00 00 00 00 00 00 00 00 00 
       00000B08 00 00 00 00 00 00 00 00 00 00 
       00000B12 00 00 00 00 00 00 00 00 00 00 
       00000B1C 00 00 00 00 00 00 00 00 00 00 
       00000B26 00 00 00 00 00 00 00 00 00 00 
       00000B30 00 00 00 00 00 00 00 00 00 00 
       00000B3A 00 00 00 00 00 00 00 00 00 00 
       00000B44 00 00 00 00 00 00 00 00 00 00 
       00000B4E 00 00 00 00 00 00 00 00 00 00 
       00000B58 00 00 00 00 00 00 00 00 00 00 
       00000B62 00 00 00 00 00 00 00 00 00 00 
       00000B6C 00 00 00 00 00 00 00 00 00 00 
       00000B76 00 00 00 00 00 00 00 00 00 00 
       00000B80 00 00 00 00 00 00 00 00 00 00 
       00000B8A 00 00 00 00 00 00 00 00 00 00 
       00000B94 00 00 00 00 00 00 00 00 00 00 
       00000B9E 00 00 00 00 00 00 00 00 00 00 
       00000BA8 00 00 00 00 00 00 00 00 00 00 
       00000BB2 00 00 00 00 00 00 00 00 00 00 
       00000BBC 00 00 00 00 00 00 00 00 00 00 
       00000BC6 00 00 00 00 00 00 00 00 00 00 
       00000BD0 00 00 00 00 00 00 00 00 00 00 
       00000BDA 00 00 00 00 00 00 00 00 00 00 
       00000BE4 00 00 00 00 00 00 00 00 00 00 
       00000BEE 00 00 00 00 00 00 00 00 00 00 
       00000BF8 00 00 00 00 00 00 00 00 00 00 
       00000C02 00 00 00 00 00 00 00 00 00 00 
       00000C0C 00 00 00 00 00 00 00 00 00 00 
       00000C16 00 00 00 00 00 00 00 00 00 00 
       00000C20 00 00 00 00 00 00 00 00 00 00 
       00000C2A 00 00 00 00 00 00 00 00 00 00 
       00000C34 00 00 00 00 00 00 00 00 00 00 
       00000C3E 00 00 00 00 00 00 00 00 00 00 
       00000C48 00 00 00 00 00 00 00 00 00 00 
       00000C52 00 00 00 00 00 00 00 00 00 00 
       00000C5C 00 00 00 00 00 00 00 00 00 00 
       00000C66 00 00 00 00 00 00 00 00 00 00 
       00000C70 00 00 00 00 00 00 00 00 00 00 
       00000C7A 00 00 00 00 00 00 00 00 00 00 
       00000C84 00 00 00 00 00 00 00 00 00 00 
       00000C8E 00 00 00 00 00 00 00 00 00 00 
       00000C98 00 00 00 00 00 00 00 00 00 00 
       00000CA2 00 00 00 00 00 00 00 00 00 00 
       00000CAC 00 00 00 00 00 00 00 00 00 00 
       00000CB6 00 00 00 00 00 00 00 00 00 00 
       00000CC0 00 00 00 00 00 00 00 00 00 00 
       00000CCA 00 00 00 00 00 00 00 00 00 00 
       00000CD4 00 00 00 00 00 00 00 00 00 00 
       00000CDE 00 00 00 00 00 00 00 00 00 00 
       00000CE8 00 00 00 00 00 00 00 00 00 00 
       00000CF2 00 00 00 00 00 00 00 00 00 00 
       00000CFC 00 00 00 00 00 00 00 00 00 00 
       00000D06 00 00 00 00 00 00 00 00 00 00 
       00000D10 00 00 00 00 00 00 00 00 00 00 
       00000D1A 00 00 00 00 00 00 00 00 00 00 
       00000D24 00 00 00 00 00 00 00 00 00 00 
       00000D2E 00 00 00 00 00 00 00 00 00 00 
       00000D38 00 00 00 00 00 00 00 00 00 00 
       00000D42 00 00 00 00 00 00 00 00 00 00 
       00000D4C 00 00 00 00 00 00 00 00 00 00 
       00000D56 00 00 00 00 00 00 00 00 00 00 
       00000D60 00 00 00 00 00 00 00 00 00 00 
       00000D6A 00 00 00 00 00 00 00 00 00 00 
       00000D74 00 00 00 00 00 00 00 00 00 00 
       00000D7E 00 00 00 00 00 00 00 00 00 00 
       00000D88 00 00 00 00 00 00 00 00 00 00 
       00000D92 00 00 00 00 00 00 00 00 00 00 
       00000D9C 00 00 00 00 00 00 00 00 00 00 
       00000DA6 00 00 00 00 00 00 00 00 00 00 
       00000DB0 00 00 00 00 00 00 00 00 00 00 
       00000DBA 00 00 00 00 00 00 00 00 00 00 
       00000DC4 00 00 00 00 00 00 00 00 00 00 
       00000DCE 00 00 00 00 00 00 00 00 00 00 
       00000DD8 00 00 00 00 00 00 00 00 00 00 
       00000DE2 00 00 00 00 00 00 00 00 00 00 
       00000DEC 00 00 00 00 00 00 00 00 00 00 
       00000DF6 00 00 00 00 00 00 00 00 00 00 
       00000E00 00 00 00 00 00 00 00 00 00 00 
       00000E0A 00 00 00 00 00 00 00 00 00 00 
       00000E14 00 00 00 00 00 00 00 00 00 00 
       00000E1E 00 00 00 00 00 00 00 00 00 00 
       00000E28 00 00 00 00 00 00 00 00 00 00 
       00000E32 00 00 00 00 00 00 00 00 00 00 
       00000E3C 00 00 00 00 00 00 00 00 00 00 
       00000E46 00 00 00 00 00 00 00 00 00 00 
       00000E50 00 00 00 00 00 00 00 00 00 00 
       00000E5A 00 00 00 00 00 00 00 00 00 00 
       00000E64 00 00 00 00 00 00 00 00 00 00 
       00000E6E 00 00 00 00 00 00 00 00 00 00 
       00000E78 00 00 00 00 00 00 00 00 00 00 
       00000E82 00 00 00 00 00 00 00 00 00 00 
       00000E8C 00 00 00 00 00 00 00 00 00 00 
       00000E96 00 00 00 00 00 00 00 00 00 00 
       00000EA0 00 00 00 00 00 00 00 00 00 00 
       00000EAA 00 00 00 00 00 00 00 00 00 00 
       00000EB4 00 00 00 00 00 00 00 00 00 00 
       00000EBE 00 00 00 00 00 00 00 00 00 00 
       00000EC8 00 00 00 00 00 00 00 00 00 00 
       00000ED2 00 00 00 00 00 00 00 00 00 00 
       00000EDC 00 00 00 00 00 00 00 00 00 00 
       00000EE6 00 00 00 00 00 00 00 00 00 00 
       00000EF0 00 00 00 00 00 00 00 00 00 00 
       00000EFA 00 00 00 00 00 00 00 00 00 00 
       00000F04 00 00 00 00 00 00 00 00 00 00 
       00000F0E 00 00 00 00 00 00 00 00 00 00 
       00000F18 00 00 00 00 00 00 00 00 00 00 
       00000F22 00 00 00 00 00 00 00 00 00 00 
       00000F2C 00 00 00 00 00 00 00 00 00 00 
       00000F36 00 00 00 00 00 00 00 00 00 00 
       00000F40 00 00 00 00 00 00 00 00 00 00 
       00000F4A 00 00 00 00 00 00 00 00 00 00 
       00000F54 00 00 00 00 00 00 00 00 00 00 
       00000F5E 00 00 00 00 00 00 00 00 00 00 
       00000F68 00 00 00 00 00 00 00 00 00 00 
       00000F72 00 00 00 00 00 00 00 00 00 00 
       00000F7C 00 00 00 00 00 00 00 00 00 00 
       00000F86 00 00 00 00 00 00 00 00 00 00 
       00000F90 00 00 00 00 00 00 00 00 00 00 
       00000F9A 00 00 00 00 00 00 00 00 00 00 
       00000FA4 00 00 00 00 00 00 00 00 00 00 
       00000FAE 00 00 00 00 00 00 00 00 00 00 
       00000FB8 00 00 00 00 00 00 00 00 00 00 
       00000FC2 00 00 00 00 00 00 00 00 00 00 
       00000FCC 00 00 00 00 00 00 00 00 00 00 
       00000FD6 00 00 00 00 00 00 00 00 00 00 
       00000FE0 00 00 00 00 00 00 00 00 00 00 
       00000FEA 00 00 00 00 00 00 00 00 00 00 
       00000FF4 00 00 00 00 00 00 00 00 00 00 
       00000FFE 00 00 00 00 00 00 00 00 00 00 
       00001008 00 00 00 00 00 00 00 00 00 00 
       00001012 00 00 00 00 00 00 00 00 00 00 
       0000101C 00 00 00 00 00 00 00 00 00 00 
       00001026 00 00 00 00 00 00 00 00 00 00 
       00001030 00 00 00 00 00 00 00 00 00 00 
       0000103A 00 00 00 00 00 00 00 00 00 00 
       00001044 00 00 00 00 00 00 00 00 00 00 
       0000104E 00 00 00 00 00 00 00 00 00 00 
       00001058 00 00 00 00 00 00 00 00 00 00 
       00001062 00 00 00 00 00 00 00 00 00 00 
       0000106C 00 00 00 00 00 00 00 00 00 00 
       00001076 00 00 00 00 00 00 00 00 00 00 
       00001080 00 00 00 00 00 00 00 00 00 00 
       0000108A 00 00 00 00 00 00 00 00 00 00 
       00001094 00 00 00 00 00 00 00 00 00 00 
       0000109E 00 00 00 00 00 00 00 00 00 00 
       000010A8 00 00 00 00 00 00 00 00 00 00 
       000010B2 00 00 00 00 00 00 00 00 00 00 
       000010BC 00 00 00 00 00 00 00 00 00 00 
       000010C6 00 00 00 00 00 00 00 00 00 00 
       000010D0 00 00 00 00 00 00 00 00 00 00 
       000010DA 00 00 00 00 00 00 00 00 00 00 
       000010E4 00 00 00 00 00 00 00 00 00 00 
       000010EE 00 00 00 00 00 00 00 00 00 00 
       000010F8 00 00 00 00 00 00 00 00 00 00 
       00001102 00 00 00 00 00 00 00 00 00 00 
       0000110C 00 00 00 00 00 00 00 00 00 00 
       00001116 00 00 00 00 00 00 00 00 00 00 
       00001120 00 00 00 00 00 00 00 00 00 00 
       0000112A 00 00 00 00 00 00 00 00 00 00 
       00001134 00 00 00 00 00 00 00 00 00 00 
       0000113E 00 00 00 00 00 00 00 00 00 00 
       00001148 00 00 00 00 00 00 00 00 00 00 
       00001152 00 00 00 00 00 00 00 00 00 00 
       0000115C 00 00 00 00 00 00 00 00 00 00 
       00001166 00 00 00 00 00 00 00 00 00 00 
       00001170 00 00 00 00 00 00 00 00 00 00 
       0000117A 00 00 00 00 00 00 00 00 00 00 
       00001184 00 00 00 00 00 00 00 00 00 00 
       0000118E 00 00 00 00 00 00 00 00 00 00 
       00001198 00 00 00 00 00 00 00 00 00 00 
       000011A2 00 00 00 00 00 00 00 00 00 00 
       000011AC 00 00 00 00 00 00 00 00 00 00 
       000011B6 00 00 00 00 00 00 00 00 00 00 
       000011C0 00 00 00 00 00 00 00 00 00 00 
       000011CA 00 00 00 00 00 00 00 00 00 00 
       000011D4 00 00 00 00 00 00 00 00 00 00 
       000011DE 00 00 00 00 00 00 00 00 00 00 
       000011E8 00 00 00 00 00 00 00 00 00 00 
       000011F2 00 00 00 00 00 00 00 00 00 00 
       000011FC 00 00 00 00 00 00 00 00 00 00 
       00001206 00 00 00 00 00 00 00 00 00 00 
       00001210 00 00 00 00 00 00 00 00 00 00 
       0000121A 00 00 00 00 00 00 00 00 00 00 
       00001224 00 00 00 00 00 00 00 00 00 00 
       0000122E 00 00 00 00 00 00 00 00 00 00 
       00001238 00 00 00 00 00 00 00 00 00 00 
       00001242 00 00 00 00 00 00 00 00 00 00 
       0000124C 00 00 00 00 00 00 00 00 00 00 
       00001256 00 00 00 00 00 00 00 00 00 00 
       00001260 00 00 00 00 00 00 00 00 00 00 
       0000126A 00 00 00 00 00 00 00 00 00 00 
       00001274 00 00 00 00 00 00 00 00 00 00 
       0000127E 00 00 00 00 00 00 00 00 00 00 
       00001288 00 00 00 00 00 00 00 00 00 00 
       00001292 00 00 00 00 00 00 00 00 00 00 
       0000129C 00 00 00 00 00 00 00 00 00 00 
       000012A6 00 00 00 00 00 00 00 00 00 00 
       000012B0 00 00 00 00 00 00 00 00 00 00 
       000012BA 00 00 00 00 00 00 00 00 00 00 
       000012C4 00 00 00 00 00 00 00 00 00 00 
       000012CE 00 00 00 00 00 00 00 00 00 00 
       000012D8 00 00 00 00 00 00 00 00 00 00 
       000012E2 00 00 00 00 00 00 00 00 00 00 
       000012EC 00 00 00 00 00 00 00 00 00 00 
       000012F6 00 00 00 00 00 00 00 00 00 00 
       00001300 00 00 00 00 00 00 00 00 00 00 
       0000130A 00 00 00 00 00 00 00 00 00 00 
       00001314 00 00 00 00 00 00 00 00 00 00 
       0000131E 00 00 00 00 00 00 00 00 00 00 
       00001328 00 00 00 00 00 00 00 00 00 00 
       00001332 00 00 00 00 00 00 00 00 00 00 
       0000133C 00 00 00 00 00 00 00 00 00 00 
       00001346 00 00 00 00 00 00 00 00 00 00 
       00001350 00 00 00 00 00 00 00 00 00 00 
       0000135A 00 00 00 00 00 00 00 00 00 00 
       00001364 00 00 00 00 00 00 00 00 00 00 
       0000136E 00 00 00 00 00 00 00 00 00 00 
       00001378 00 00 00 00 00 00 00 00 00 00 
       00001382 00 00 00 00 00 00 00 00 00 00 
       0000138C 00 00 00 00 00 00 00 00 00 00 
       00001396 00 00 00 00 00 00 00 00 00 00 
       000013A0 00 00 00 00 00 00 00 00 00 00 
       000013AA 00 00 00 00 00 00 00 00 00 00 
       000013B4 00 00 00 00 00 00 00 00 00 00 
       000013BE 00 00 00 00 00 00 00 00 00 00 
       000013C8 00 00 00 00 00 00 00 00 00 00 
       000013D2 00 00 00 00 00 00 00 00 00 00 
       000013DC 00 00 00 00 00 00 00 00 00 00 
       000013E6 00 00 00 00 00 00 00 00 00 00 
       000013F0 00 00 00 00 00 00 00 00 00 00 
       000013FA 00 00 00 00 00 00 00 00 00 00 
       00001404 00 00 00 00 00 00 00 00 00 00 
       0000140E 00 00 00 00 00 00 00 00 00 00 
       00001418 00 00 00 00 00 00 00 00 00 00 
       00001422 00 00 00 00 00 00 00 00 00 00 
       0000142C 00 00 00 00 00 00 00 00 00 00 
       00001436 00 00 00 00 00 00 00 00 00 00 
       00001440 00 00 00 00 00 00 00 00 00 00 
       0000144A 00 00 00 00 00 00 00 00 00 00 
       00001454 00 00 00 00 00 00 00 00 00 00 
       0000145E 00 00 00 00 00 00 00 00 00 00 
       00001468 00 00 00 00 00 00 00 00 00 00 
       00001472 00 00 00 00 00 00 00 00 00 00 
       0000147C 00 00 00 00 00 00 00 00 00 00 
       00001486 00 00 00 00 00 00 00 00 00 00 
       00001490 00 00 00 00 00 00 00 00 00 00 
       0000149A 00 00 00 00 00 00 00 00 00 00 
       000014A4 00 00 00 00 00 00 00 00 00 00 
       000014AE 00 00 00 00 00 00 00 00 00 00 
       000014B8 00 00 00 00 00 00 00 00 00 00 
       000014C2 00 00 00 00 00 00 00 00 00 00 
       000014CC 00 00 00 00 00 00 00 00 00 00 
       000014D6 00 00 00 00 00 00 00 00 00 00 
       000014E0 00 00 00 00 00 00 00 00 00 00 
       000014EA 00 00 00 00 00 00 00 00 00 00 
       000014F4 00 00 00 00 00 00 00 00 00 00 
       000014FE 00 00 00 00 00 00 00 00 00 00 
       00001508 00 00 00 00 00 00 00 00 00 00 
       00001512 00 00 00 00 00 00 00 00 00 00 
       0000151C 00 00 00 00 00 00 00 00 00 00 
       00001526 00 00 00 00 00 00 00 00 00 00 
       00001530 00 00 00 00 00 00 00 00 00 00 
       0000153A 00 00 00 00 00 00 00 00 00 00 
       00001544 00 00 00 00 00 00 00 00 00 00 
       0000154E 00 00 00 00 00 00 00 00 00 00 
       00001558 00 00 00 00 00 00 00 00 00 00 
       00001562 00 00 00 00 00 00 00 00 00 00 
       0000156C 00 00 00 00 00 00 00 00 00 00 
       00001576 00 00 00 00 00 00 00 00 00 00 
       00001580 00 00 00 00 00 00 00 00 00 00 
       0000158A 00 00 00 00 00 00 00 00 00 00 
       00001594 00 00 00 00 00 00 00 00 00 00 
       0000159E 00 00 00 00 00 00 00 00 00 00 
       000015A8 00 00 00 00 00 00 00 00 00 00 
       000015B2 00 00 00 00 00 00 00 00 00 00 
       000015BC 00 00 00 00 00 00 00 00 00 00 
       000015C6 00 00 00 00 00 00 00 00 00 00 
       000015D0 00 00 00 00 00 00 00 00 00 00 
       000015DA 00 00 00 00 00 00 00 00 00 00 
       000015E4 00 00 00 00 00 00 00 00 00 00 
       000015EE 00 00 00 00 00 00 00 00 00 00 
       000015F8 00 00 00 00 00 00 00 00 00 00 
       00001602 00 00 00 00 00 00 00 00 00 00 
       0000160C 00 00 00 00 00 00 00 00 00 00 
       00001616 00 00 00 00 00 00 00 00 00 00 
       00001620 00 00 00 00 00 00 00 00 00 00 
       0000162A 00 00 00 00 00 00 00 00 00 00 
       00001634 00 00 00 00 00 00 00 00 00 00 
       0000163E 00 00 00 00 00 00 00 00 00 00 
       00001648 00 00 00 00 00 00 00 00 00 00 
       00001652 00 00 00 00 00 00 00 00 00 00 
       0000165C 00 00 00 00 00 00 00 00 00 00 
       00001666 00 00 00 00 00 00 00 00 00 00 
       00001670 00 00 00 00 00 00 00 00 00 00 
       0000167A 00 00 00 00 00 00 00 00 00 00 
       00001684 00 00 00 00 00 00 00 00 00 00 
       0000168E 00 00 00 00 00 00 00 00 00 00 
       00001698 00 00 00 00 00 00 00 00 00 00 
       000016A2 00 00 00 00 00 00 00 00 00 00 
       000016AC 00 00 00 00 00 00 00 00 00 00 
       000016B6 00 00 00 00 00 00 00 00 00 00 
       000016C0 00 00 00 00 00 00 00 00 00 00 
       000016CA 00 00 00 00 00 00 00 00 00 00 
       000016D4 00 00 00 00 00 00 00 00 00 00 
       000016DE 00 00 00 00 00 00 00 00 00 00 
       000016E8 00 00 00 00 00 00 00 00 00 00 
       000016F2 00 00 00 00 00 00 00 00 00 00 
       000016FC 00 00 00 00 00 00 00 00 00 00 
       00001706 00 00 00 00 00 00 00 00 00 00 
       00001710 00 00 00 00 00 00 00 00 00 00 
       0000171A 00 00 00 00 00 00 00 00 00 00 
       00001724 00 00 00 00 00 00 00 00 00 00 
       0000172E 00 00 00 00 00 00 00 00 00 00 
       00001738 00 00 00 00 00 00 00 00 00 00 
       00001742 00 00 00 00 00 00 00 00 00 00 
       0000174C 00 00 00 00 00 00 00 00 00 00 
       00001756 00 00 00 00 00 00 00 00 00 00 
       00001760 00 00 00 00 00 00 00 00 00 00 
       0000176A 00 00 00 00 00 00 00 00 00 00 
       00001774 00 00 00 00 00 00 00 00 00 00 
       0000177E 00 00 00 00 00 00 00 00 00 00 
       00001788 00 00 00 00 00 00 00 00 00 00 
       00001792 00 00 00 00 00 00 00 00 00 00 
       0000179C 00 00 00 00 00 00 00 00 00 00 
       000017A6 00 00 00 00 00 00 00 00 00 00 
       000017B0 00 00 00 00 00 00 00 00 00 00 
       000017BA 00 00 00 00 00 00 00 00 00 00 
       000017C4 00 00 00 00 00 00 00 00 00 00 
       000017CE 00 00 00 00 00 00 00 00 00 00 
       000017D8 00 00 00 00 00 00 00 00 00 00 
       000017E2 00 00 00 00 00 00 00 00 00 00 
       000017EC 00 00 00 00 00 00 00 00 00 00 
       000017F6 00 00 00 00 00 00 00 00 00 00 
       00001800 00 00 00 00 00 00 00 00 00 00 
       0000180A 00 00 00 00 00 00 00 00 00 00 
       00001814 00 00 00 00 00 00 00 00 00 00 
       0000181E 00 00 00 00 00 00 00 00 00 00 
       00001828 00 00 00 00 00 00 00 00 00 00 
       00001832 00 00 00 00 00 00 00 00 00 00 
       0000183C 00 00 00 00 00 00 00 00 00 00 
       00001846 00 00 00 00 00 00 00 00 00 00 
       00001850 00 00 00 00 00 00 00 00 00 00 
       0000185A 00 00 00 00 00 00 00 00 00 00 
       00001864 00 00 00 00 00 00 00 00 00 00 
       0000186E 00 00 00 00 00 00 00 00 00 00 
       00001878 00 00 00 00 00 00 00 00 00 00 
       00001882 00 00 00 00 00 00 00 00 00 00 
       0000188C 00 00 00 00 00 00 00 00 00 00 
       00001896 00 00 00 00 00 00 00 00 00 00 
       000018A0 00 00 00 00 00 00 00 00 00 00 
       000018AA 00 00 00 00 00 00 00 00 00 00 
       000018B4 00 00 00 00 00 00 00 00 00 00 
       000018BE 00 00 00 00 00 00 00 00 00 00 
       000018C8 00 00 00 00 00 00 00 00 00 00 
       000018D2 00 00 00 00 00 00 00 00 00 00 
       000018DC 00 00 00 00 00 00 00 00 00 00 
       000018E6 00 00 00 00 00 00 00 00 00 00 
       000018F0 00 00 00 00 00 00 00 00 00 00 
       000018FA 00 00 00 00 00 00 00 00 00 00 
       00001904 00 00 00 00 00 00 00 00 00 00 
       0000190E 00 00 00 00 00 00 00 00 00 00 
       00001918 00 00 00 00 00 00 00 00 00 00 
       00001922 00 00 00 00 00 00 00 00 00 00 
       0000192C 00 00 00 00 00 00 00 00 00 00 
       00001936 00 00 00 00 00 00 00 00 00 00 
       00001940 00 00 00 00 00 00 00 00 00 00 
       0000194A 00 00 00 00 00 00 00 00 00 00 
       00001954 00 00 00 00 00 00 00 00 00 00 
       0000195E 00 00 00 00 00 00 00 00 00 00 
       00001968 00 00 00 00 00 00 00 00 00 00 
       00001972 00 00 00 00 00 00 00 00 00 00 
       0000197C 00 00 00 00 00 00 00 00 00 00 
       00001986 00 00 00 00 00 00 00 00 00 00 
       00001990 00 00 00 00 00 00 00 00 00 00 
       0000199A 00 00 00 00 00 00 00 00 00 00 
       000019A4 00 00 00 00 00 00 00 00 00 00 
       000019AE 00 00 00 00 00 00 00 00 00 00 
       000019B8 00 00 00 00 00 00 00 00 00 00 
       000019C2 00 00 00 00 00 00 00 00 00 00 
       000019CC 00 00 00 00 00 00 00 00 00 00 
       000019D6 00 00 00 00 00 00 00 00 00 00 
       000019E0 00 00 00 00 00 00 00 00 00 00 
       000019EA 00 00 00 00 00 00 00 00 00 00 
       000019F4 00 00 00 00 00 00 00 00 00 00 
       000019FE 00 00 00 00 00 00 00 00 00 00 
       00001A08 00 00 00 00 00 00 00 00 00 00 
       00001A12 00 00 00 00 00 00 00 00 00 00 
       00001A1C 00 00 00 00 00 00 00 00 00 00 
       00001A26 00 00 00 00 00 00 00 00 00 00 
       00001A30 00 00 00 00 00 00 00 00 00 00 
       00001A3A 00 00 00 00 00 00 00 00 00 00 
       00001A44 00 00 00 00 00 00 00 00 00 00 
       00001A4E 00 00 00 00 00 00 00 00 00 00 
       00001A58 00 00 00 00 00 00 00 00 00 00 
       00001A62 00 00 00 00 00 00 00 00 00 00 
       00001A6C 00 00 00 00 00 00 00 00 00 00 
       00001A76 00 00 00 00 00 00 00 00 00 00 
       00001A80 00 00 00 00 00 00 00 00 00 00 
       00001A8A 00 00 00 00 00 00 00 00 00 00 
       00001A94 00 00 00 00 00 00 00 00 00 00 
       00001A9E 00 00 00 00 00 00 00 00 00 00 
       00001AA8 00 00 00 00 00 00 00 00 00 00 
       00001AB2 00 00 00 00 00 00 00 00 00 00 
       00001ABC 00 00 00 00 00 00 00 00 00 00 
       00001AC6 00 00 00 00 00 00 00 00 00 00 
       00001AD0 00 00 00 00 00 00 00 00 00 00 
       00001ADA 00 00 00 00 00 00 00 00 00 00 
       00001AE4 00 00 00 00 00 00 00 00 00 00 
       00001AEE 00 00 00 00 00 00 00 00 00 00 
       00001AF8 00 00 00 00 00 00 00 00 00 00 
       00001B02 00 00 00 00 00 00 00 00 00 00 
       00001B0C 00 00 00 00 00 00 00 00 00 00 
       00001B16 00 00 00 00 00 00 00 00 00 00 
       00001B20 00 00 00 00 00 00 00 00 00 00 
       00001B2A 00 00 00 00 00 00 00 00 00 00 
       00001B34 00 00 00 00 00 00 00 00 00 00 
       00001B3E 00 00 00 00 00 00 00 00 00 00 
       00001B48 00 00 00 00 00 00 00 00 00 00 
       00001B52 00 00 00 00 00 00 00 00 00 00 
       00001B5C 00 00 00 00 00 00 00 00 00 00 
       00001B66 00 00 00 00 00 00 00 00 00 00 
       00001B70 00 00 00 00 00 00 00 00 00 00 
       00001B7A 00 00 00 00 00 00 00 00 00 00 
       00001B84 00 00 00 00 00 00 00 00 00 00 
       00001B8E 00 00 00 00 00 00 00 00 00 00 
       00001B98 00 00 00 00 00 00 00 00 00 00 
       00001BA2 00 00 00 00 00 00 00 00 00 00 
       00001BAC 00 00 00 00 00 00 00 00 00 00 
       00001BB6 00 00 00 00 00 00 00 00 00 00 
       00001BC0 00 00 00 00 00 00 00 00 00 00 
       00001BCA 00 00 00 00 00 00 00 00 00 00 
       00001BD4 00 00 00 00 00 00 00 00 00 00 
       00001BDE 00 00 00 00 00 00 00 00 00 00 
       00001BE8 00 00 00 00 00 00 00 00 00 00 
       00001BF2 00 00 00 00 00 00 00 00 00 00 
       00001BFC 00 00 00 00 00 00 00 00 00 00 
       00001C06 00 00 00 00 00 00 00 00 00 00 
       00001C10 00 00 00 00 00 00 00 00 00 00 
       00001C1A 00 00 00 00 00 00 00 00 00 00 
       00001C24 00 00 00 00 00 00 00 00 00 00 
       00001C2E 00 00 00 00 00 00 00 00 00 00 
       00001C38 00 00 00 00 00 00 00 00 00 00 
       00001C42 00 00 00 00 00 00 00 00 00 00 
       00001C4C 00 00 00 00 00 00 00 00 00 00 
       00001C56 00 00 00 00 00 00 00 00 00 00 
       00001C60 00 00 00 00 00 00 00 00 00 00 
       00001C6A 00 00 00 00 00 00 00 00 00 00 
       00001C74 00 00 00 00 00 00 00 00 00 00 
       00001C7E 00 00 00 00 00 00 00 00 00 00 
       00001C88 00 00 00 00 00 00 00 00 00 00 
       00001C92 00 00 00 00 00 00 00 00 00 00 
       00001C9C 00 00 00 00 00 00 00 00 00 00 
       00001CA6 00 00 00 00 00 00 00 00 00 00 
       00001CB0 00 00 00 00 00 00 00 00 00 00 
       00001CBA 00 00 00 00 00 00 00 00 00 00 
       00001CC4 00 00 00 00 00 00 00 00 00 00 
       00001CCE 00 00 00 00 00 00 00 00 00 00 
       00001CD8 00 00 00 00 00 00 00 00 00 00 
       00001CE2 00 00 00 00 00 00 00 00 00 00 
       00001CEC 00 00 00 00 00 00 00 00 00 00 
       00001CF6 00 00 00 00 00 00 00 00 00 00 
       00001D00 00 00 00 00 00 00 00 00 00 00 
       00001D0A 00 00 00 00 00 00 00 00 00 00 
       00001D14 00 00 00 00 00 00 00 00 00 00 
       00001D1E 00 00 00 00 00 00 00 00 00 00 
       00001D28 00 00 00 00 00 00 00 00 00 00 
       00001D32 00 00 00 00 00 00 00 00 00 00 
       00001D3C 00 00 00 00 00 00 00 00 00 00 
       00001D46 00 00 00 00 00 00 00 00 00 00 
       00001D50 00 00 00 00 00 00 00 00 00 00 
       00001D5A 00 00 00 00 00 00 00 00 00 00 
       00001D64 00 00 00 00 00 00 00 00 00 00 
       00001D6E 00 00 00 00 00 00 00 00 00 00 
       00001D78 00 00 00 00 00 00 00 00 00 00 
       00001D82 00 00 00 00 00 00 00 00 00 00 
       00001D8C 00 00 00 00 00 00 00 00 00 00 
       00001D96 00 00 00 00 00 00 00 00 00 00 
       00001DA0 00 00 00 00 00 00 00 00 00 00 
       00001DAA 00 00 00 00 00 00 00 00 00 00 
       00001DB4 00 00 00 00 00 00 00 00 00 00 
       00001DBE 00 00 00 00 00 00 00 00 00 00 
       00001DC8 00 00 00 00 00 00 00 00 00 00 
       00001DD2 00 00 00 00 00 00 00 00 00 00 
       00001DDC 00 00 00 00 00 00 00 00 00 00 
       00001DE6 00 00 00 00 00 00 00 00 00 00 
       00001DF0 00 00 00 00 00 00 00 00 00 00 
       00001DFA 00 00 00 00 00 00 00 00 00 00 
       00001E04 00 00 00 00 00 00 00 00 00 00 
       00001E0E 00 00 00 00 00 00 00 00 00 00 
       00001E18 00 00 00 00 00 00 00 00 00 00 
       00001E22 00 00 00 00 00 00 00 00 00 00 
       00001E2C 00 00 00 00 00 00 00 00 00 00 
       00001E36 00 00 00 00 00 00 00 00 00 00 
       00001E40 00 00 00 00 00 00 00 00 00 00 
       00001E4A 00 00 00 00 00 00 00 00 00 00 
       00001E54 00 00 00 00 00 00 00 00 00 00 
       00001E5E 00 00 00 00 00 00 00 00 00 00 
       00001E68 00 00 00 00 00 00 00 00 00 00 
       00001E72 00 00 00 00 00 00 00 00 00 00 
       00001E7C 00 00 00 00 00 00 00 00 00 00 
       00001E86 00 00 00 00 00 00 00 00 00 00 
       00001E90 00 00 00 00 00 00 00 00 00 00 
       00001E9A 00 00 00 00 00 00 00 00 00 00 
       00001EA4 00 00 00 00 00 00 00 00 00 00 
       00001EAE 00 00 00 00 00 00 00 00 00 00 
       00001EB8 00 00 00 00 00 00 00 00 00 00 
       00001EC2 00 00 00 00 00 00 00 00 00 00 
       00001ECC 00 00 00 00 00 00 00 00 00 00 
       00001ED6 00 00 00 00 00 00 00 00 00 00 
       00001EE0 00 00 00 00 00 00 00 00 00 00 
       00001EEA 00 00 00 00 00 00 00 00 00 00 
       00001EF4 00 00 00 00 00 00 00 00 00 00 
       00001EFE 00 00 00 00 00 00 00 00 00 00 
       00001F08 00 00 00 00 00 00 00 00 00 00 
       00001F12 00 00 00 00 00 00 00 00 00 00 
       00001F1C 00 00 00 00 00 00 00 00 00 00 
       00001F26 00 00 00 00 00 00 00 00 00 00 
       00001F30 00 00 00 00 00 00 00 00 00 00 
       00001F3A 00 00 00 00 00 00 00 00 00 00 
       00001F44 00 00 00 00 00 00 00 00 00 00 
       00001F4E 00 00 00 00 00 00 00 00 00 00 
       00001F58 00 00 00 00 00 00 00 00 00 00 
       00001F62 00 00 00 00 00 00 00 00 00 00 
       00001F6C 00 00 00 00 00 00 00 00 00 00 
       00001F76 00 00 00 00 00 00 00 00 00 00 
       00001F80 00 00 00 00 00 00 00 00 00 00 
       00001F8A 00 00 00 00 00 00 00 00 00 00 
       00001F94 00 00 00 00 00 00 00 00 00 00 
       00001F9E 00 00 00 00 00 00 00 00 00 00 
       00001FA8 00 00 00 00 00 00 00 00 00 00 
       00001FB2 00 00 00 00 00 00 00 00 00 00 
       00001FBC 00 00 00 00 00 00 00 00 00 00 
       00001FC6 00 00 00 00 00 00 00 00 00 00 
       00001FD0 00 00 00 00 00 00 00 00 00 00 
       00001FDA 00 00 00 00 00 00 00 00 00 00 
       00001FE4 00 00 00 00 00 00 00 00 00 00 
       00001FEE 00 00 00 00 00 00 00 00 00 00 
       00001FF8 00 00 00 00 00 00 00 00 00 00 
       00002002 00 00 00 00 00 00 00 00 00 00 
       0000200C 00 00 00 00 00 00 00 00 00 00 
       00002016 00 00 00 00 00 00 00 00 00 00 
       00002020 00 00 00 00 00 00 00 00 00 00 
       0000202A 00 00 00 00 00 00 00 00 00 00 
       00002034 00 00 00 00 00 00 00 00 00 00 
       0000203E 00 00 00 00 00 00 00 00 00 00 
       00002048 00 00 00 00 00 00 00 00 00 00 
       00002052 00 00 00 00 00 00 00 00 00 00 
       0000205C 00 00 00 00 00 00 00 00 00 00 
       00002066 00 00 00 00 00 00 00 00 00 00 
       00002070 00 00 00 00 00 00 00 00 00 00 
       0000207A 00 00 00 00 00 00 00 00 00 00 
       00002084 00 00 00 00 00 00 00 00 00 00 
       0000208E 00 00 00 00 00 00 00 00 00 00 
       00002098 00 00 00 00 00 00 00 00 00 00 
       000020A2 00 00 00 00 00 00 00 00 00 00 
       000020AC 00 00 00 00 00 00 00 00 00 00 
       000020B6 00 00 00 00 00 00 00 00 00 00 
       000020C0 00 00 00 00 00 00 00 00 00 00 
       000020CA 00 00 00 00 00 00 00 00 00 00 
       000020D4 00 00 00 00 00 00 00 00 00 00 
       000020DE 00 00 00 00 00 00 00 00 00 00 
       000020E8 00 00 00 00 00 00 00 00 00 00 
       000020F2 00 00 00 00 00 00 00 00 00 00 
       000020FC 00 00 00 00 00 00 00 00 00 00 
       00002106 00 00 00 00 00 00 00 00 00 00 
       00002110 00 00 00 00 00 00 00 00 00 00 
       0000211A 00 00 00 00 00 00 00 00 00 00 
       00002124 00 00 00 00 00 00 00 00 00 00 
       0000212E 00 00 00 00 00 00 00 00 00 00 
       00002138 00 00 00 00 00 00 00 00 00 00 
       00002142 00 00 00 00 00 00 00 00 00 00 
       0000214C 00 00 00 00 00 00 00 00 00 00 
       00002156 00 00 00 00 00 00 00 00 00 00 
       00002160 00 00 00 00 00 00 00 00 00 00 
       0000216A 00 00 00 00 00 00 00 00 00 00 
       00002174 00 00 00 00 00 00 00 00 00 00 
       0000217E 00 00 00 00 00 00 00 00 00 00 
       00002188 00 00 00 00 00 00 00 00 00 00 
       00002192 00 00 00 00 00 00 00 00 00 00 
       0000219C 00 00 00 00 00 00 00 00 00 00 
       000021A6 00 00 00 00 00 00 00 00 00 00 
       000021B0 00 00 00 00 00 00 00 00 00 00 
       000021BA 00 00 00 00 00 00 00 00 00 00 
       000021C4 00 00 00 00 00 00 00 00 00 00 
       000021CE 00 00 00 00 00 00 00 00 00 00 
       000021D8 00 00 00 00 00 00 00 00 00 00 
       000021E2 00 00 00 00 00 00 00 00 00 00 
       000021EC 00 00 00 00 00 00 00 00 00 00 
       000021F6 00 00 00 00 00 00 00 00 00 00 
       00002200 00 00 00 00 00 00 00 00 00 00 
       0000220A 00 00 00 00 00 00 00 00 00 00 
       00002214 00 00 00 00 00 00 00 00 00 00 
       0000221E 00 00 00 00 00 00 00 00 00 00 
       00002228 00 00 00 00 00 00 00 00 00 00 
       00002232 00 00 00 00 00 00 00 00 00 00 
       0000223C 00 00 00 00 00 00 00 00 00 00 
       00002246 00 00 00 00 00 00 00 00 00 00 
       00002250 00 00 00 00 00 00 00 00 00 00 
       0000225A 00 00 00 00 00 00 00 00 00 00 
       00002264 00 00 00 00 00 00 00 00 00 00 
       0000226E 00 00 00 00 00 00 00 00 00 00 
       00002278 00 00 00 00 00 00 00 00 00 00 
       00002282 00 00 00 00 00 00 00 00 00 00 
       0000228C 00 00 00 00 00 00 00 00 00 00 
       00002296 00 00 00 00 00 00 00 00 00 00 
       000022A0 00 00 00 00 00 00 00 00 00 00 
       000022AA 00 00 00 00 00 00 00 00 00 00 
       000022B4 00 00 00 00 00 00 00 00 00 00 
       000022BE 00 00 00 00 00 00 00 00 00 00 
       000022C8 00 00 00 00 00 00 00 00 00 00 
       000022D2 00 00 00 00 00 00 00 00 00 00 
       000022DC 00 00 00 00 00 00 00 00 00 00 
       000022E6 00 00 00 00 00 00 00 00 00 00 
       000022F0 00 00 00 00 00 00 00 00 00 00 
       000022FA 00 00 00 00 00 00 00 00 00 00 
       00002304 00 00 00 00 00 00 00 00 00 00 
       0000230E 00 00 00 00 00 00 00 00 00 00 
       00002318 00 00 00 00 00 00 00 00 00 00 
       00002322 00 00 00 00 00 00 00 00 00 00 
       0000232C 00 00 00 00 00 00 00 00 00 00 
       00002336 00 00 00 00 00 00 00 00 00 00 
       00002340 00 00 00 00 00 00 00 00 00 00 
       0000234A 00 00 00 00 00 00 00 00 00 00 
       00002354 00 00 00 00 00 00 00 00 00 00 
       0000235E 00 00 00 00 00 00 00 00 00 00 
       00002368 00 00 00 00 00 00 00 00 00 00 
       00002372 00 00 00 00 00 00 00 00 00 00 
       0000237C 00 00 00 00 00 00 00 00 00 00 
       00002386 00 00 00 00 00 00 00 00 00 00 
       00002390 00 00 00 00 00 00 00 00 00 00 
       0000239A 00 00 00 00 00 00 00 00 00 00 
       000023A4 00 00 00 00 00 00 00 00 00 00 
       000023AE 00 00 00 00 00 00 00 00 00 00 
       000023B8 00 00 00 00 00 00 00 00 00 00 
       000023C2 00 00 00 00 00 00 00 00 00 00 
       000023CC 00 00 00 00 00 00 00 00 00 00 
       000023D6 00 00 00 00 00 00 00 00 00 00 
       000023E0 00 00 00 00 00 00 00 00 00 00 
       000023EA 00 00 00 00 00 00 00 00 00 00 
       000023F4 00 00 00 00 00 00 00 00 00 00 
       000023FE 00 00 00 00 00 00 00 00 00 00 
       00002408 00 00 00 00 00 00 00 00 00 00 
       00002412 00 00 00 00 00 00 00 00 00 00 
       0000241C 00 00 00 00 00 00 00 00 00 00 
       00002426 00 00 00 00 00 00 00 00 00 00 
       00002430 00 00 00 00 00 00 00 00 00 00 
       0000243A 00 00 00 00 00 00 00 00 00 00 
       00002444 00 00 00 00 00 00 00 00 00 00 
       0000244E 00 00 00 00 00 00 00 00 00 00 
       00002458 00 00 00 00 00 00 00 00 00 00 
       00002462 00 00 00 00 00 00 00 00 00 00 
       0000246C 00 00 00 00 00 00 00 00 00 00 
       00002476 00 00 00 00 00 00 00 00 00 00 
       00002480 00 00 00 00 00 00 00 00 00 00 
       0000248A 00 00 00 00 00 00 00 00 00 00 
       00002494 00 00 00 00 00 00 00 00 00 00 
       0000249E 00 00 00 00 00 00 00 00 00 00 
       000024A8 00 00 00 00 00 00 00 00 00 00 
       000024B2 00 00 00 00 00 00 00 00 00 00 
       000024BC 00 00 00 00 00 00 00 00 00 00 
       000024C6 00 00 00 00 00 00 00 00 00 00 
       000024D0 00 00 00 00 00 00 00 00 00 00 
       000024DA 00 00 00 00 00 00 00 00 00 00 
       000024E4 00 00 00 00 00 00 00 00 00 00 
       000024EE 00 00 00 00 00 00 00 00 00 00 
       000024F8 00 00 00 00 00 00 00 00 00 00 
       00002502 00 00 00 00 00 00 00 00 00 00 
       0000250C 00 00 00 00 00 00 00 00 00 00 
       00002516 00 00 00 00 00 00 00 00 00 00 
       00002520 00 00 00 00 00 00 00 00 00 00 
       0000252A 00 00 00 00 00 00 00 00 00 00 
       00002534 00 00 00 00 00 00 00 00 00 00 
       0000253E 00 00 00 00 00 00 00 00 00 00 
       00002548 00 00 00 00 00 00 00 00 00 00 
       00002552 00 00 00 00 00 00 00 00 00 00 
       0000255C 00 00 00 00 00 00 00 00 00 00 
       00002566 00 00 00 00 00 00 00 00 00 00 
       00002570 00 00 00 00 00 00 00 00 00 00 
       0000257A 00 00 00 00 00 00 00 00 00 00 
       00002584 00 00 00 00 00 00 00 00 00 00 
       0000258E 00 00 00 00 00 00 00 00 00 00 
       00002598 00 00 00 00 00 00 00 00 00 00 
       000025A2 00 00 00 00 00 00 00 00 00 00 
       000025AC 00 00 00 00 00 00 00 00 00 00 
       000025B6 00 00 00 00 00 00 00 00 00 00 
       000025C0 00 00 00 00 00 00 00 00 00 00 
       000025CA 00 00 00 00 00 00 00 00 00 00 
       000025D4 00 00 00 00 00 00 00 00 00 00 
       000025DE 00 00 00 00 00 00 00 00 00 00 
       000025E8 00 00 00 00 00 00 00 00 00 00 
       000025F2 00 00 00 00 00 00 00 00 00 00 
       000025FC 00 00 00 00 00 00 00 00 00 00 
       00002606 00 00 00 00 00 00 00 00 00 00 
       00002610 00 00 00 00 00 00 00 00 00 00 
       0000261A 00 00 00 00 00 00 00 00 00 00 
       00002624 00 00 00 00 00 00 00 00 00 00 
       0000262E 00 00 00 00 00 00 00 00 00 00 
       00002638 00 00 00 00 00 00 00 00 00 00 
       00002642 00 00 00 00 00 00 00 00 00 00 
       0000264C 00 00 00 00 00 00 00 00 00 00 
       00002656 00 00 00 00 00 00 00 00 00 00 
       00002660 00 00 00 00 00 00 00 00 00 00 
       0000266A 00 00 00 00 00 00 00 00 00 00 
       00002674 00 00 00 00 00 00 00 00 00 00 
       0000267E 00 00 00 00 00 00 00 00 00 00 
       00002688 00 00 00 00 00 00 00 00 00 00 
       00002692 00 00 00 00 00 00 00 00 00 00 
       0000269C 00 00 00 00 00 00 00 00 00 00 
       000026A6 00 00 00 00 00 00 00 00 00 00 
       000026B0 00 00 00 00 00 00 00 00 00 00 
       000026BA 00 00 00 00 00 00 00 00 00 00 
       000026C4 00 00 00 00 00 00 00 00 00 00 
       000026CE 00 00 00 00 00 00 00 00 00 00 
       000026D8 00 00 00 00 00 00 00 00 00 00 
       000026E2 00 00 00 00 00 00 00 00 00 00 
       000026EC 00 00 00 00 00 00 00 00 00 00 
       000026F6 00 00 00 00 00 00 00 00 00 00 
       00002700 00 00 00 00 00 00 00 00 00 00 
       0000270A 00 00 00 00 00 00 00 00 00 00 
       00002714 00 00 00 00 00 00 00 00 00 00 
       0000271E 00 00 00 00 00 00 00 00 00 00 
       00002728 00 00 00 00 00 00 00 00 00 00 
       00002732 00 00 00 00 00 00 00 00 00 00 
       0000273C 00 00 00 00 00 00 00 00 00 00 
       00002746 00 00 00 00 00 00 00 00 00 00 
       00002750 00 00 00 00 00 00 00 00 00 00 
       0000275A 00 00 00 00 00 00 00 00 00 00 
       00002764 00 00 00 00 00 00 00 00 00 00 
       0000276E 00 00 00 00 00 00 00 00 00 00 
       00002778 00 00 00 00 00 00 00 00 00 00 
       00002782 00 00 00 00 00 00 00 00 00 00 
       0000278C 00 00 00 00 00 00 00 00 00 00 
       00002796 00 00 00 00 00 00 00 00 00 00 
       000027A0 00 00 00 00 00 00 00 00 00 00 
       000027AA 00 00 00 00 00 00 00 00 00 00 
       000027B4 00 00 00 00 00 00 00 00 00 00 
       000027BE 00 00 00 00 00 00 00 00 00 00 
       000027C8 00 00 00 00 00 00 00 00 00 00 
       000027D2 00 00 00 00 00 00 00 00 00 00 
       000027DC 00 00 00 00 00 00 00 00 00 00 
       000027E6 00 00 00 00 00 00 00 00 00 00 
       000027F0 00 00 00 00 00 00 00 00 00 00 
       000027FA 00 00 00 00 00 00 00 00 00 00 
       00002804 00 00 00 00 00 00 00 00 00 00 
       0000280E 00 00 00 00 00 00 00 00 00 00 
       00002818 00 00 00 00 00 00 00 00 00 00 
       00002822 00 00 00 00 00 00 00 00 00 00 
       0000282C 00 00 00 00 00 00 00 00 00 00 
       00002836 00 00 00 00 00 00 00 00 00 00 
       00002840 00 00 00 00 00 00 00 00 00 00 
       0000284A 00 00 00 00 00 00 00 00 00 00 
       00002854 00 00 00 00 00 00 00 00 00 00 
       0000285E 00 00 00 00 00 00 00 00 00 00 
       00002868 00 00 00 00 00 00 00 00 00 00 
       00002872 00 00 00 00 00 00 00 00 00 00 
       0000287C 00 00 00 00 00 00 00 00 00 00 
       00002886 00 00 00 00 00 00 00 00 00 00 
       00002890 00 00 00 00 00 00 00 00 00 00 
       0000289A 00 00 00 00 00 00 00 00 00 00 
       000028A4 00 00 00 00 00 00 00 00 00 00 
       000028AE 00 00 00 00 00 00 00 00 00 00 
       000028B8 00 00 00 00 00 00 00 00 00 00 
       000028C2 00 00 00 00 00 00 00 00 00 00 
       000028CC 00 00 00 00 00 00 00 00 00 00 
       000028D6 00 00 00 00 00 00 00 00 00 00 
       000028E0 00 00 00 00 00 00 00 00 00 00 
       000028EA 00 00 00 00 00 00 00 00 00 00 
       000028F4 00 00 00 00 00 00 00 00 00 00 
       000028FE 00 00 00 00 00 00 00 00 00 00 
       00002908 00 00 00 00 00 00 00 00 00 00 
       00002912 00 00 00 00 00 00 00 00 00 00 
       0000291C 00 00 00 00 00 00 00 00 00 00 
       00002926 00 00 00 00 00 00 00 00 00 00 
       00002930 00 00 00 00 00 00 00 00 00 00 
       0000293A 00 00 00 00 00 00 00 00 00 00 
       00002944 00 00 00 00 00 00 00 00 00 00 
       0000294E 00 00 00 00 00 00 00 00 00 00 
       00002958 00 00 00 00 00 00 00 00 00 00 
       00002962 00 00 00 00 00 00 00 00 00 00 
       0000296C 00 00 00 00 00 00 00 00 00 00 
       00002976 00 00 00 00 00 00 00 00 00 00 
       00002980 00 00 00 00 00 00 00 00 00 00 
       0000298A 00 00 00 00 00 00 00 00 00 00 
       00002994 00 00 00 00 00 00 00 00 00 00 
       0000299E 00 00 00 00 00 00 00 00 00 00 
       000029A8 00 00 00 00 00 00 00 00 00 00 
       000029B2 00 00 00 00 00 00 00 00 00 00 
       000029BC 00 00 00 00 00 00 00 00 00 00 
       000029C6 00 00 00 00 00 00 00 00 00 00 
       000029D0 00 00 00 00 00 00 00 00 00 00 
       000029DA 00 00 00 00 00 00 00 00 00 00 
       000029E4 00 00 00 00 00 00 00 00 00 00 
       000029EE 00 00 00 00 00 00 00 00 00 00 
       000029F8 00 00 00 00 00 00 00 00 00 00 
       00002A02 00 00 00 00 00 00 00 00 00 00 
       00002A0C 00 00 00 00 00 00 00 00 00 00 
       00002A16 00 00 00 00 00 00 00 00 00 00 
       00002A20 00 00 00 00 00 00 00 00 00 00 
       00002A2A 00 00 
  3551 00002A2C                                 	GLOBAL	_processctl
  3552                                          [SECTION .data]
  3553 00002A2C                                 	ALIGNB	4
  3554 00002A2C                                 _processctl:
  3555 00002A2C 00 00 00 00                     	RESB	4
  3556 00002A30                                 	GLOBAL	_mpTimer
  3557                                          [SECTION .data]
  3558 00002A30                                 	ALIGNB	4
  3559 00002A30                                 _mpTimer:
  3560 00002A30 00 00 00 00                     	RESB	4
