     1 00000000                                 ; dickos-os
     2 00000000                                 ; TAB=4
     3 00000000                                 
     4 00000000                                 ;本次添加
     5  = 0000000A                              CYLS 	EQU 	10				; 读取柱面（cylinders）数量为10
     6 00000000                                 
     7                                          		ORG		0x7c00			; 指明程序的装载d地址(启动区内容的装载地址0x00007c00-0x00007dff)
     8 00007C00                                 
     9 00007C00                                 ; FAT12格式代码
    10 00007C00                                 
    11 00007C00 EB 4E                           		JMP		entry
    12 00007C02 90                              		DB		0x90
    13 00007C03 44 49 43 4B 53 49 50 4C         		DB		"DICKSIPL"		; 分区名称（8字节）
    14 00007C0B 0200                            		DW		512				; 扇区（sector）（大小512字节）
    15 00007C0D 01                              		DB		1				; 簇(cluster)（大小1个扇区）
    16 00007C0E 0001                            		DW		1				; FAT的起始位置（从第一个扇区开始）
    17 00007C10 02                              		DB		2				; FAT的个数（必须为2）
    18 00007C11 00E0                            		DW		224				; 根目录的大小(224项)
    19 00007C13 0B40                            		DW		2880			; 磁盘大小（必须为2880扇区）
    20 00007C15 F0                              		DB		0xf0			; 磁盘的种类（必须为0xf0）
    21 00007C16 0009                            		DW		9				; FAT的长度（9扇区）
    22 00007C18 0012                            		DW		18				; 1个磁道（track）有几个扇区（必须为18）
    23 00007C1A 0002                            		DW		2				; 磁头数（必须为2）
    24 00007C1C 00000000                        		DD		0				; 不使用分区（必须为0）
    25 00007C20 00000B40                        		DD		2880			; 重写硬盘大小
    26 00007C24 00 00 29                        		DB		0,0,0x29		; 不知道什么意思
    27 00007C27 FFFFFFFF                        		DD		0xffffffff		; （可能）卷标
    28 00007C2B 44 49 43 4B 2D 4F 53 20 20 20   		DB		"DICK-OS    "	; 磁盘名称（11字节）
       00007C35 20 
    29 00007C36 46 41 54 31 32 20 20 20         		DB		"FAT12   "		; 磁盘格式名称（8字节）
    30 00007C3E 00 00 00 00 00 00 00 00 00 00   		RESB	18				; 空出18字节
       00007C48 00 00 00 00 00 00 00 00 
    31 00007C50                                 
    32 00007C50                                 ; 程序主题
    33 00007C50                                 
    34 00007C50                                 entry:
    35 00007C50 B8 0000                         		MOV		AX,0			; 初始化寄存器
    36 00007C53 8E D0                           		MOV		SS,AX
    37 00007C55 BC 7C00                         		MOV		SP,0x7c00
    38 00007C58 8E D8                           		MOV		DS,AX
    39 00007C5A B8 0820                         		MOV		AX,0x0820
    40 00007C5D 8E C0                           		MOV		ES,AX
    41 00007C5F B5 00                           		MOV		CH,0			; 柱面0
    42 00007C61 B6 00                           		MOV		DH,0			; 磁头0
    43 00007C63 B1 02                           		MOV		CL,2			; 扇区2
    44 00007C65                                 readloop:
    45 00007C65 BE 0000                         		MOV		SI,0			; 记录失败次数的寄存器
    46 00007C68                                 retry:
    47 00007C68 B4 02                           		MOV		AH,0x02			; AH=0x02 : 读入磁盘
    48 00007C6A B0 01                           		MOV		AL,1			; 一个扇区
    49 00007C6C BB 0000                         		MOV		BX,0
    50 00007C6F B2 00                           		MOV		DL,0x00			; A驱动器
    51 00007C71 CD 13                           		INT		0x13			; 使用bios19号函数（磁盘操作 0x02:读盘）
    52 00007C73 73 10                           		JNC		next			; 没有出现错误跳转到next，读取下一个扇区
    53 00007C75 83 C6 01                        		ADD		SI,1			; 出错次数SI加一
    54 00007C78 83 FE 05                        		CMP		SI,5			; SI与5比较
    55 00007C7B 73 2E                           		JAE		error			; SI >= 5 跳转至error
    56 00007C7D B4 00                           		MOV		AH,0x00			; AH赋值0x00
    57 00007C7F B2 00                           		MOV		DL,0x00			; A驱动器
    58 00007C81 CD 13                           		INT		0x13			; 使用bios19号函数（磁盘操作 0x00:重置驱动器）
    59 00007C83 EB E3                           		JMP		retry
    60 00007C85                                 next:
    61 00007C85 8C C0                           		MOV		AX,ES			; 内存地址后移0x200
    62 00007C87 05 0020                         		ADD		AX,0x0020		; AX一个扇区512字节，512的16进制为0x20，读取下一个扇区只需在原地址加0x20即可
    63 00007C8A 8E C0                           		MOV		ES,AX			; 由于不能直接对ES执行ADD指令，所以利用AX对EX进行赋值
    64 00007C8C 80 C1 01                        		ADD		CL,1			; CL加一
    65 00007C8F 80 F9 12                        		CMP		CL,18			; 比较CL与18
    66 00007C92                                 		
    67 00007C92                                 ; 本次添加
    68 00007C92                                 
    69 00007C92 76 D1                           		JBE		readloop		; 如果CL<=18跳转至readloop
    70 00007C94 B1 01                           		MOV		CL,1			; 扇区CL重置为1
    71 00007C96 80 C6 01                        		ADD		DH,1			; 磁头DH为1
    72 00007C99 80 FE 02                        		CMP		DH,2			; 比较DH与2
    73 00007C9C 72 C7                           		JB 		readloop		; DH<2时跳转至readloop
    74 00007C9E B6 00                           		MOV 	DH,0			; 磁头DH重置为1
    75 00007CA0 80 C5 01                        		ADD		CH,1			; 柱面CH加一
    76 00007CA3 80 FD 0A                        		CMP		CH,CYLS			; 比较柱面CH与CYLS
    77 00007CA6 72 BD                           		JB		readloop		; 柱面CH小于10跳转至readloop
    78 00007CA8                                 
    79 00007CA8                                 fin:
    80 00007CA8 F4                              		HLT						; cpu停止等待指令
    81 00007CA9 EB FD                           		JMP		fin				; 无限循环
    82 00007CAB                                 
    83 00007CAB                                 error:
    84 00007CAB BE 7CC0                         		MOV		SI,msg
    85 00007CAE                                 putloop:
    86 00007CAE 8A 04                           		MOV		AL,[SI]
    87 00007CB0 83 C6 01                        		ADD		SI,1			; SI加1
    88 00007CB3 3C 00                           		CMP		AL,0
    89 00007CB5 74 F1                           		JE		fin
    90 00007CB7 B4 0E                           		MOV		AH,0x0e			; 显示一个文字
    91 00007CB9 BB 000F                         		MOV		BX,15			; 指定字符颜色
    92 00007CBC CD 10                           		INT		0x10			; 调用bios16号函数（调用显卡）
    93 00007CBE EB EE                           		JMP		putloop
    94 00007CC0                                 msg:
    95 00007CC0 0A 0A                           		DB		0x0a, 0x0a		; 两个换行符
    96 00007CC2 6C 6F 61 64 20 65 72 72 6F 72   		DB		"load error"
    97 00007CCC 0A                              		DB		0x0a			; 换行符
    98 00007CCD 00                              		DB		0
    99 00007CCE                                 
   100 00007CCE 00 00 00 00 00 00 00 00 00 00   		RESB	0x7dfe-$		; 填写0x00直到0x001fe
       00007CD8 00 00 00 00 00 00 00 00 00 00 
       00007CE2 00 00 00 00 00 00 00 00 00 00 
       00007CEC 00 00 00 00 00 00 00 00 00 00 
       00007CF6 00 00 00 00 00 00 00 00 00 00 
       00007D00 00 00 00 00 00 00 00 00 00 00 
       00007D0A 00 00 00 00 00 00 00 00 00 00 
       00007D14 00 00 00 00 00 00 00 00 00 00 
       00007D1E 00 00 00 00 00 00 00 00 00 00 
       00007D28 00 00 00 00 00 00 00 00 00 00 
       00007D32 00 00 00 00 00 00 00 00 00 00 
       00007D3C 00 00 00 00 00 00 00 00 00 00 
       00007D46 00 00 00 00 00 00 00 00 00 00 
       00007D50 00 00 00 00 00 00 00 00 00 00 
       00007D5A 00 00 00 00 00 00 00 00 00 00 
       00007D64 00 00 00 00 00 00 00 00 00 00 
       00007D6E 00 00 00 00 00 00 00 00 00 00 
       00007D78 00 00 00 00 00 00 00 00 00 00 
       00007D82 00 00 00 00 00 00 00 00 00 00 
       00007D8C 00 00 00 00 00 00 00 00 00 00 
       00007D96 00 00 00 00 00 00 00 00 00 00 
       00007DA0 00 00 00 00 00 00 00 00 00 00 
       00007DAA 00 00 00 00 00 00 00 00 00 00 
       00007DB4 00 00 00 00 00 00 00 00 00 00 
       00007DBE 00 00 00 00 00 00 00 00 00 00 
       00007DC8 00 00 00 00 00 00 00 00 00 00 
       00007DD2 00 00 00 00 00 00 00 00 00 00 
       00007DDC 00 00 00 00 00 00 00 00 00 00 
       00007DE6 00 00 00 00 00 00 00 00 00 00 
       00007DF0 00 00 00 00 00 00 00 00 00 00 
       00007DFA 00 00 00 00 
   101 00007DFE                                 
   102 00007DFE 55 AA                           		DB		0x55, 0xaa
